---
triple:          'arm64-apple-darwin'
binary-path:     BinarySearchTree_public_tests.exe
relocations:
  - { offsetInCU: 0x52, offset: 0x52, size: 0x8, addend: 0x0, symName: __ZL24register_bst_public_test, symObjAddr: 0x9B164, symBinAddr: 0x100018000, symSize: 0x0 }
  - { offsetInCU: 0xA459, offset: 0xA459, size: 0x8, addend: 0x0, symName: __ZNSt3__124__put_character_sequenceB8ue170006IcNS_11char_traitsIcEEEERNS_13basic_ostreamIT_T0_EES7_PKS4_m, symObjAddr: 0x48DC, symBinAddr: 0x100005014, symSize: 0x1EC }
  - { offsetInCU: 0xDEB5, offset: 0xDEB5, size: 0x8, addend: 0x0, symName: __ZNSt3__1ltB8ue170006IcNS_11char_traitsIcEENS_9allocatorIcEEEEbRKNS_12basic_stringIT_T0_T1_EESB_, symObjAddr: 0x1870, symBinAddr: 0x100001FA8, symSize: 0x38 }
  - { offsetInCU: 0xDF0D, offset: 0xDF0D, size: 0x8, addend: 0x0, symName: __ZNSt3__13minB8ue170006ImEERKT_S3_S3_, symObjAddr: 0x1B50, symBinAddr: 0x100002288, symSize: 0x2C }
  - { offsetInCU: 0xDF50, offset: 0xDF50, size: 0x8, addend: 0x0, symName: __ZNSt3__112__to_addressB8ue170006IKcEEPT_S3_, symObjAddr: 0x1C54, symBinAddr: 0x10000238C, symSize: 0x14 }
  - { offsetInCU: 0xDFB8, offset: 0xDFB8, size: 0x8, addend: 0x0, symName: __ZNSt3__13minB8ue170006ImNS_6__lessIvvEEEERKT_S5_S5_T0_, symObjAddr: 0x1D20, symBinAddr: 0x100002458, symSize: 0x54 }
  - { offsetInCU: 0xE088, offset: 0xE088, size: 0x8, addend: 0x0, symName: __ZNSt3__17launderB8ue170006IKNS_4pairIKNS_12basic_stringIcNS_11char_traitsIcEENS_9allocatorIcEEEEN19unit_test_framework8TestCaseEEEEEPT_SE_, symObjAddr: 0x1E10, symBinAddr: 0x100002548, symSize: 0x24 }
  - { offsetInCU: 0xE0BF, offset: 0xE0BF, size: 0x8, addend: 0x0, symName: __ZNSt3__19__launderB8ue170006IKNS_4pairIKNS_12basic_stringIcNS_11char_traitsIcEENS_9allocatorIcEEEEN19unit_test_framework8TestCaseEEEEEPT_SE_, symObjAddr: 0x1E34, symBinAddr: 0x10000256C, symSize: 0x14 }
  - { offsetInCU: 0xE114, offset: 0xE114, size: 0x8, addend: 0x0, symName: __ZNSt3__117__libcpp_allocateB8ue170006Emm, symObjAddr: 0x20E8, symBinAddr: 0x100002820, symSize: 0x60 }
  - { offsetInCU: 0xE16E, offset: 0xE16E, size: 0x8, addend: 0x0, symName: __ZNSt3__124__is_overaligned_for_newB8ue170006Em, symObjAddr: 0x2160, symBinAddr: 0x100002898, symSize: 0x20 }
  - { offsetInCU: 0xE19C, offset: 0xE19C, size: 0x8, addend: 0x0, symName: __ZNSt3__121__libcpp_operator_newB8ue170006IJmSt11align_val_tEEEPvDpT_, symObjAddr: 0x2180, symBinAddr: 0x1000028B8, symSize: 0x2C }
  - { offsetInCU: 0xE1E9, offset: 0xE1E9, size: 0x8, addend: 0x0, symName: __ZNSt3__121__libcpp_operator_newB8ue170006IJmEEEPvDpT_, symObjAddr: 0x21AC, symBinAddr: 0x1000028E4, symSize: 0x24 }
  - { offsetInCU: 0xE222, offset: 0xE222, size: 0x8, addend: 0x0, symName: __ZNSt3__17launderB8ue170006INS_4pairIKNS_12basic_stringIcNS_11char_traitsIcEENS_9allocatorIcEEEEN19unit_test_framework8TestCaseEEEEEPT_SD_, symObjAddr: 0x2584, symBinAddr: 0x100002CBC, symSize: 0x24 }
  - { offsetInCU: 0xE259, offset: 0xE259, size: 0x8, addend: 0x0, symName: __ZNSt3__19__launderB8ue170006INS_4pairIKNS_12basic_stringIcNS_11char_traitsIcEENS_9allocatorIcEEEEN19unit_test_framework8TestCaseEEEEEPT_SD_, symObjAddr: 0x25A8, symBinAddr: 0x100002CE0, symSize: 0x14 }
  - { offsetInCU: 0xE290, offset: 0xE290, size: 0x8, addend: 0x0, symName: __ZNSt3__127__tree_balance_after_insertB8ue170006IPNS_16__tree_node_baseIPvEEEEvT_S5_, symObjAddr: 0x2644, symBinAddr: 0x100002D7C, symSize: 0x32C }
  - { offsetInCU: 0xE30C, offset: 0xE30C, size: 0x8, addend: 0x0, symName: __ZNSt3__120__tree_is_left_childB8ue170006IPNS_16__tree_node_baseIPvEEEEbT_, symObjAddr: 0x29B0, symBinAddr: 0x1000030E8, symSize: 0x2C }
  - { offsetInCU: 0xE341, offset: 0xE341, size: 0x8, addend: 0x0, symName: __ZNSt3__118__tree_left_rotateB8ue170006IPNS_16__tree_node_baseIPvEEEEvT_, symObjAddr: 0x29DC, symBinAddr: 0x100003114, symSize: 0xD8 }
  - { offsetInCU: 0xE383, offset: 0xE383, size: 0x8, addend: 0x0, symName: __ZNSt3__119__tree_right_rotateB8ue170006IPNS_16__tree_node_baseIPvEEEEvT_, symObjAddr: 0x2AB4, symBinAddr: 0x1000031EC, symSize: 0xCC }
  - { offsetInCU: 0xE3C5, offset: 0xE3C5, size: 0x8, addend: 0x0, symName: __ZNSt3__119__libcpp_deallocateB8ue170006EPvmm, symObjAddr: 0x2DF0, symBinAddr: 0x100003528, symSize: 0x60 }
  - { offsetInCU: 0xE42A, offset: 0xE42A, size: 0x8, addend: 0x0, symName: __ZNSt3__127__do_deallocate_handle_sizeB8ue170006IJSt11align_val_tEEEvPvmDpT_, symObjAddr: 0x2E50, symBinAddr: 0x100003588, symSize: 0x30 }
  - { offsetInCU: 0xE47D, offset: 0xE47D, size: 0x8, addend: 0x0, symName: __ZNSt3__127__do_deallocate_handle_sizeB8ue170006IJEEEvPvmDpT_, symObjAddr: 0x2E80, symBinAddr: 0x1000035B8, symSize: 0x28 }
  - { offsetInCU: 0xE4BB, offset: 0xE4BB, size: 0x8, addend: 0x0, symName: __ZNSt3__124__libcpp_operator_deleteB8ue170006IJPvSt11align_val_tEEEvDpT_, symObjAddr: 0x2EA8, symBinAddr: 0x1000035E0, symSize: 0x2C }
  - { offsetInCU: 0xE504, offset: 0xE504, size: 0x8, addend: 0x0, symName: __ZNSt3__124__libcpp_operator_deleteB8ue170006IJPvEEEvDpT_, symObjAddr: 0x2ED4, symBinAddr: 0x10000360C, symSize: 0x24 }
  - { offsetInCU: 0xE539, offset: 0xE539, size: 0x8, addend: 0x0, symName: __ZNSt3__1lsB8ue170006INS_11char_traitsIcEEEERNS_13basic_ostreamIcT_EES6_PKc, symObjAddr: 0x36B8, symBinAddr: 0x100003DF0, symSize: 0x48 }
  - { offsetInCU: 0xE57F, offset: 0xE57F, size: 0x8, addend: 0x0, symName: __ZNSt3__14endlB8ue170006IcNS_11char_traitsIcEEEERNS_13basic_ostreamIT_T0_EES7_, symObjAddr: 0x372C, symBinAddr: 0x100003E64, symSize: 0x58 }
  - { offsetInCU: 0xE5BF, offset: 0xE5BF, size: 0x8, addend: 0x0, symName: __ZNSt3__1lsB8ue170006IcNS_11char_traitsIcEENS_9allocatorIcEEEERNS_13basic_ostreamIT_T0_EES9_RKNS_12basic_stringIS6_S7_T1_EE, symObjAddr: 0x3784, symBinAddr: 0x100003EBC, symSize: 0x4C }
  - { offsetInCU: 0xE993, offset: 0xE993, size: 0x8, addend: 0x0, symName: __ZNSt3__1eqB8ue170006IcNS_11char_traitsIcEENS_9allocatorIcEEEEbRKNS_12basic_stringIT_T0_T1_EEPKS6_, symObjAddr: 0x3EEC, symBinAddr: 0x100004624, symSize: 0xAC }
  - { offsetInCU: 0xEA05, offset: 0xEA05, size: 0x8, addend: 0x0, symName: __ZNSt3__13maxB8ue170006IiEERKT_S3_S3_, symObjAddr: 0x43F4, symBinAddr: 0x100004B2C, symSize: 0x2C }
  - { offsetInCU: 0xEA48, offset: 0xEA48, size: 0x8, addend: 0x0, symName: __ZNSt3__13maxB8ue170006IiNS_6__lessIvvEEEERKT_S5_S5_T0_, symObjAddr: 0x4420, symBinAddr: 0x100004B58, symSize: 0x54 }
  - { offsetInCU: 0xEAA2, offset: 0xEAA2, size: 0x8, addend: 0x0, symName: __ZNSt3__116__pad_and_outputB8ue170006IcNS_11char_traitsIcEEEENS_19ostreambuf_iteratorIT_T0_EES6_PKS4_S8_S8_RNS_8ios_baseES4_, symObjAddr: 0x4B18, symBinAddr: 0x100005250, symSize: 0x240 }
  - { offsetInCU: 0xEB71, offset: 0xEB71, size: 0x8, addend: 0x0, symName: __ZNSt3__112__to_addressB8ue170006IcEEPT_S2_, symObjAddr: 0x4F88, symBinAddr: 0x1000056C0, symSize: 0x14 }
  - { offsetInCU: 0xEBD9, offset: 0xEBD9, size: 0x8, addend: 0x0, symName: __ZNSt3__19use_facetB8ue170006INS_5ctypeIcEEEERKT_RKNS_6localeE, symObjAddr: 0x5198, symBinAddr: 0x1000058D0, symSize: 0x2C }
  - { offsetInCU: 0xF0A6, offset: 0xF0A6, size: 0x8, addend: 0x0, symName: __ZNSt3__118__constexpr_strlenB8ue170006EPKc, symObjAddr: 0x5230, symBinAddr: 0x100005968, symSize: 0x24 }
  - { offsetInCU: 0xFD95, offset: 0xFD95, size: 0x8, addend: 0x0, symName: __ZNSt3__15rightB8ue170006ERNS_8ios_baseE, symObjAddr: 0x55E4, symBinAddr: 0x100005D1C, symSize: 0x30 }
  - { offsetInCU: 0xFDC3, offset: 0xFDC3, size: 0x8, addend: 0x0, symName: __ZNSt3__1lsB8ue170006IcNS_11char_traitsIcEEEERNS_13basic_ostreamIT_T0_EES7_RKNS_8__iom_t6E, symObjAddr: 0x5614, symBinAddr: 0x100005D4C, symSize: 0x40 }
  - { offsetInCU: 0xFE12, offset: 0xFE12, size: 0x8, addend: 0x0, symName: __ZNSt3__14setwB8ue170006Ei, symObjAddr: 0x5654, symBinAddr: 0x100005D8C, symSize: 0x2C }
  - { offsetInCU: 0xFE40, offset: 0xFE40, size: 0x8, addend: 0x0, symName: __ZNSt3__14leftB8ue170006ERNS_8ios_baseE, symObjAddr: 0x5680, symBinAddr: 0x100005DB8, symSize: 0x30 }
  - { offsetInCU: 0xFE6E, offset: 0xFE6E, size: 0x8, addend: 0x0, symName: __ZNSt3__1lsB8ue170006INS_11char_traitsIcEEEERNS_13basic_ostreamIcT_EES6_c, symObjAddr: 0x56B0, symBinAddr: 0x100005DE8, symSize: 0x34 }
  - { offsetInCU: 0x10082, offset: 0x10082, size: 0x8, addend: 0x0, symName: __ZNSt3__112__to_addressB8ue170006IPN16BinarySearchTreeIiNS_4lessIiEEE4NodeEEEPT_S8_, symObjAddr: 0x6248, symBinAddr: 0x100006980, symSize: 0x14 }
  - { offsetInCU: 0x100B7, offset: 0x100B7, size: 0x8, addend: 0x0, symName: __ZNSt3__13maxB8ue170006ImEERKT_S3_S3_, symObjAddr: 0x727C, symBinAddr: 0x1000079B4, symSize: 0x2C }
  - { offsetInCU: 0x10553, offset: 0x10553, size: 0x8, addend: 0x0, symName: __ZNSt3__14swapB8ue170006IPPPN16BinarySearchTreeIiNS_4lessIiEEE4NodeEEENS_9enable_ifIXaasr21is_move_constructibleIT_EE5valuesr18is_move_assignableISA_EE5valueEvE4typeERSA_SD_, symObjAddr: 0x78E4, symBinAddr: 0x10000801C, symSize: 0x3C }
  - { offsetInCU: 0x105A4, offset: 0x105A4, size: 0x8, addend: 0x0, symName: __ZNSt3__14moveB8ue170006IPPPN16BinarySearchTreeIiNS_4lessIiEEE4NodeES8_EET0_T_SA_S9_, symObjAddr: 0x7A14, symBinAddr: 0x10000814C, symSize: 0x40 }
  - { offsetInCU: 0x1061A, offset: 0x1061A, size: 0x8, addend: 0x0, symName: __ZNSt3__112__to_addressB8ue170006IPPN16BinarySearchTreeIiNS_4lessIiEEE4NodeEEEPT_S9_, symObjAddr: 0x7B1C, symBinAddr: 0x100008254, symSize: 0x14 }
  - { offsetInCU: 0x1064F, offset: 0x1064F, size: 0x8, addend: 0x0, symName: __ZNSt3__16__moveB8ue170006INS_17_ClassicAlgPolicyEPPPN16BinarySearchTreeIiNS_4lessIiEEE4NodeES9_S9_EENS_4pairIT0_T2_EESB_T1_SC_, symObjAddr: 0x7B30, symBinAddr: 0x100008268, symSize: 0x44 }
  - { offsetInCU: 0x106BB, offset: 0x106BB, size: 0x8, addend: 0x0, symName: __ZNSt3__123__dispatch_copy_or_moveB8ue170006INS_17_ClassicAlgPolicyENS_11__move_loopIS1_EENS_14__move_trivialEPPPN16BinarySearchTreeIiNS_4lessIiEEE4NodeESC_SC_EENS_4pairIT2_T4_EESE_T3_SF_, symObjAddr: 0x7B74, symBinAddr: 0x1000082AC, symSize: 0x44 }
  - { offsetInCU: 0x10739, offset: 0x10739, size: 0x8, addend: 0x0, symName: __ZNSt3__121__unwrap_and_dispatchB8ue170006INS_10__overloadINS_11__move_loopINS_17_ClassicAlgPolicyEEENS_14__move_trivialEEEPPPN16BinarySearchTreeIiNS_4lessIiEEE4NodeESE_SE_Li0EEENS_4pairIT0_T2_EESG_T1_SH_, symObjAddr: 0x7BB8, symBinAddr: 0x1000082F0, symSize: 0xB4 }
  - { offsetInCU: 0x107C7, offset: 0x107C7, size: 0x8, addend: 0x0, symName: __ZNSt3__114__unwrap_rangeB8ue170006IPPPN16BinarySearchTreeIiNS_4lessIiEEE4NodeES8_EENS_4pairIT0_SA_EET_SC_, symObjAddr: 0x7C6C, symBinAddr: 0x1000083A4, symSize: 0x60 }
  - { offsetInCU: 0x1098B, offset: 0x1098B, size: 0x8, addend: 0x0, symName: __ZNSt3__113__unwrap_iterB8ue170006IPPPN16BinarySearchTreeIiNS_4lessIiEEE4NodeENS_18__unwrap_iter_implIS8_Lb1EEELi0EEEDTclsrT0_8__unwrapclsr3stdE7declvalIT_EEEESC_, symObjAddr: 0x7D14, symBinAddr: 0x10000844C, symSize: 0x24 }
  - { offsetInCU: 0x109CF, offset: 0x109CF, size: 0x8, addend: 0x0, symName: __ZNSt3__19make_pairB8ue170006IPPPN16BinarySearchTreeIiNS_4lessIiEEE4NodeES8_EENS_4pairINS_18__unwrap_ref_decayIT_E4typeENSA_IT0_E4typeEEEOSB_OSE_, symObjAddr: 0x7D38, symBinAddr: 0x100008470, symSize: 0x38 }
  - { offsetInCU: 0x10A1E, offset: 0x10A1E, size: 0x8, addend: 0x0, symName: __ZNSt3__114__rewrap_rangeB8ue170006IPPPN16BinarySearchTreeIiNS_4lessIiEEE4NodeES8_EET_S9_T0_, symObjAddr: 0x7D70, symBinAddr: 0x1000084A8, symSize: 0x2C }
  - { offsetInCU: 0x10A6A, offset: 0x10A6A, size: 0x8, addend: 0x0, symName: __ZNSt3__113__rewrap_iterB8ue170006IPPPN16BinarySearchTreeIiNS_4lessIiEEE4NodeES8_NS_18__unwrap_iter_implIS8_Lb1EEEEET_SB_T0_, symObjAddr: 0x7D9C, symBinAddr: 0x1000084D4, symSize: 0x3C }
  - { offsetInCU: 0x10ABF, offset: 0x10ABF, size: 0x8, addend: 0x0, symName: __ZNSt3__119__copy_trivial_implB8ue170006IPPN16BinarySearchTreeIiNS_4lessIiEEE4NodeES7_EENS_4pairIPT_PT0_EESA_SA_SC_, symObjAddr: 0x7DD8, symBinAddr: 0x100008510, symSize: 0x80 }
  - { offsetInCU: 0x10B27, offset: 0x10B27, size: 0x8, addend: 0x0, symName: __ZNSt3__119__constexpr_memmoveB8ue170006IPPN16BinarySearchTreeIiNS_4lessIiEEE4NodeES7_Li0EEEPT_S9_PT0_NS_15__element_countE, symObjAddr: 0x7E58, symBinAddr: 0x100008590, symSize: 0x64 }
  - { offsetInCU: 0x10B95, offset: 0x10B95, size: 0x8, addend: 0x0, symName: __ZNSt3__19make_pairB8ue170006IRPPPN16BinarySearchTreeIiNS_4lessIiEEE4NodeES8_EENS_4pairINS_18__unwrap_ref_decayIT_E4typeENSB_IT0_E4typeEEEOSC_OSF_, symObjAddr: 0x7EBC, symBinAddr: 0x1000085F4, symSize: 0x38 }
  - { offsetInCU: 0x10C37, offset: 0x10C37, size: 0x8, addend: 0x0, symName: __ZNSt3__18distanceB8ue170006INS_13move_iteratorIPPPN16BinarySearchTreeIiNS_4lessIiEEE4NodeEEEEENS_15iterator_traitsIT_E15difference_typeESC_SC_, symObjAddr: 0x8124, symBinAddr: 0x10000885C, symSize: 0x3C }
  - { offsetInCU: 0x10C7A, offset: 0x10C7A, size: 0x8, addend: 0x0, symName: __ZNSt3__110__distanceB8ue170006INS_13move_iteratorIPPPN16BinarySearchTreeIiNS_4lessIiEEE4NodeEEEEENS_15iterator_traitsIT_E15difference_typeESC_SC_NS_26random_access_iterator_tagE, symObjAddr: 0x8328, symBinAddr: 0x100008A60, symSize: 0x30 }
  - { offsetInCU: 0x10CC7, offset: 0x10CC7, size: 0x8, addend: 0x0, symName: __ZNSt3__1miB8ue170006IPPPN16BinarySearchTreeIiNS_4lessIiEEE4NodeES8_EEDTmicldtfp_4baseEcldtfp0_4baseEERKNS_13move_iteratorIT_EERKNSA_IT0_EE, symObjAddr: 0x8358, symBinAddr: 0x100008A90, symSize: 0x48 }
  - { offsetInCU: 0x10D16, offset: 0x10D16, size: 0x8, addend: 0x0, symName: __ZNSt3__113move_backwardB8ue170006IPPPN16BinarySearchTreeIiNS_4lessIiEEE4NodeES8_EET0_T_SA_S9_, symObjAddr: 0x84F0, symBinAddr: 0x100008C28, symSize: 0x40 }
  - { offsetInCU: 0x10D70, offset: 0x10D70, size: 0x8, addend: 0x0, symName: __ZNSt3__115__move_backwardB8ue170006INS_17_ClassicAlgPolicyEPPPN16BinarySearchTreeIiNS_4lessIiEEE4NodeES9_S9_EENS_4pairIT0_T2_EESB_T1_SC_, symObjAddr: 0x8530, symBinAddr: 0x100008C68, symSize: 0x44 }
  - { offsetInCU: 0x10DDC, offset: 0x10DDC, size: 0x8, addend: 0x0, symName: __ZNSt3__123__dispatch_copy_or_moveB8ue170006INS_17_ClassicAlgPolicyENS_20__move_backward_loopIS1_EENS_23__move_backward_trivialEPPPN16BinarySearchTreeIiNS_4lessIiEEE4NodeESC_SC_EENS_4pairIT2_T4_EESE_T3_SF_, symObjAddr: 0x8574, symBinAddr: 0x100008CAC, symSize: 0x44 }
  - { offsetInCU: 0x10E5A, offset: 0x10E5A, size: 0x8, addend: 0x0, symName: __ZNSt3__121__unwrap_and_dispatchB8ue170006INS_10__overloadINS_20__move_backward_loopINS_17_ClassicAlgPolicyEEENS_23__move_backward_trivialEEEPPPN16BinarySearchTreeIiNS_4lessIiEEE4NodeESE_SE_Li0EEENS_4pairIT0_T2_EESG_T1_SH_, symObjAddr: 0x85B8, symBinAddr: 0x100008CF0, symSize: 0xB4 }
  - { offsetInCU: 0x10F2E, offset: 0x10F2E, size: 0x8, addend: 0x0, symName: __ZNSt3__128__copy_backward_trivial_implB8ue170006IPPN16BinarySearchTreeIiNS_4lessIiEEE4NodeES7_EENS_4pairIPT_PT0_EESA_SA_SC_, symObjAddr: 0x86B4, symBinAddr: 0x100008DEC, symSize: 0x90 }
  - { offsetInCU: 0x10F96, offset: 0x10F96, size: 0x8, addend: 0x0, symName: __ZNSt3__19make_pairB8ue170006IRPPPN16BinarySearchTreeIiNS_4lessIiEEE4NodeES9_EENS_4pairINS_18__unwrap_ref_decayIT_E4typeENSB_IT0_E4typeEEEOSC_OSF_, symObjAddr: 0x8744, symBinAddr: 0x100008E7C, symSize: 0x38 }
  - { offsetInCU: 0x10FE5, offset: 0x10FE5, size: 0x8, addend: 0x0, symName: __ZNSt3__13maxB8ue170006ImNS_6__lessIvvEEEERKT_S5_S5_T0_, symObjAddr: 0x8830, symBinAddr: 0x100008F68, symSize: 0x54 }
  - { offsetInCU: 0x1103F, offset: 0x1103F, size: 0x8, addend: 0x0, symName: __ZNSt3__119__allocate_at_leastB8ue170006INS_9allocatorIPPN16BinarySearchTreeIiNS_4lessIiEEE4NodeEEEEENS_19__allocation_resultINS_16allocator_traitsIT_E7pointerEEERSC_m, symObjAddr: 0x89CC, symBinAddr: 0x100009104, symSize: 0x40 }
  - { offsetInCU: 0x11082, offset: 0x11082, size: 0x8, addend: 0x0, symName: __ZNSt3__1neB8ue170006ERKNS_16__deque_iteratorIPN16BinarySearchTreeIiNS_4lessIiEEE4NodeEPS6_RS6_PS7_lLl512EEESC_, symObjAddr: 0x9A30, symBinAddr: 0x10000A168, symSize: 0x34 }
  - { offsetInCU: 0x110BF, offset: 0x110BF, size: 0x8, addend: 0x0, symName: __ZNSt3__1eqB8ue170006ERKNS_16__deque_iteratorIPN16BinarySearchTreeIiNS_4lessIiEEE4NodeEPS6_RS6_PS7_lLl512EEESC_, symObjAddr: 0x9AD4, symBinAddr: 0x10000A20C, symSize: 0x30 }
  - { offsetInCU: 0x110FC, offset: 0x110FC, size: 0x8, addend: 0x0, symName: __ZNSt3__1neB8ue170006ERKNS_21__tree_const_iteratorIN16BinarySearchTreeIiNS_4lessIiEEE16Tree_grid_squareEPNS_11__tree_nodeIS5_PvEElEESC_, symObjAddr: 0xA4DC, symBinAddr: 0x10000AC14, symSize: 0x34 }
  - { offsetInCU: 0x11157, offset: 0x11157, size: 0x8, addend: 0x0, symName: __ZNSt3__1neB8ue170006ERKNS_15__tree_iteratorIN16BinarySearchTreeIiNS_4lessIiEEE16Tree_grid_squareEPNS_11__tree_nodeIS5_PvEElEESC_, symObjAddr: 0xBC74, symBinAddr: 0x10000C3AC, symSize: 0x34 }
  - { offsetInCU: 0x11194, offset: 0x11194, size: 0x8, addend: 0x0, symName: __ZNSt3__1eqB8ue170006ERKNS_15__tree_iteratorIN16BinarySearchTreeIiNS_4lessIiEEE16Tree_grid_squareEPNS_11__tree_nodeIS5_PvEElEESC_, symObjAddr: 0xBD58, symBinAddr: 0x10000C490, symSize: 0x30 }
  - { offsetInCU: 0x111D1, offset: 0x111D1, size: 0x8, addend: 0x0, symName: __ZNSt3__1eqB8ue170006ERKNS_21__tree_const_iteratorIN16BinarySearchTreeIiNS_4lessIiEEE16Tree_grid_squareEPNS_11__tree_nodeIS5_PvEElEESC_, symObjAddr: 0xBDA0, symBinAddr: 0x10000C4D8, symSize: 0x30 }
  - { offsetInCU: 0x1120E, offset: 0x1120E, size: 0x8, addend: 0x0, symName: __ZNSt3__113__tree_removeB8ue170006IPNS_16__tree_node_baseIPvEEEEvT_S5_, symObjAddr: 0xBF94, symBinAddr: 0x10000C6CC, symSize: 0x6E0 }
  - { offsetInCU: 0x1128C, offset: 0x1128C, size: 0x8, addend: 0x0, symName: __ZNSt3__116__tree_next_iterB8ue170006IPNS_15__tree_end_nodeIPNS_16__tree_node_baseIPvEEEES5_EET_T0_, symObjAddr: 0xC674, symBinAddr: 0x10000CDAC, symSize: 0x80 }
  - { offsetInCU: 0x112CA, offset: 0x112CA, size: 0x8, addend: 0x0, symName: __ZNSt3__110__tree_minB8ue170006IPNS_16__tree_node_baseIPvEEEET_S5_, symObjAddr: 0xC6F4, symBinAddr: 0x10000CE2C, symSize: 0x40 }
  - { offsetInCU: 0x112FF, offset: 0x112FF, size: 0x8, addend: 0x0, symName: __ZNSt3__111__tree_nextB8ue170006IPNS_16__tree_node_baseIPvEEEET_S5_, symObjAddr: 0xC734, symBinAddr: 0x10000CE6C, symSize: 0x80 }
  - { offsetInCU: 0x11334, offset: 0x11334, size: 0x8, addend: 0x0, symName: __ZNSt3__1neB8ue170006IPNS_12basic_stringIcNS_11char_traitsIcEENS_9allocatorIcEEEEEEbRKNS_11__wrap_iterIT_EESC_, symObjAddr: 0xE218, symBinAddr: 0x10000E950, symSize: 0x34 }
  - { offsetInCU: 0x11377, offset: 0x11377, size: 0x8, addend: 0x0, symName: __ZNSt3__1eqB8ue170006ERKNS_14__map_iteratorINS_15__tree_iteratorINS_12__value_typeINS_12basic_stringIcNS_11char_traitsIcEENS_9allocatorIcEEEEN19unit_test_framework8TestCaseEEEPNS_11__tree_nodeISB_PvEElEEEESJ_, symObjAddr: 0xE264, symBinAddr: 0x10000E99C, symSize: 0x30 }
  - { offsetInCU: 0x113B4, offset: 0x113B4, size: 0x8, addend: 0x0, symName: __ZNSt3__13endB8ue170006INS_3mapINS_12basic_stringIcNS_11char_traitsIcEENS_9allocatorIcEEEEN19unit_test_framework8TestCaseENS_4lessIS7_EENS5_INS_4pairIKS7_S9_EEEEEEEEDTcldtfp_3endEERT_, symObjAddr: 0xE2D4, symBinAddr: 0x10000EA0C, symSize: 0x2C }
  - { offsetInCU: 0x113E9, offset: 0x113E9, size: 0x8, addend: 0x0, symName: __ZNSt3__1plB8ue170006IcNS_11char_traitsIcEENS_9allocatorIcEEEENS_12basic_stringIT_T0_T1_EEOS9_PKS6_, symObjAddr: 0xE300, symBinAddr: 0x10000EA38, symSize: 0x40 }
  - { offsetInCU: 0x11441, offset: 0x11441, size: 0x8, addend: 0x0, symName: __ZNSt3__18count_ifB8ue170006INS_14__map_iteratorINS_15__tree_iteratorINS_12__value_typeINS_12basic_stringIcNS_11char_traitsIcEENS_9allocatorIcEEEEN19unit_test_framework8TestCaseEEEPNS_11__tree_nodeISC_PvEElEEEEZNSA_9TestSuite9run_testsEiPPcEUlNS_4pairIS9_SB_EEE_EENS_15iterator_traitsIT_E15difference_typeESQ_SQ_T0_, symObjAddr: 0xE8A0, symBinAddr: 0x10000EFD8, symSize: 0xC4 }
  - { offsetInCU: 0x114A9, offset: 0x114A9, size: 0x8, addend: 0x0, symName: __ZNSt3__18count_ifB8ue170006INS_14__map_iteratorINS_15__tree_iteratorINS_12__value_typeINS_12basic_stringIcNS_11char_traitsIcEENS_9allocatorIcEEEEN19unit_test_framework8TestCaseEEEPNS_11__tree_nodeISC_PvEElEEEEZNSA_9TestSuite9run_testsEiPPcEUlNS_4pairIS9_SB_EEE0_EENS_15iterator_traitsIT_E15difference_typeESQ_SQ_T0_, symObjAddr: 0xE9D4, symBinAddr: 0x10000F10C, symSize: 0xC4 }
  - { offsetInCU: 0x11511, offset: 0x11511, size: 0x8, addend: 0x0, symName: __ZNSt3__1eqB8ue170006IcNS_11char_traitsIcEENS_9allocatorIcEEEEbPKT_RKNS_12basic_stringIS5_T0_T1_EE, symObjAddr: 0xEC68, symBinAddr: 0x10000F3A0, symSize: 0xAC }
  - { offsetInCU: 0x11578, offset: 0x11578, size: 0x8, addend: 0x0, symName: __ZNSt3__15flushB8ue170006IcNS_11char_traitsIcEEEERNS_13basic_ostreamIT_T0_EES7_, symObjAddr: 0xEDA0, symBinAddr: 0x10000F4D8, symSize: 0x28 }
  - { offsetInCU: 0x115B8, offset: 0x115B8, size: 0x8, addend: 0x0, symName: __ZNSt3__19transformB8ue170006INS_14__map_iteratorINS_15__tree_iteratorINS_12__value_typeINS_12basic_stringIcNS_11char_traitsIcEENS_9allocatorIcEEEEN19unit_test_framework8TestCaseEEEPNS_11__tree_nodeISC_PvEElEEEENS_20back_insert_iteratorINS_6vectorIS9_NS7_IS9_EEEEEEZNSA_9TestSuite21get_test_names_to_runEiPPcEUlRKNS_4pairIS9_SB_EEE_EET0_T_SX_SW_T1_, symObjAddr: 0xEED8, symBinAddr: 0x10000F610, symSize: 0x104 }
  - { offsetInCU: 0x11629, offset: 0x11629, size: 0x8, addend: 0x0, symName: __ZNSt3__15beginB8ue170006INS_3mapINS_12basic_stringIcNS_11char_traitsIcEENS_9allocatorIcEEEEN19unit_test_framework8TestCaseENS_4lessIS7_EENS5_INS_4pairIKS7_S9_EEEEEEEEDTcldtfp_5beginEERT_, symObjAddr: 0xEFDC, symBinAddr: 0x10000F714, symSize: 0x2C }
  - { offsetInCU: 0x1165E, offset: 0x1165E, size: 0x8, addend: 0x0, symName: __ZNSt3__113back_inserterB8ue170006INS_6vectorINS_12basic_stringIcNS_11char_traitsIcEENS_9allocatorIcEEEENS5_IS7_EEEEEENS_20back_insert_iteratorIT_EERSB_, symObjAddr: 0xF008, symBinAddr: 0x10000F740, symSize: 0x2C }
  - { offsetInCU: 0x11693, offset: 0x11693, size: 0x8, addend: 0x0, symName: __ZNSt3__1neB8ue170006ERKNS_14__map_iteratorINS_15__tree_iteratorINS_12__value_typeINS_12basic_stringIcNS_11char_traitsIcEENS_9allocatorIcEEEEN19unit_test_framework8TestCaseEEEPNS_11__tree_nodeISB_PvEElEEEESJ_, symObjAddr: 0xF034, symBinAddr: 0x10000F76C, symSize: 0x30 }
  - { offsetInCU: 0x116D0, offset: 0x116D0, size: 0x8, addend: 0x0, symName: __ZNSt3__1neB8ue170006ERKNS_15__tree_iteratorINS_12__value_typeINS_12basic_stringIcNS_11char_traitsIcEENS_9allocatorIcEEEEN19unit_test_framework8TestCaseEEEPNS_11__tree_nodeISA_PvEElEESH_, symObjAddr: 0xF0B8, symBinAddr: 0x10000F7F0, symSize: 0x34 }
  - { offsetInCU: 0x1170D, offset: 0x1170D, size: 0x8, addend: 0x0, symName: __ZNSt3__1eqB8ue170006ERKNS_15__tree_iteratorINS_12__value_typeINS_12basic_stringIcNS_11char_traitsIcEENS_9allocatorIcEEEEN19unit_test_framework8TestCaseEEEPNS_11__tree_nodeISA_PvEElEESH_, symObjAddr: 0xF0EC, symBinAddr: 0x10000F824, symSize: 0x30 }
  - { offsetInCU: 0x1177D, offset: 0x1177D, size: 0x8, addend: 0x0, symName: __ZNSt3__112__to_addressB8ue170006INS_12basic_stringIcNS_11char_traitsIcEENS_9allocatorIcEEEEEEPT_S8_, symObjAddr: 0xF4DC, symBinAddr: 0x10000FC14, symSize: 0x14 }
  - { offsetInCU: 0x1199C, offset: 0x1199C, size: 0x8, addend: 0x0, symName: __ZNSt3__120__throw_length_errorB8ue170006EPKc, symObjAddr: 0xF998, symBinAddr: 0x1000100D0, symSize: 0x64 }
  - { offsetInCU: 0x119C6, offset: 0x119C6, size: 0x8, addend: 0x0, symName: __ZNSt3__119__allocate_at_leastB8ue170006INS_9allocatorINS_12basic_stringIcNS_11char_traitsIcEENS1_IcEEEEEEEENS_19__allocation_resultINS_16allocator_traitsIT_E7pointerEEERSA_m, symObjAddr: 0xFBF8, symBinAddr: 0x100010330, symSize: 0x40 }
  - { offsetInCU: 0x11A09, offset: 0x11A09, size: 0x8, addend: 0x0, symName: __ZNSt3__142__uninitialized_allocator_move_if_noexceptB8ue170006INS_9allocatorINS_12basic_stringIcNS_11char_traitsIcEENS1_IcEEEEEENS_16reverse_iteratorIPS6_EESA_SA_EET2_RT_T0_T1_SB_, symObjAddr: 0xFE84, symBinAddr: 0x1000105BC, symSize: 0x12C }
  - { offsetInCU: 0x11AA9, offset: 0x11AA9, size: 0x8, addend: 0x0, symName: __ZNSt3__14swapB8ue170006IPNS_12basic_stringIcNS_11char_traitsIcEENS_9allocatorIcEEEEEENS_9enable_ifIXaasr21is_move_constructibleIT_EE5valuesr18is_move_assignableIS9_EE5valueEvE4typeERS9_SC_, symObjAddr: 0xFFFC, symBinAddr: 0x100010734, symSize: 0x3C }
  - { offsetInCU: 0x11AFA, offset: 0x11AFA, size: 0x8, addend: 0x0, symName: __ZNSt3__122__make_exception_guardB8ue170006INS_29_AllocatorDestroyRangeReverseINS_9allocatorINS_12basic_stringIcNS_11char_traitsIcEENS2_IcEEEEEENS_16reverse_iteratorIPS7_EEEEEENS_28__exception_guard_exceptionsIT_EESE_, symObjAddr: 0x10148, symBinAddr: 0x100010880, symSize: 0x4C }
  - { offsetInCU: 0x11B30, offset: 0x11B30, size: 0x8, addend: 0x0, symName: __ZNSt3__1neB8ue170006IPNS_12basic_stringIcNS_11char_traitsIcEENS_9allocatorIcEEEES7_EEbRKNS_16reverse_iteratorIT_EERKNS8_IT0_EE, symObjAddr: 0x101D8, symBinAddr: 0x100010910, symSize: 0x48 }
  - { offsetInCU: 0x11B7C, offset: 0x11B7C, size: 0x8, addend: 0x0, symName: __ZNSt3__112__to_addressB8ue170006INS_16reverse_iteratorIPNS_12basic_stringIcNS_11char_traitsIcEENS_9allocatorIcEEEEEEvEEu7__decayIDTclsr19__to_address_helperIT_EE6__callclsr3stdE7declvalIRKSA_EEEEESC_, symObjAddr: 0x10220, symBinAddr: 0x100010958, symSize: 0x24 }
  - { offsetInCU: 0x11BDB, offset: 0x11BDB, size: 0x8, addend: 0x0, symName: __ZNSt3__119__allocator_destroyB8ue170006INS_9allocatorINS_12basic_stringIcNS_11char_traitsIcEENS1_IcEEEEEENS_16reverse_iteratorINS8_IPS6_EEEESB_EEvRT_T0_T1_, symObjAddr: 0x104D0, symBinAddr: 0x100010C08, symSize: 0x70 }
  - { offsetInCU: 0x11C40, offset: 0x11C40, size: 0x8, addend: 0x0, symName: __ZNSt3__1neB8ue170006INS_16reverse_iteratorIPNS_12basic_stringIcNS_11char_traitsIcEENS_9allocatorIcEEEEEES9_EEbRKNS1_IT_EERKNS1_IT0_EE, symObjAddr: 0x1057C, symBinAddr: 0x100010CB4, symSize: 0x60 }
  - { offsetInCU: 0x11C8C, offset: 0x11C8C, size: 0x8, addend: 0x0, symName: __ZNSt3__112__to_addressB8ue170006INS_16reverse_iteratorINS1_IPNS_12basic_stringIcNS_11char_traitsIcEENS_9allocatorIcEEEEEEEEvEEu7__decayIDTclsr19__to_address_helperIT_EE6__callclsr3stdE7declvalIRKSB_EEEEESD_, symObjAddr: 0x10608, symBinAddr: 0x100010D40, symSize: 0x24 }
  - { offsetInCU: 0x11DC5, offset: 0x11DC5, size: 0x8, addend: 0x0, symName: __ZNSt3__1eqB8ue170006IPNS_12basic_stringIcNS_11char_traitsIcEENS_9allocatorIcEEEEEEbRKNS_11__wrap_iterIT_EESC_, symObjAddr: 0x111F0, symBinAddr: 0x100011928, symSize: 0x48 }
  - { offsetInCU: 0x11E08, offset: 0x11E08, size: 0x8, addend: 0x0, symName: __ZNSt3__120__throw_out_of_rangeB8ue170006EPKc, symObjAddr: 0x1149C, symBinAddr: 0x100011BD4, symSize: 0x64 }
  - { offsetInCU: 0x1231B, offset: 0x1231B, size: 0x8, addend: 0x0, symName: __ZSt28__throw_bad_array_new_lengthB8ue170006v, symObjAddr: 0x20B4, symBinAddr: 0x1000027EC, symSize: 0x34 }
  - { offsetInCU: 0x1273F, offset: 0x1273F, size: 0x8, addend: 0x0, symName: __ZL9destroyer, symObjAddr: 0x9B165, symBinAddr: 0x100018001, symSize: 0x0 }
  - { offsetInCU: 0x12758, offset: 0x12758, size: 0x8, addend: 0x0, symName: __ZN19unit_test_framework9TestSuite10incompleteE, symObjAddr: 0x9B168, symBinAddr: 0x100018008, symSize: 0x0 }
  - { offsetInCU: 0x12FDF, offset: 0x12FDF, size: 0x8, addend: 0x0, symName: __ZN19unit_test_framework9TestSuite8instanceE, symObjAddr: 0x9B170, symBinAddr: 0x100018010, symSize: 0x0 }
  - { offsetInCU: 0x13BCE, offset: 0x13BCE, size: 0x8, addend: 0x0, symName: __Z3powB8ue170006IiiENSt3__19enable_ifIXaasr3std13is_arithmeticIT_EE5valuesr3std13is_arithmeticIT0_EE5valueENS0_9__promoteIS2_S3_vEEE4type4typeES2_S3_, symObjAddr: 0xB9B0, symBinAddr: 0x10000C0E8, symSize: 0x44 }
  - { offsetInCU: 0x13CA6, offset: 0x13CA6, size: 0x8, addend: 0x0, symName: __ZNSt3__16vectorINS_12basic_stringIcNS_11char_traitsIcEENS_9allocatorIcEEEENS4_IS6_EEE26__swap_out_circular_bufferERNS_14__split_bufferIS6_RS7_EE, symObjAddr: 0xF6E8, symBinAddr: 0x10000FE20, symSize: 0x110 }
  - { offsetInCU: 0x160DE, offset: 0x160DE, size: 0x8, addend: 0x0, symName: __ZNSt3__112basic_stringIcNS_11char_traitsIcEENS_9allocatorIcEEEC1B8ue170006ILi0EEEPKc, symObjAddr: 0x0, symBinAddr: 0x100000738, symSize: 0x34 }
  - { offsetInCU: 0x1611D, offset: 0x1611D, size: 0x8, addend: 0x0, symName: __ZL15bst_public_testv, symObjAddr: 0x34, symBinAddr: 0x10000076C, symSize: 0x62C }
  - { offsetInCU: 0x16164, offset: 0x16164, size: 0x8, addend: 0x0, symName: __ZN19unit_test_framework14TestRegistererC1ERKNSt3__112basic_stringIcNS1_11char_traitsIcEENS1_9allocatorIcEEEEPFvvE, symObjAddr: 0x660, symBinAddr: 0x100000D98, symSize: 0x3C }
  - { offsetInCU: 0x161AC, offset: 0x161AC, size: 0x8, addend: 0x0, symName: _main, symObjAddr: 0x69C, symBinAddr: 0x100000DD4, symSize: 0x34 }
  - { offsetInCU: 0x161E3, offset: 0x161E3, size: 0x8, addend: 0x0, symName: __ZN19unit_test_framework9TestSuite3getEv, symObjAddr: 0x6D0, symBinAddr: 0x100000E08, symSize: 0x80 }
  - { offsetInCU: 0x161F7, offset: 0x161F7, size: 0x8, addend: 0x0, symName: __ZN19unit_test_framework9TestSuite9run_testsEiPPc, symObjAddr: 0x750, symBinAddr: 0x100000E88, symSize: 0x690 }
  - { offsetInCU: 0x163BE, offset: 0x163BE, size: 0x8, addend: 0x0, symName: __ZN19unit_test_framework18TestSuiteDestroyerD1Ev, symObjAddr: 0xDE0, symBinAddr: 0x100001518, symSize: 0x2C }
  - { offsetInCU: 0x163E8, offset: 0x163E8, size: 0x8, addend: 0x0, symName: __ZN19unit_test_framework14TestRegistererC2ERKNSt3__112basic_stringIcNS1_11char_traitsIcEENS1_9allocatorIcEEEEPFvvE, symObjAddr: 0xE0C, symBinAddr: 0x100001544, symSize: 0x40 }
  - { offsetInCU: 0x16430, offset: 0x16430, size: 0x8, addend: 0x0, symName: __ZN19unit_test_framework9TestSuite8add_testERKNSt3__112basic_stringIcNS1_11char_traitsIcEENS1_9allocatorIcEEEEPFvvE, symObjAddr: 0xE4C, symBinAddr: 0x100001584, symSize: 0xD8 }
  - { offsetInCU: 0x16474, offset: 0x16474, size: 0x8, addend: 0x0, symName: __ZNSt3__13mapINS_12basic_stringIcNS_11char_traitsIcEENS_9allocatorIcEEEEN19unit_test_framework8TestCaseENS_4lessIS6_EENS4_INS_4pairIKS6_S8_EEEEE6insertB8ue170006EOSD_, symObjAddr: 0xF24, symBinAddr: 0x10000165C, symSize: 0x4C }
  - { offsetInCU: 0x164A9, offset: 0x164A9, size: 0x8, addend: 0x0, symName: __ZN19unit_test_framework8TestCaseC1ERKNSt3__112basic_stringIcNS1_11char_traitsIcEENS1_9allocatorIcEEEEPFvvE, symObjAddr: 0xF70, symBinAddr: 0x1000016A8, symSize: 0x3C }
  - { offsetInCU: 0x164F7, offset: 0x164F7, size: 0x8, addend: 0x0, symName: __ZNSt3__14pairIKNS_12basic_stringIcNS_11char_traitsIcEENS_9allocatorIcEEEEN19unit_test_framework8TestCaseEEC1B8ue170006IRS7_S9_LPv0EEEOT_OT0_, symObjAddr: 0xFAC, symBinAddr: 0x1000016E4, symSize: 0x3C }
  - { offsetInCU: 0x16555, offset: 0x16555, size: 0x8, addend: 0x0, symName: __ZNSt3__14pairIKNS_12basic_stringIcNS_11char_traitsIcEENS_9allocatorIcEEEEN19unit_test_framework8TestCaseEED1Ev, symObjAddr: 0xFE8, symBinAddr: 0x100001720, symSize: 0x2C }
  - { offsetInCU: 0x16581, offset: 0x16581, size: 0x8, addend: 0x0, symName: __ZN19unit_test_framework8TestCaseD1Ev, symObjAddr: 0x1014, symBinAddr: 0x10000174C, symSize: 0x2C }
  - { offsetInCU: 0x165AE, offset: 0x165AE, size: 0x8, addend: 0x0, symName: __ZNSt3__16__treeINS_12__value_typeINS_12basic_stringIcNS_11char_traitsIcEENS_9allocatorIcEEEEN19unit_test_framework8TestCaseEEENS_19__map_value_compareIS7_SA_NS_4lessIS7_EELb1EEENS5_ISA_EEE15__insert_uniqueB8ue170006EONS_4pairIKS7_S9_EE, symObjAddr: 0x1040, symBinAddr: 0x100001778, symSize: 0x50 }
  - { offsetInCU: 0x165E3, offset: 0x165E3, size: 0x8, addend: 0x0, symName: __ZNSt3__14pairINS_14__map_iteratorINS_15__tree_iteratorINS_12__value_typeINS_12basic_stringIcNS_11char_traitsIcEENS_9allocatorIcEEEEN19unit_test_framework8TestCaseEEEPNS_11__tree_nodeISC_PvEElEEEEbEC1B8ue170006ISH_bLSE_0EEEONS0_IT_T0_EE, symObjAddr: 0x1090, symBinAddr: 0x1000017C8, symSize: 0x34 }
  - { offsetInCU: 0x16634, offset: 0x16634, size: 0x8, addend: 0x0, symName: __ZNSt3__16__treeINS_12__value_typeINS_12basic_stringIcNS_11char_traitsIcEENS_9allocatorIcEEEEN19unit_test_framework8TestCaseEEENS_19__map_value_compareIS7_SA_NS_4lessIS7_EELb1EEENS5_ISA_EEE25__emplace_unique_key_argsIS7_JNS_4pairIKS7_S9_EEEEENSI_INS_15__tree_iteratorISA_PNS_11__tree_nodeISA_PvEElEEbEERKT_DpOT0_, symObjAddr: 0x10C4, symBinAddr: 0x1000017FC, symSize: 0xF0 }
  - { offsetInCU: 0x166E0, offset: 0x166E0, size: 0x8, addend: 0x0, symName: __ZNSt3__122__tree_key_value_typesINS_12__value_typeINS_12basic_stringIcNS_11char_traitsIcEENS_9allocatorIcEEEEN19unit_test_framework8TestCaseEEEE9__get_keyB8ue170006INS_4pairIKS7_S9_EEEENS_9enable_ifIXsr17__is_same_uncvrefIT_SF_EE5valueERSE_E4typeERSH_, symObjAddr: 0x11B4, symBinAddr: 0x1000018EC, symSize: 0x14 }
  - { offsetInCU: 0x1670D, offset: 0x1670D, size: 0x8, addend: 0x0, symName: __ZNSt3__16__treeINS_12__value_typeINS_12basic_stringIcNS_11char_traitsIcEENS_9allocatorIcEEEEN19unit_test_framework8TestCaseEEENS_19__map_value_compareIS7_SA_NS_4lessIS7_EELb1EEENS5_ISA_EEE12__find_equalIS7_EERPNS_16__tree_node_baseIPvEERPNS_15__tree_end_nodeISL_EERKT_, symObjAddr: 0x11C8, symBinAddr: 0x100001900, symSize: 0x184 }
  - { offsetInCU: 0x1677A, offset: 0x1677A, size: 0x8, addend: 0x0, symName: __ZNSt3__16__treeINS_12__value_typeINS_12basic_stringIcNS_11char_traitsIcEENS_9allocatorIcEEEEN19unit_test_framework8TestCaseEEENS_19__map_value_compareIS7_SA_NS_4lessIS7_EELb1EEENS5_ISA_EEE16__construct_nodeIJNS_4pairIKS7_S9_EEEEENS_10unique_ptrINS_11__tree_nodeISA_PvEENS_22__tree_node_destructorINS5_ISO_EEEEEEDpOT_, symObjAddr: 0x134C, symBinAddr: 0x100001A84, symSize: 0x110 }
  - { offsetInCU: 0x167DB, offset: 0x167DB, size: 0x8, addend: 0x0, symName: __ZNSt3__16__treeINS_12__value_typeINS_12basic_stringIcNS_11char_traitsIcEENS_9allocatorIcEEEEN19unit_test_framework8TestCaseEEENS_19__map_value_compareIS7_SA_NS_4lessIS7_EELb1EEENS5_ISA_EEE16__insert_node_atEPNS_15__tree_end_nodeIPNS_16__tree_node_baseIPvEEEERSL_SL_, symObjAddr: 0x145C, symBinAddr: 0x100001B94, symSize: 0xCC }
  - { offsetInCU: 0x16830, offset: 0x16830, size: 0x8, addend: 0x0, symName: __ZNKSt3__110unique_ptrINS_11__tree_nodeINS_12__value_typeINS_12basic_stringIcNS_11char_traitsIcEENS_9allocatorIcEEEEN19unit_test_framework8TestCaseEEEPvEENS_22__tree_node_destructorINS6_ISD_EEEEE3getB8ue170006Ev, symObjAddr: 0x1528, symBinAddr: 0x100001C60, symSize: 0x28 }
  - { offsetInCU: 0x16856, offset: 0x16856, size: 0x8, addend: 0x0, symName: __ZNSt3__110unique_ptrINS_11__tree_nodeINS_12__value_typeINS_12basic_stringIcNS_11char_traitsIcEENS_9allocatorIcEEEEN19unit_test_framework8TestCaseEEEPvEENS_22__tree_node_destructorINS6_ISD_EEEEE7releaseB8ue170006Ev, symObjAddr: 0x1550, symBinAddr: 0x100001C88, symSize: 0x44 }
  - { offsetInCU: 0x1688B, offset: 0x1688B, size: 0x8, addend: 0x0, symName: __ZNSt3__110unique_ptrINS_11__tree_nodeINS_12__value_typeINS_12basic_stringIcNS_11char_traitsIcEENS_9allocatorIcEEEEN19unit_test_framework8TestCaseEEEPvEENS_22__tree_node_destructorINS6_ISD_EEEEED1B8ue170006Ev, symObjAddr: 0x1594, symBinAddr: 0x100001CCC, symSize: 0x2C }
  - { offsetInCU: 0x168B5, offset: 0x168B5, size: 0x8, addend: 0x0, symName: __ZNSt3__115__tree_iteratorINS_12__value_typeINS_12basic_stringIcNS_11char_traitsIcEENS_9allocatorIcEEEEN19unit_test_framework8TestCaseEEEPNS_11__tree_nodeISA_PvEElEC1B8ue170006ESE_, symObjAddr: 0x15C0, symBinAddr: 0x100001CF8, symSize: 0x34 }
  - { offsetInCU: 0x168F9, offset: 0x168F9, size: 0x8, addend: 0x0, symName: __ZNSt3__14pairINS_15__tree_iteratorINS_12__value_typeINS_12basic_stringIcNS_11char_traitsIcEENS_9allocatorIcEEEEN19unit_test_framework8TestCaseEEEPNS_11__tree_nodeISB_PvEElEEbEC1B8ue170006ISG_RbLSD_0EEEOT_OT0_, symObjAddr: 0x15F4, symBinAddr: 0x100001D2C, symSize: 0x3C }
  - { offsetInCU: 0x16957, offset: 0x16957, size: 0x8, addend: 0x0, symName: __ZNKSt3__16__treeINS_12__value_typeINS_12basic_stringIcNS_11char_traitsIcEENS_9allocatorIcEEEEN19unit_test_framework8TestCaseEEENS_19__map_value_compareIS7_SA_NS_4lessIS7_EELb1EEENS5_ISA_EEE6__rootB8ue170006Ev, symObjAddr: 0x1630, symBinAddr: 0x100001D68, symSize: 0x28 }
  - { offsetInCU: 0x1697D, offset: 0x1697D, size: 0x8, addend: 0x0, symName: __ZNKSt3__16__treeINS_12__value_typeINS_12basic_stringIcNS_11char_traitsIcEENS_9allocatorIcEEEEN19unit_test_framework8TestCaseEEENS_19__map_value_compareIS7_SA_NS_4lessIS7_EELb1EEENS5_ISA_EEE10__root_ptrB8ue170006Ev, symObjAddr: 0x1658, symBinAddr: 0x100001D90, symSize: 0x24 }
  - { offsetInCU: 0x169A3, offset: 0x169A3, size: 0x8, addend: 0x0, symName: __ZNSt3__16__treeINS_12__value_typeINS_12basic_stringIcNS_11char_traitsIcEENS_9allocatorIcEEEEN19unit_test_framework8TestCaseEEENS_19__map_value_compareIS7_SA_NS_4lessIS7_EELb1EEENS5_ISA_EEE10value_compB8ue170006Ev, symObjAddr: 0x167C, symBinAddr: 0x100001DB4, symSize: 0x28 }
  - { offsetInCU: 0x169C9, offset: 0x169C9, size: 0x8, addend: 0x0, symName: __ZNKSt3__119__map_value_compareINS_12basic_stringIcNS_11char_traitsIcEENS_9allocatorIcEEEENS_12__value_typeIS6_N19unit_test_framework8TestCaseEEENS_4lessIS6_EELb1EEclB8ue170006ERKS6_RKSA_, symObjAddr: 0x16A4, symBinAddr: 0x100001DDC, symSize: 0x50 }
  - { offsetInCU: 0x16A0D, offset: 0x16A0D, size: 0x8, addend: 0x0, symName: __ZNKSt3__119__map_value_compareINS_12basic_stringIcNS_11char_traitsIcEENS_9allocatorIcEEEENS_12__value_typeIS6_N19unit_test_framework8TestCaseEEENS_4lessIS6_EELb1EEclB8ue170006ERKSA_RKS6_, symObjAddr: 0x16F4, symBinAddr: 0x100001E2C, symSize: 0x48 }
  - { offsetInCU: 0x16A51, offset: 0x16A51, size: 0x8, addend: 0x0, symName: __ZNSt3__16__treeINS_12__value_typeINS_12basic_stringIcNS_11char_traitsIcEENS_9allocatorIcEEEEN19unit_test_framework8TestCaseEEENS_19__map_value_compareIS7_SA_NS_4lessIS7_EELb1EEENS5_ISA_EEE10__end_nodeB8ue170006Ev, symObjAddr: 0x173C, symBinAddr: 0x100001E74, symSize: 0x2C }
  - { offsetInCU: 0x16A77, offset: 0x16A77, size: 0x8, addend: 0x0, symName: __ZNKSt3__16__treeINS_12__value_typeINS_12basic_stringIcNS_11char_traitsIcEENS_9allocatorIcEEEEN19unit_test_framework8TestCaseEEENS_19__map_value_compareIS7_SA_NS_4lessIS7_EELb1EEENS5_ISA_EEE10__end_nodeB8ue170006Ev, symObjAddr: 0x1768, symBinAddr: 0x100001EA0, symSize: 0x2C }
  - { offsetInCU: 0x16A9D, offset: 0x16A9D, size: 0x8, addend: 0x0, symName: __ZNSt3__114pointer_traitsIPNS_15__tree_end_nodeIPNS_16__tree_node_baseIPvEEEEE10pointer_toB8ue170006ERS6_, symObjAddr: 0x1794, symBinAddr: 0x100001ECC, symSize: 0x14 }
  - { offsetInCU: 0x16AC0, offset: 0x16AC0, size: 0x8, addend: 0x0, symName: __ZNKSt3__117__compressed_pairINS_15__tree_end_nodeIPNS_16__tree_node_baseIPvEEEENS_9allocatorINS_11__tree_nodeINS_12__value_typeINS_12basic_stringIcNS_11char_traitsIcEENS7_IcEEEEN19unit_test_framework8TestCaseEEES3_EEEEE5firstB8ue170006Ev, symObjAddr: 0x17A8, symBinAddr: 0x100001EE0, symSize: 0x24 }
  - { offsetInCU: 0x16AE6, offset: 0x16AE6, size: 0x8, addend: 0x0, symName: __ZNKSt3__122__compressed_pair_elemINS_15__tree_end_nodeIPNS_16__tree_node_baseIPvEEEELi0ELb0EE5__getB8ue170006Ev, symObjAddr: 0x17CC, symBinAddr: 0x100001F04, symSize: 0x14 }
  - { offsetInCU: 0x16B0C, offset: 0x16B0C, size: 0x8, addend: 0x0, symName: __ZNSt3__117__compressed_pairImNS_19__map_value_compareINS_12basic_stringIcNS_11char_traitsIcEENS_9allocatorIcEEEENS_12__value_typeIS7_N19unit_test_framework8TestCaseEEENS_4lessIS7_EELb1EEEE6secondB8ue170006Ev, symObjAddr: 0x17E0, symBinAddr: 0x100001F18, symSize: 0x24 }
  - { offsetInCU: 0x16B32, offset: 0x16B32, size: 0x8, addend: 0x0, symName: __ZNSt3__122__compressed_pair_elemINS_19__map_value_compareINS_12basic_stringIcNS_11char_traitsIcEENS_9allocatorIcEEEENS_12__value_typeIS7_N19unit_test_framework8TestCaseEEENS_4lessIS7_EELb1EEELi1ELb1EE5__getB8ue170006Ev, symObjAddr: 0x1804, symBinAddr: 0x100001F3C, symSize: 0x14 }
  - { offsetInCU: 0x16B58, offset: 0x16B58, size: 0x8, addend: 0x0, symName: __ZNKSt3__14lessINS_12basic_stringIcNS_11char_traitsIcEENS_9allocatorIcEEEEEclB8ue170006ERKS6_S9_, symObjAddr: 0x1818, symBinAddr: 0x100001F50, symSize: 0x34 }
  - { offsetInCU: 0x16B9C, offset: 0x16B9C, size: 0x8, addend: 0x0, symName: __ZNKSt3__112__value_typeINS_12basic_stringIcNS_11char_traitsIcEENS_9allocatorIcEEEEN19unit_test_framework8TestCaseEE11__get_valueB8ue170006Ev, symObjAddr: 0x184C, symBinAddr: 0x100001F84, symSize: 0x24 }
  - { offsetInCU: 0x16BC2, offset: 0x16BC2, size: 0x8, addend: 0x0, symName: __ZNKSt3__112basic_stringIcNS_11char_traitsIcEENS_9allocatorIcEEE7compareB8ue170006ERKS5_, symObjAddr: 0x18A8, symBinAddr: 0x100001FE0, symSize: 0x4C }
  - { offsetInCU: 0x16BF9, offset: 0x16BF9, size: 0x8, addend: 0x0, symName: __ZNKSt3__112basic_stringIcNS_11char_traitsIcEENS_9allocatorIcEEE7compareINS_17basic_string_viewIcS2_EELi0EEEiRKT_, symObjAddr: 0x18F4, symBinAddr: 0x10000202C, symSize: 0x12C }
  - { offsetInCU: 0x16C7C, offset: 0x16C7C, size: 0x8, addend: 0x0, symName: __ZNKSt3__112basic_stringIcNS_11char_traitsIcEENS_9allocatorIcEEEcvNS_17basic_string_viewIcS2_EEB8ue170006Ev, symObjAddr: 0x1A20, symBinAddr: 0x100002158, symSize: 0x50 }
  - { offsetInCU: 0x16CA2, offset: 0x16CA2, size: 0x8, addend: 0x0, symName: __ZNKSt3__112basic_stringIcNS_11char_traitsIcEENS_9allocatorIcEEE4sizeB8ue170006Ev, symObjAddr: 0x1A70, symBinAddr: 0x1000021A8, symSize: 0x54 }
  - { offsetInCU: 0x16CC8, offset: 0x16CC8, size: 0x8, addend: 0x0, symName: __ZNKSt3__117basic_string_viewIcNS_11char_traitsIcEEE4sizeB8ue170006Ev, symObjAddr: 0x1AC4, symBinAddr: 0x1000021FC, symSize: 0x18 }
  - { offsetInCU: 0x16CEE, offset: 0x16CEE, size: 0x8, addend: 0x0, symName: __ZNSt3__111char_traitsIcE7compareB8ue170006EPKcS3_m, symObjAddr: 0x1ADC, symBinAddr: 0x100002214, symSize: 0x34 }
  - { offsetInCU: 0x16D2D, offset: 0x16D2D, size: 0x8, addend: 0x0, symName: __ZNKSt3__112basic_stringIcNS_11char_traitsIcEENS_9allocatorIcEEE4dataB8ue170006Ev, symObjAddr: 0x1B10, symBinAddr: 0x100002248, symSize: 0x28 }
  - { offsetInCU: 0x16D53, offset: 0x16D53, size: 0x8, addend: 0x0, symName: __ZNKSt3__117basic_string_viewIcNS_11char_traitsIcEEE4dataB8ue170006Ev, symObjAddr: 0x1B38, symBinAddr: 0x100002270, symSize: 0x18 }
  - { offsetInCU: 0x16D79, offset: 0x16D79, size: 0x8, addend: 0x0, symName: __ZNKSt3__112basic_stringIcNS_11char_traitsIcEENS_9allocatorIcEEE9__is_longB8ue170006Ev, symObjAddr: 0x1B88, symBinAddr: 0x1000022C0, symSize: 0x38 }
  - { offsetInCU: 0x16D9F, offset: 0x16D9F, size: 0x8, addend: 0x0, symName: __ZNKSt3__112basic_stringIcNS_11char_traitsIcEENS_9allocatorIcEEE15__get_long_sizeB8ue170006Ev, symObjAddr: 0x1BC0, symBinAddr: 0x1000022F8, symSize: 0x28 }
  - { offsetInCU: 0x16DC5, offset: 0x16DC5, size: 0x8, addend: 0x0, symName: __ZNKSt3__112basic_stringIcNS_11char_traitsIcEENS_9allocatorIcEEE16__get_short_sizeB8ue170006Ev, symObjAddr: 0x1BE8, symBinAddr: 0x100002320, symSize: 0x34 }
  - { offsetInCU: 0x16DEB, offset: 0x16DEB, size: 0x8, addend: 0x0, symName: __ZNKSt3__117__compressed_pairINS_12basic_stringIcNS_11char_traitsIcEENS_9allocatorIcEEE5__repES5_E5firstB8ue170006Ev, symObjAddr: 0x1C1C, symBinAddr: 0x100002354, symSize: 0x24 }
  - { offsetInCU: 0x16E11, offset: 0x16E11, size: 0x8, addend: 0x0, symName: __ZNKSt3__122__compressed_pair_elemINS_12basic_stringIcNS_11char_traitsIcEENS_9allocatorIcEEE5__repELi0ELb0EE5__getB8ue170006Ev, symObjAddr: 0x1C40, symBinAddr: 0x100002378, symSize: 0x14 }
  - { offsetInCU: 0x16E37, offset: 0x16E37, size: 0x8, addend: 0x0, symName: __ZNKSt3__112basic_stringIcNS_11char_traitsIcEENS_9allocatorIcEEE13__get_pointerB8ue170006Ev, symObjAddr: 0x1C68, symBinAddr: 0x1000023A0, symSize: 0x54 }
  - { offsetInCU: 0x16E5D, offset: 0x16E5D, size: 0x8, addend: 0x0, symName: __ZNKSt3__112basic_stringIcNS_11char_traitsIcEENS_9allocatorIcEEE18__get_long_pointerB8ue170006Ev, symObjAddr: 0x1CBC, symBinAddr: 0x1000023F4, symSize: 0x28 }
  - { offsetInCU: 0x16E83, offset: 0x16E83, size: 0x8, addend: 0x0, symName: __ZNKSt3__112basic_stringIcNS_11char_traitsIcEENS_9allocatorIcEEE19__get_short_pointerB8ue170006Ev, symObjAddr: 0x1CE4, symBinAddr: 0x10000241C, symSize: 0x28 }
  - { offsetInCU: 0x16EA9, offset: 0x16EA9, size: 0x8, addend: 0x0, symName: __ZNSt3__114pointer_traitsIPKcE10pointer_toB8ue170006ERS1_, symObjAddr: 0x1D0C, symBinAddr: 0x100002444, symSize: 0x14 }
  - { offsetInCU: 0x16ED6, offset: 0x16ED6, size: 0x8, addend: 0x0, symName: __ZNKSt3__16__lessIvvEclB8ue170006ImmEEbRKT_RKT0_, symObjAddr: 0x1D74, symBinAddr: 0x1000024AC, symSize: 0x34 }
  - { offsetInCU: 0x16F2A, offset: 0x16F2A, size: 0x8, addend: 0x0, symName: __ZNSt3__117basic_string_viewIcNS_11char_traitsIcEEEC1B8ue170006EPKcm, symObjAddr: 0x1DA8, symBinAddr: 0x1000024E0, symSize: 0x3C }
  - { offsetInCU: 0x16F72, offset: 0x16F72, size: 0x8, addend: 0x0, symName: __ZNSt3__117basic_string_viewIcNS_11char_traitsIcEEEC2B8ue170006EPKcm, symObjAddr: 0x1DE4, symBinAddr: 0x10000251C, symSize: 0x2C }
  - { offsetInCU: 0x16FBA, offset: 0x16FBA, size: 0x8, addend: 0x0, symName: __ZNSt3__117__compressed_pairINS_15__tree_end_nodeIPNS_16__tree_node_baseIPvEEEENS_9allocatorINS_11__tree_nodeINS_12__value_typeINS_12basic_stringIcNS_11char_traitsIcEENS7_IcEEEEN19unit_test_framework8TestCaseEEES3_EEEEE5firstB8ue170006Ev, symObjAddr: 0x1E48, symBinAddr: 0x100002580, symSize: 0x24 }
  - { offsetInCU: 0x16FE0, offset: 0x16FE0, size: 0x8, addend: 0x0, symName: __ZNSt3__122__compressed_pair_elemINS_15__tree_end_nodeIPNS_16__tree_node_baseIPvEEEELi0ELb0EE5__getB8ue170006Ev, symObjAddr: 0x1E6C, symBinAddr: 0x1000025A4, symSize: 0x14 }
  - { offsetInCU: 0x17006, offset: 0x17006, size: 0x8, addend: 0x0, symName: __ZNSt3__16__treeINS_12__value_typeINS_12basic_stringIcNS_11char_traitsIcEENS_9allocatorIcEEEEN19unit_test_framework8TestCaseEEENS_19__map_value_compareIS7_SA_NS_4lessIS7_EELb1EEENS5_ISA_EEE12__node_allocB8ue170006Ev, symObjAddr: 0x1E80, symBinAddr: 0x1000025B8, symSize: 0x28 }
  - { offsetInCU: 0x1702C, offset: 0x1702C, size: 0x8, addend: 0x0, symName: __ZNSt3__116allocator_traitsINS_9allocatorINS_11__tree_nodeINS_12__value_typeINS_12basic_stringIcNS_11char_traitsIcEENS1_IcEEEEN19unit_test_framework8TestCaseEEEPvEEEEE8allocateB8ue170006ERSE_m, symObjAddr: 0x1EA8, symBinAddr: 0x1000025E0, symSize: 0x2C }
  - { offsetInCU: 0x1705F, offset: 0x1705F, size: 0x8, addend: 0x0, symName: __ZNSt3__122__tree_node_destructorINS_9allocatorINS_11__tree_nodeINS_12__value_typeINS_12basic_stringIcNS_11char_traitsIcEENS1_IcEEEEN19unit_test_framework8TestCaseEEEPvEEEEEC1B8ue170006ERSE_b, symObjAddr: 0x1ED4, symBinAddr: 0x10000260C, symSize: 0x48 }
  - { offsetInCU: 0x170AD, offset: 0x170AD, size: 0x8, addend: 0x0, symName: __ZNSt3__110unique_ptrINS_11__tree_nodeINS_12__value_typeINS_12basic_stringIcNS_11char_traitsIcEENS_9allocatorIcEEEEN19unit_test_framework8TestCaseEEEPvEENS_22__tree_node_destructorINS6_ISD_EEEEEC1B8ue170006ILb1EvEEPSD_NS_16__dependent_typeINS_27__unique_ptr_deleter_sfinaeISG_EEXT_EE20__good_rval_ref_typeE, symObjAddr: 0x1F1C, symBinAddr: 0x100002654, symSize: 0x3C }
  - { offsetInCU: 0x170FE, offset: 0x170FE, size: 0x8, addend: 0x0, symName: __ZNSt3__116allocator_traitsINS_9allocatorINS_11__tree_nodeINS_12__value_typeINS_12basic_stringIcNS_11char_traitsIcEENS1_IcEEEEN19unit_test_framework8TestCaseEEEPvEEEEE9constructB8ue170006INS_4pairIKS8_SA_EEJSJ_EvEEvRSE_PT_DpOT0_, symObjAddr: 0x1F58, symBinAddr: 0x100002690, symSize: 0x34 }
  - { offsetInCU: 0x17155, offset: 0x17155, size: 0x8, addend: 0x0, symName: __ZNSt3__122__tree_key_value_typesINS_12__value_typeINS_12basic_stringIcNS_11char_traitsIcEENS_9allocatorIcEEEEN19unit_test_framework8TestCaseEEEE9__get_ptrB8ue170006ERSA_, symObjAddr: 0x1F8C, symBinAddr: 0x1000026C4, symSize: 0x24 }
  - { offsetInCU: 0x17179, offset: 0x17179, size: 0x8, addend: 0x0, symName: __ZNKSt3__110unique_ptrINS_11__tree_nodeINS_12__value_typeINS_12basic_stringIcNS_11char_traitsIcEENS_9allocatorIcEEEEN19unit_test_framework8TestCaseEEEPvEENS_22__tree_node_destructorINS6_ISD_EEEEEptB8ue170006Ev, symObjAddr: 0x1FB0, symBinAddr: 0x1000026E8, symSize: 0x28 }
  - { offsetInCU: 0x1719F, offset: 0x1719F, size: 0x8, addend: 0x0, symName: __ZNSt3__110unique_ptrINS_11__tree_nodeINS_12__value_typeINS_12basic_stringIcNS_11char_traitsIcEENS_9allocatorIcEEEEN19unit_test_framework8TestCaseEEEPvEENS_22__tree_node_destructorINS6_ISD_EEEEE11get_deleterB8ue170006Ev, symObjAddr: 0x1FD8, symBinAddr: 0x100002710, symSize: 0x24 }
  - { offsetInCU: 0x171C5, offset: 0x171C5, size: 0x8, addend: 0x0, symName: __ZNSt3__117__compressed_pairINS_15__tree_end_nodeIPNS_16__tree_node_baseIPvEEEENS_9allocatorINS_11__tree_nodeINS_12__value_typeINS_12basic_stringIcNS_11char_traitsIcEENS7_IcEEEEN19unit_test_framework8TestCaseEEES3_EEEEE6secondB8ue170006Ev, symObjAddr: 0x1FFC, symBinAddr: 0x100002734, symSize: 0x24 }
  - { offsetInCU: 0x171EB, offset: 0x171EB, size: 0x8, addend: 0x0, symName: __ZNSt3__122__compressed_pair_elemINS_9allocatorINS_11__tree_nodeINS_12__value_typeINS_12basic_stringIcNS_11char_traitsIcEENS1_IcEEEEN19unit_test_framework8TestCaseEEEPvEEEELi1ELb1EE5__getB8ue170006Ev, symObjAddr: 0x2020, symBinAddr: 0x100002758, symSize: 0x14 }
  - { offsetInCU: 0x17211, offset: 0x17211, size: 0x8, addend: 0x0, symName: __ZNSt3__19allocatorINS_11__tree_nodeINS_12__value_typeINS_12basic_stringIcNS_11char_traitsIcEENS0_IcEEEEN19unit_test_framework8TestCaseEEEPvEEE8allocateB8ue170006Em, symObjAddr: 0x2034, symBinAddr: 0x10000276C, symSize: 0x5C }
  - { offsetInCU: 0x1724F, offset: 0x1724F, size: 0x8, addend: 0x0, symName: __ZNSt3__116allocator_traitsINS_9allocatorINS_11__tree_nodeINS_12__value_typeINS_12basic_stringIcNS_11char_traitsIcEENS1_IcEEEEN19unit_test_framework8TestCaseEEEPvEEEEE8max_sizeB8ue170006ISE_vEEmRKSE_, symObjAddr: 0x2090, symBinAddr: 0x1000027C8, symSize: 0x24 }
  - { offsetInCU: 0x1727D, offset: 0x1727D, size: 0x8, addend: 0x0, symName: __ZNKSt3__19allocatorINS_11__tree_nodeINS_12__value_typeINS_12basic_stringIcNS_11char_traitsIcEENS0_IcEEEEN19unit_test_framework8TestCaseEEEPvEEE8max_sizeB8ue170006Ev, symObjAddr: 0x2148, symBinAddr: 0x100002880, symSize: 0x18 }
  - { offsetInCU: 0x172A3, offset: 0x172A3, size: 0x8, addend: 0x0, symName: __ZNSt3__122__tree_node_destructorINS_9allocatorINS_11__tree_nodeINS_12__value_typeINS_12basic_stringIcNS_11char_traitsIcEENS1_IcEEEEN19unit_test_framework8TestCaseEEEPvEEEEEC2B8ue170006ERSE_b, symObjAddr: 0x21D0, symBinAddr: 0x100002908, symSize: 0x38 }
  - { offsetInCU: 0x172EB, offset: 0x172EB, size: 0x8, addend: 0x0, symName: __ZNSt3__110unique_ptrINS_11__tree_nodeINS_12__value_typeINS_12basic_stringIcNS_11char_traitsIcEENS_9allocatorIcEEEEN19unit_test_framework8TestCaseEEEPvEENS_22__tree_node_destructorINS6_ISD_EEEEEC2B8ue170006ILb1EvEEPSD_NS_16__dependent_typeINS_27__unique_ptr_deleter_sfinaeISG_EEXT_EE20__good_rval_ref_typeE, symObjAddr: 0x2208, symBinAddr: 0x100002940, symSize: 0x48 }
  - { offsetInCU: 0x1733C, offset: 0x1733C, size: 0x8, addend: 0x0, symName: __ZNSt3__117__compressed_pairIPNS_11__tree_nodeINS_12__value_typeINS_12basic_stringIcNS_11char_traitsIcEENS_9allocatorIcEEEEN19unit_test_framework8TestCaseEEEPvEENS_22__tree_node_destructorINS6_ISD_EEEEEC1B8ue170006IRSE_SH_EEOT_OT0_, symObjAddr: 0x2250, symBinAddr: 0x100002988, symSize: 0x3C }
  - { offsetInCU: 0x17394, offset: 0x17394, size: 0x8, addend: 0x0, symName: __ZNSt3__117__compressed_pairIPNS_11__tree_nodeINS_12__value_typeINS_12basic_stringIcNS_11char_traitsIcEENS_9allocatorIcEEEEN19unit_test_framework8TestCaseEEEPvEENS_22__tree_node_destructorINS6_ISD_EEEEEC2B8ue170006IRSE_SH_EEOT_OT0_, symObjAddr: 0x228C, symBinAddr: 0x1000029C4, symSize: 0x48 }
  - { offsetInCU: 0x173EC, offset: 0x173EC, size: 0x8, addend: 0x0, symName: __ZNSt3__122__compressed_pair_elemIPNS_11__tree_nodeINS_12__value_typeINS_12basic_stringIcNS_11char_traitsIcEENS_9allocatorIcEEEEN19unit_test_framework8TestCaseEEEPvEELi0ELb0EEC2B8ue170006IRSE_vEEOT_, symObjAddr: 0x22D4, symBinAddr: 0x100002A0C, symSize: 0x24 }
  - { offsetInCU: 0x1742E, offset: 0x1742E, size: 0x8, addend: 0x0, symName: __ZNSt3__122__compressed_pair_elemINS_22__tree_node_destructorINS_9allocatorINS_11__tree_nodeINS_12__value_typeINS_12basic_stringIcNS_11char_traitsIcEENS2_IcEEEEN19unit_test_framework8TestCaseEEEPvEEEEEELi1ELb0EEC2B8ue170006ISG_vEEOT_, symObjAddr: 0x22F8, symBinAddr: 0x100002A30, symSize: 0x24 }
  - { offsetInCU: 0x17470, offset: 0x17470, size: 0x8, addend: 0x0, symName: __ZNSt3__19allocatorINS_11__tree_nodeINS_12__value_typeINS_12basic_stringIcNS_11char_traitsIcEENS0_IcEEEEN19unit_test_framework8TestCaseEEEPvEEE9constructB8ue170006INS_4pairIKS7_S9_EEJSH_EEEvPT_DpOT0_, symObjAddr: 0x231C, symBinAddr: 0x100002A54, symSize: 0x30 }
  - { offsetInCU: 0x174C6, offset: 0x174C6, size: 0x8, addend: 0x0, symName: __ZNSt3__14pairIKNS_12basic_stringIcNS_11char_traitsIcEENS_9allocatorIcEEEEN19unit_test_framework8TestCaseEEC1B8ue170006EOSA_, symObjAddr: 0x234C, symBinAddr: 0x100002A84, symSize: 0x34 }
  - { offsetInCU: 0x174FA, offset: 0x174FA, size: 0x8, addend: 0x0, symName: __ZNSt3__14pairIKNS_12basic_stringIcNS_11char_traitsIcEENS_9allocatorIcEEEEN19unit_test_framework8TestCaseEEC2B8ue170006EOSA_, symObjAddr: 0x2380, symBinAddr: 0x100002AB8, symSize: 0x48 }
  - { offsetInCU: 0x1752E, offset: 0x1752E, size: 0x8, addend: 0x0, symName: __ZN19unit_test_framework8TestCaseC1EOS0_, symObjAddr: 0x23C8, symBinAddr: 0x100002B00, symSize: 0x34 }
  - { offsetInCU: 0x17564, offset: 0x17564, size: 0x8, addend: 0x0, symName: __ZN19unit_test_framework8TestCaseC2EOS0_, symObjAddr: 0x23FC, symBinAddr: 0x100002B34, symSize: 0x68 }
  - { offsetInCU: 0x1759A, offset: 0x1759A, size: 0x8, addend: 0x0, symName: __ZNSt3__112basic_stringIcNS_11char_traitsIcEENS_9allocatorIcEEEC1B8ue170006EOS5_, symObjAddr: 0x2464, symBinAddr: 0x100002B9C, symSize: 0x34 }
  - { offsetInCU: 0x175D3, offset: 0x175D3, size: 0x8, addend: 0x0, symName: __ZNSt3__112basic_stringIcNS_11char_traitsIcEENS_9allocatorIcEEEC2B8ue170006EOS5_, symObjAddr: 0x2498, symBinAddr: 0x100002BD0, symSize: 0x50 }
  - { offsetInCU: 0x1760C, offset: 0x1760C, size: 0x8, addend: 0x0, symName: __ZNSt3__112basic_stringIcNS_11char_traitsIcEENS_9allocatorIcEEE14__default_initB8ue170006Ev, symObjAddr: 0x24E8, symBinAddr: 0x100002C20, symSize: 0x40 }
  - { offsetInCU: 0x17632, offset: 0x17632, size: 0x8, addend: 0x0, symName: __ZNSt3__117__compressed_pairINS_12basic_stringIcNS_11char_traitsIcEENS_9allocatorIcEEE5__repES5_E5firstB8ue170006Ev, symObjAddr: 0x2528, symBinAddr: 0x100002C60, symSize: 0x24 }
  - { offsetInCU: 0x17658, offset: 0x17658, size: 0x8, addend: 0x0, symName: __ZNSt3__122__compressed_pair_elemINS_12basic_stringIcNS_11char_traitsIcEENS_9allocatorIcEEE5__repELi0ELb0EE5__getB8ue170006Ev, symObjAddr: 0x254C, symBinAddr: 0x100002C84, symSize: 0x14 }
  - { offsetInCU: 0x1767E, offset: 0x1767E, size: 0x8, addend: 0x0, symName: __ZNSt3__112__value_typeINS_12basic_stringIcNS_11char_traitsIcEENS_9allocatorIcEEEEN19unit_test_framework8TestCaseEE11__get_valueB8ue170006Ev, symObjAddr: 0x2560, symBinAddr: 0x100002C98, symSize: 0x24 }
  - { offsetInCU: 0x176A4, offset: 0x176A4, size: 0x8, addend: 0x0, symName: __ZNKSt3__117__compressed_pairIPNS_11__tree_nodeINS_12__value_typeINS_12basic_stringIcNS_11char_traitsIcEENS_9allocatorIcEEEEN19unit_test_framework8TestCaseEEEPvEENS_22__tree_node_destructorINS6_ISD_EEEEE5firstB8ue170006Ev, symObjAddr: 0x25BC, symBinAddr: 0x100002CF4, symSize: 0x24 }
  - { offsetInCU: 0x176CA, offset: 0x176CA, size: 0x8, addend: 0x0, symName: __ZNKSt3__122__compressed_pair_elemIPNS_11__tree_nodeINS_12__value_typeINS_12basic_stringIcNS_11char_traitsIcEENS_9allocatorIcEEEEN19unit_test_framework8TestCaseEEEPvEELi0ELb0EE5__getB8ue170006Ev, symObjAddr: 0x25E0, symBinAddr: 0x100002D18, symSize: 0x14 }
  - { offsetInCU: 0x176F0, offset: 0x176F0, size: 0x8, addend: 0x0, symName: __ZNSt3__117__compressed_pairIPNS_11__tree_nodeINS_12__value_typeINS_12basic_stringIcNS_11char_traitsIcEENS_9allocatorIcEEEEN19unit_test_framework8TestCaseEEEPvEENS_22__tree_node_destructorINS6_ISD_EEEEE6secondB8ue170006Ev, symObjAddr: 0x25F4, symBinAddr: 0x100002D2C, symSize: 0x28 }
  - { offsetInCU: 0x17716, offset: 0x17716, size: 0x8, addend: 0x0, symName: __ZNSt3__122__compressed_pair_elemINS_22__tree_node_destructorINS_9allocatorINS_11__tree_nodeINS_12__value_typeINS_12basic_stringIcNS_11char_traitsIcEENS2_IcEEEEN19unit_test_framework8TestCaseEEEPvEEEEEELi1ELb0EE5__getB8ue170006Ev, symObjAddr: 0x261C, symBinAddr: 0x100002D54, symSize: 0x14 }
  - { offsetInCU: 0x1773C, offset: 0x1773C, size: 0x8, addend: 0x0, symName: __ZNSt3__16__treeINS_12__value_typeINS_12basic_stringIcNS_11char_traitsIcEENS_9allocatorIcEEEEN19unit_test_framework8TestCaseEEENS_19__map_value_compareIS7_SA_NS_4lessIS7_EELb1EEENS5_ISA_EEE12__begin_nodeB8ue170006Ev, symObjAddr: 0x2630, symBinAddr: 0x100002D68, symSize: 0x14 }
  - { offsetInCU: 0x17762, offset: 0x17762, size: 0x8, addend: 0x0, symName: __ZNSt3__16__treeINS_12__value_typeINS_12basic_stringIcNS_11char_traitsIcEENS_9allocatorIcEEEEN19unit_test_framework8TestCaseEEENS_19__map_value_compareIS7_SA_NS_4lessIS7_EELb1EEENS5_ISA_EEE4sizeB8ue170006Ev, symObjAddr: 0x2970, symBinAddr: 0x1000030A8, symSize: 0x28 }
  - { offsetInCU: 0x17788, offset: 0x17788, size: 0x8, addend: 0x0, symName: __ZNKSt3__116__tree_node_baseIPvE15__parent_unsafeB8ue170006Ev, symObjAddr: 0x2998, symBinAddr: 0x1000030D0, symSize: 0x18 }
  - { offsetInCU: 0x177AE, offset: 0x177AE, size: 0x8, addend: 0x0, symName: __ZNSt3__116__tree_node_baseIPvE12__set_parentB8ue170006EPS2_, symObjAddr: 0x2B80, symBinAddr: 0x1000032B8, symSize: 0x20 }
  - { offsetInCU: 0x177E3, offset: 0x177E3, size: 0x8, addend: 0x0, symName: __ZNSt3__117__compressed_pairImNS_19__map_value_compareINS_12basic_stringIcNS_11char_traitsIcEENS_9allocatorIcEEEENS_12__value_typeIS7_N19unit_test_framework8TestCaseEEENS_4lessIS7_EELb1EEEE5firstB8ue170006Ev, symObjAddr: 0x2BA0, symBinAddr: 0x1000032D8, symSize: 0x24 }
  - { offsetInCU: 0x17809, offset: 0x17809, size: 0x8, addend: 0x0, symName: __ZNSt3__122__compressed_pair_elemImLi0ELb0EE5__getB8ue170006Ev, symObjAddr: 0x2BC4, symBinAddr: 0x1000032FC, symSize: 0x14 }
  - { offsetInCU: 0x1782F, offset: 0x1782F, size: 0x8, addend: 0x0, symName: __ZNSt3__117__compressed_pairIPNS_11__tree_nodeINS_12__value_typeINS_12basic_stringIcNS_11char_traitsIcEENS_9allocatorIcEEEEN19unit_test_framework8TestCaseEEEPvEENS_22__tree_node_destructorINS6_ISD_EEEEE5firstB8ue170006Ev, symObjAddr: 0x2BD8, symBinAddr: 0x100003310, symSize: 0x24 }
  - { offsetInCU: 0x17855, offset: 0x17855, size: 0x8, addend: 0x0, symName: __ZNSt3__122__compressed_pair_elemIPNS_11__tree_nodeINS_12__value_typeINS_12basic_stringIcNS_11char_traitsIcEENS_9allocatorIcEEEEN19unit_test_framework8TestCaseEEEPvEELi0ELb0EE5__getB8ue170006Ev, symObjAddr: 0x2BFC, symBinAddr: 0x100003334, symSize: 0x14 }
  - { offsetInCU: 0x1787B, offset: 0x1787B, size: 0x8, addend: 0x0, symName: __ZNSt3__110unique_ptrINS_11__tree_nodeINS_12__value_typeINS_12basic_stringIcNS_11char_traitsIcEENS_9allocatorIcEEEEN19unit_test_framework8TestCaseEEEPvEENS_22__tree_node_destructorINS6_ISD_EEEEED2B8ue170006Ev, symObjAddr: 0x2C10, symBinAddr: 0x100003348, symSize: 0x30 }
  - { offsetInCU: 0x178A5, offset: 0x178A5, size: 0x8, addend: 0x0, symName: __ZNSt3__110unique_ptrINS_11__tree_nodeINS_12__value_typeINS_12basic_stringIcNS_11char_traitsIcEENS_9allocatorIcEEEEN19unit_test_framework8TestCaseEEEPvEENS_22__tree_node_destructorINS6_ISD_EEEEE5resetB8ue170006EPSD_, symObjAddr: 0x2C40, symBinAddr: 0x100003378, symSize: 0x78 }
  - { offsetInCU: 0x178E9, offset: 0x178E9, size: 0x8, addend: 0x0, symName: __ZNSt3__122__tree_node_destructorINS_9allocatorINS_11__tree_nodeINS_12__value_typeINS_12basic_stringIcNS_11char_traitsIcEENS1_IcEEEEN19unit_test_framework8TestCaseEEEPvEEEEEclB8ue170006EPSD_, symObjAddr: 0x2CB8, symBinAddr: 0x1000033F0, symSize: 0x98 }
  - { offsetInCU: 0x1791E, offset: 0x1791E, size: 0x8, addend: 0x0, symName: __ZNSt3__116allocator_traitsINS_9allocatorINS_11__tree_nodeINS_12__value_typeINS_12basic_stringIcNS_11char_traitsIcEENS1_IcEEEEN19unit_test_framework8TestCaseEEEPvEEEEE7destroyB8ue170006INS_4pairIKS8_SA_EEvvEEvRSE_PT_, symObjAddr: 0x2D50, symBinAddr: 0x100003488, symSize: 0x28 }
  - { offsetInCU: 0x17959, offset: 0x17959, size: 0x8, addend: 0x0, symName: __ZNSt3__116allocator_traitsINS_9allocatorINS_11__tree_nodeINS_12__value_typeINS_12basic_stringIcNS_11char_traitsIcEENS1_IcEEEEN19unit_test_framework8TestCaseEEEPvEEEEE10deallocateB8ue170006ERSE_PSD_m, symObjAddr: 0x2D78, symBinAddr: 0x1000034B0, symSize: 0x34 }
  - { offsetInCU: 0x1799B, offset: 0x1799B, size: 0x8, addend: 0x0, symName: __ZNSt3__19allocatorINS_11__tree_nodeINS_12__value_typeINS_12basic_stringIcNS_11char_traitsIcEENS0_IcEEEEN19unit_test_framework8TestCaseEEEPvEEE10deallocateB8ue170006EPSC_m, symObjAddr: 0x2DAC, symBinAddr: 0x1000034E4, symSize: 0x44 }
  - { offsetInCU: 0x179DD, offset: 0x179DD, size: 0x8, addend: 0x0, symName: __ZNSt3__115__tree_iteratorINS_12__value_typeINS_12basic_stringIcNS_11char_traitsIcEENS_9allocatorIcEEEEN19unit_test_framework8TestCaseEEEPNS_11__tree_nodeISA_PvEElEC2B8ue170006ESE_, symObjAddr: 0x2EF8, symBinAddr: 0x100003630, symSize: 0x20 }
  - { offsetInCU: 0x17A16, offset: 0x17A16, size: 0x8, addend: 0x0, symName: __ZNSt3__14pairINS_15__tree_iteratorINS_12__value_typeINS_12basic_stringIcNS_11char_traitsIcEENS_9allocatorIcEEEEN19unit_test_framework8TestCaseEEEPNS_11__tree_nodeISB_PvEElEEbEC2B8ue170006ISG_RbLSD_0EEEOT_OT0_, symObjAddr: 0x2F18, symBinAddr: 0x100003650, symSize: 0x38 }
  - { offsetInCU: 0x17A74, offset: 0x17A74, size: 0x8, addend: 0x0, symName: __ZNSt3__14pairINS_14__map_iteratorINS_15__tree_iteratorINS_12__value_typeINS_12basic_stringIcNS_11char_traitsIcEENS_9allocatorIcEEEEN19unit_test_framework8TestCaseEEEPNS_11__tree_nodeISC_PvEElEEEEbEC2B8ue170006ISH_bLSE_0EEEONS0_IT_T0_EE, symObjAddr: 0x2F50, symBinAddr: 0x100003688, symSize: 0x50 }
  - { offsetInCU: 0x17AC5, offset: 0x17AC5, size: 0x8, addend: 0x0, symName: __ZNSt3__114__map_iteratorINS_15__tree_iteratorINS_12__value_typeINS_12basic_stringIcNS_11char_traitsIcEENS_9allocatorIcEEEEN19unit_test_framework8TestCaseEEEPNS_11__tree_nodeISB_PvEElEEEC1B8ue170006ESG_, symObjAddr: 0x2FA0, symBinAddr: 0x1000036D8, symSize: 0x34 }
  - { offsetInCU: 0x17AFE, offset: 0x17AFE, size: 0x8, addend: 0x0, symName: __ZNSt3__114__map_iteratorINS_15__tree_iteratorINS_12__value_typeINS_12basic_stringIcNS_11char_traitsIcEENS_9allocatorIcEEEEN19unit_test_framework8TestCaseEEEPNS_11__tree_nodeISB_PvEElEEEC2B8ue170006ESG_, symObjAddr: 0x2FD4, symBinAddr: 0x10000370C, symSize: 0x20 }
  - { offsetInCU: 0x17B37, offset: 0x17B37, size: 0x8, addend: 0x0, symName: __ZN19unit_test_framework8TestCaseC2ERKNSt3__112basic_stringIcNS1_11char_traitsIcEENS1_9allocatorIcEEEEPFvvE, symObjAddr: 0x2FF4, symBinAddr: 0x10000372C, symSize: 0x58 }
  - { offsetInCU: 0x17B7F, offset: 0x17B7F, size: 0x8, addend: 0x0, symName: __ZNSt3__112basic_stringIcNS_11char_traitsIcEENS_9allocatorIcEEEC1B8ue170006Ev, symObjAddr: 0x304C, symBinAddr: 0x100003784, symSize: 0x2C }
  - { offsetInCU: 0x17BA9, offset: 0x17BA9, size: 0x8, addend: 0x0, symName: __ZNSt3__112basic_stringIcNS_11char_traitsIcEENS_9allocatorIcEEEC2B8ue170006Ev, symObjAddr: 0x3078, symBinAddr: 0x1000037B0, symSize: 0x44 }
  - { offsetInCU: 0x17BD9, offset: 0x17BD9, size: 0x8, addend: 0x0, symName: __ZNSt3__117__compressed_pairINS_12basic_stringIcNS_11char_traitsIcEENS_9allocatorIcEEE5__repES5_EC1B8ue170006INS_18__default_init_tagESA_EEOT_OT0_, symObjAddr: 0x30BC, symBinAddr: 0x1000037F4, symSize: 0x3C }
  - { offsetInCU: 0x17C31, offset: 0x17C31, size: 0x8, addend: 0x0, symName: __ZNSt3__117__compressed_pairINS_12basic_stringIcNS_11char_traitsIcEENS_9allocatorIcEEE5__repES5_EC2B8ue170006INS_18__default_init_tagESA_EEOT_OT0_, symObjAddr: 0x30F8, symBinAddr: 0x100003830, symSize: 0x3C }
  - { offsetInCU: 0x17C89, offset: 0x17C89, size: 0x8, addend: 0x0, symName: __ZNSt3__122__compressed_pair_elemINS_12basic_stringIcNS_11char_traitsIcEENS_9allocatorIcEEE5__repELi0ELb0EEC2B8ue170006ENS_18__default_init_tagE, symObjAddr: 0x3134, symBinAddr: 0x10000386C, symSize: 0x14 }
  - { offsetInCU: 0x17CBD, offset: 0x17CBD, size: 0x8, addend: 0x0, symName: __ZNSt3__122__compressed_pair_elemINS_9allocatorIcEELi1ELb1EEC2B8ue170006ENS_18__default_init_tagE, symObjAddr: 0x3148, symBinAddr: 0x100003880, symSize: 0x2C }
  - { offsetInCU: 0x17CF1, offset: 0x17CF1, size: 0x8, addend: 0x0, symName: __ZNSt3__19allocatorIcEC2B8ue170006Ev, symObjAddr: 0x3174, symBinAddr: 0x1000038AC, symSize: 0x2C }
  - { offsetInCU: 0x17D1B, offset: 0x17D1B, size: 0x8, addend: 0x0, symName: __ZNSt3__116__non_trivial_ifILb1ENS_9allocatorIcEEEC2B8ue170006Ev, symObjAddr: 0x31A0, symBinAddr: 0x1000038D8, symSize: 0x14 }
  - { offsetInCU: 0x17D45, offset: 0x17D45, size: 0x8, addend: 0x0, symName: __ZNSt3__14pairIKNS_12basic_stringIcNS_11char_traitsIcEENS_9allocatorIcEEEEN19unit_test_framework8TestCaseEEC2B8ue170006IRS7_S9_LPv0EEEOT_OT0_, symObjAddr: 0x31B4, symBinAddr: 0x1000038EC, symSize: 0x48 }
  - { offsetInCU: 0x17DA3, offset: 0x17DA3, size: 0x8, addend: 0x0, symName: __ZNSt3__14pairIKNS_12basic_stringIcNS_11char_traitsIcEENS_9allocatorIcEEEEN19unit_test_framework8TestCaseEED2Ev, symObjAddr: 0x31FC, symBinAddr: 0x100003934, symSize: 0x38 }
  - { offsetInCU: 0x17DCF, offset: 0x17DCF, size: 0x8, addend: 0x0, symName: __ZN19unit_test_framework8TestCaseD2Ev, symObjAddr: 0x3234, symBinAddr: 0x10000396C, symSize: 0x44 }
  - { offsetInCU: 0x17DFC, offset: 0x17DFC, size: 0x8, addend: 0x0, symName: __ZN16BinarySearchTreeIiNSt3__14lessIiEEEC1Ev, symObjAddr: 0x3278, symBinAddr: 0x1000039B0, symSize: 0x2C }
  - { offsetInCU: 0x17E26, offset: 0x17E26, size: 0x8, addend: 0x0, symName: __ZN16BinarySearchTreeIiNSt3__14lessIiEEE6insertERKi, symObjAddr: 0x32A4, symBinAddr: 0x1000039DC, symSize: 0xAC }
  - { offsetInCU: 0x17E5B, offset: 0x17E5B, size: 0x8, addend: 0x0, symName: __ZN19unit_test_framework10Assertions11assert_trueEbiPKc, symObjAddr: 0x3350, symBinAddr: 0x100003A88, symSize: 0x148 }
  - { offsetInCU: 0x17EAD, offset: 0x17EAD, size: 0x8, addend: 0x0, symName: __ZNK16BinarySearchTreeIiNSt3__14lessIiEEE4sizeEv, symObjAddr: 0x3498, symBinAddr: 0x100003BD0, symSize: 0x30 }
  - { offsetInCU: 0x17ED3, offset: 0x17ED3, size: 0x8, addend: 0x0, symName: __ZNK16BinarySearchTreeIiNSt3__14lessIiEEE6heightEv, symObjAddr: 0x34C8, symBinAddr: 0x100003C00, symSize: 0x30 }
  - { offsetInCU: 0x17EF9, offset: 0x17EF9, size: 0x8, addend: 0x0, symName: __ZNK16BinarySearchTreeIiNSt3__14lessIiEEE4findERKi, symObjAddr: 0x34F8, symBinAddr: 0x100003C30, symSize: 0x4C }
  - { offsetInCU: 0x17F2E, offset: 0x17F2E, size: 0x8, addend: 0x0, symName: __ZNK16BinarySearchTreeIiNSt3__14lessIiEEE8IteratorneERKS4_, symObjAddr: 0x3544, symBinAddr: 0x100003C7C, symSize: 0x30 }
  - { offsetInCU: 0x17F62, offset: 0x17F62, size: 0x8, addend: 0x0, symName: __ZNK16BinarySearchTreeIiNSt3__14lessIiEEE3endEv, symObjAddr: 0x3574, symBinAddr: 0x100003CAC, symSize: 0x2C }
  - { offsetInCU: 0x17F88, offset: 0x17F88, size: 0x8, addend: 0x0, symName: __ZNK16BinarySearchTreeIiNSt3__14lessIiEEE23check_sorting_invariantEv, symObjAddr: 0x35A0, symBinAddr: 0x100003CD8, symSize: 0x2C }
  - { offsetInCU: 0x17FAE, offset: 0x17FAE, size: 0x8, addend: 0x0, symName: __ZNK16BinarySearchTreeIiNSt3__14lessIiEEE11max_elementEv, symObjAddr: 0x35CC, symBinAddr: 0x100003D04, symSize: 0x44 }
  - { offsetInCU: 0x17FD4, offset: 0x17FD4, size: 0x8, addend: 0x0, symName: __ZNK16BinarySearchTreeIiNSt3__14lessIiEEE8IteratordeEv, symObjAddr: 0x3610, symBinAddr: 0x100003D48, symSize: 0x18 }
  - { offsetInCU: 0x17FFA, offset: 0x17FFA, size: 0x8, addend: 0x0, symName: __ZNK16BinarySearchTreeIiNSt3__14lessIiEEE11min_elementEv, symObjAddr: 0x3628, symBinAddr: 0x100003D60, symSize: 0x44 }
  - { offsetInCU: 0x18020, offset: 0x18020, size: 0x8, addend: 0x0, symName: __ZNK16BinarySearchTreeIiNSt3__14lessIiEEE16min_greater_thanERKi, symObjAddr: 0x366C, symBinAddr: 0x100003DA4, symSize: 0x4C }
  - { offsetInCU: 0x18055, offset: 0x18055, size: 0x8, addend: 0x0, symName: __ZNSt3__113basic_ostreamIcNS_11char_traitsIcEEElsB8ue170006EPFRS3_S4_E, symObjAddr: 0x3700, symBinAddr: 0x100003E38, symSize: 0x2C }
  - { offsetInCU: 0x18089, offset: 0x18089, size: 0x8, addend: 0x0, symName: __ZNK16BinarySearchTreeIiNSt3__14lessIiEEE9to_stringEv, symObjAddr: 0x37D0, symBinAddr: 0x100003F08, symSize: 0x520 }
  - { offsetInCU: 0x18148, offset: 0x18148, size: 0x8, addend: 0x0, symName: __ZlsIiNSt3__14lessIiEEERNS0_13basic_ostreamIcNS0_11char_traitsIcEEEES7_RK16BinarySearchTreeIT_T0_E, symObjAddr: 0x3CF0, symBinAddr: 0x100004428, symSize: 0xB0 }
  - { offsetInCU: 0x1823C, offset: 0x1823C, size: 0x8, addend: 0x0, symName: __ZNSt3__119basic_ostringstreamIcNS_11char_traitsIcEENS_9allocatorIcEEEC1B8ue170006Ev, symObjAddr: 0x3DA0, symBinAddr: 0x1000044D8, symSize: 0xEC }
  - { offsetInCU: 0x18266, offset: 0x18266, size: 0x8, addend: 0x0, symName: __ZNK16BinarySearchTreeIiNSt3__14lessIiEEE17traverse_preorderERNS0_13basic_ostreamIcNS0_11char_traitsIcEEEE, symObjAddr: 0x3E8C, symBinAddr: 0x1000045C4, symSize: 0x30 }
  - { offsetInCU: 0x1829A, offset: 0x1829A, size: 0x8, addend: 0x0, symName: __ZNKSt3__119basic_ostringstreamIcNS_11char_traitsIcEENS_9allocatorIcEEE3strB8ue170006Ev, symObjAddr: 0x3EBC, symBinAddr: 0x1000045F4, symSize: 0x30 }
  - { offsetInCU: 0x182C0, offset: 0x182C0, size: 0x8, addend: 0x0, symName: __ZNK16BinarySearchTreeIiNSt3__14lessIiEEE16traverse_inorderERNS0_13basic_ostreamIcNS0_11char_traitsIcEEEE, symObjAddr: 0x3F98, symBinAddr: 0x1000046D0, symSize: 0x30 }
  - { offsetInCU: 0x182F9, offset: 0x182F9, size: 0x8, addend: 0x0, symName: __ZNSt3__119basic_ostringstreamIcNS_11char_traitsIcEENS_9allocatorIcEEED1Ev, symObjAddr: 0x3FC8, symBinAddr: 0x100004700, symSize: 0x40 }
  - { offsetInCU: 0x18326, offset: 0x18326, size: 0x8, addend: 0x0, symName: __ZN16BinarySearchTreeIiNSt3__14lessIiEEED1Ev, symObjAddr: 0x4008, symBinAddr: 0x100004740, symSize: 0x2C }
  - { offsetInCU: 0x18350, offset: 0x18350, size: 0x8, addend: 0x0, symName: __ZN16BinarySearchTreeIiNSt3__14lessIiEEEC2Ev, symObjAddr: 0x4034, symBinAddr: 0x10000476C, symSize: 0x18 }
  - { offsetInCU: 0x1837A, offset: 0x1837A, size: 0x8, addend: 0x0, symName: __ZNK16BinarySearchTreeIiNSt3__14lessIiEEE8IteratoreqERKS4_, symObjAddr: 0x404C, symBinAddr: 0x100004784, symSize: 0x30 }
  - { offsetInCU: 0x183AE, offset: 0x183AE, size: 0x8, addend: 0x0, symName: __ZN16BinarySearchTreeIiNSt3__14lessIiEEE11insert_implEPNS3_4NodeERKiS2_, symObjAddr: 0x407C, symBinAddr: 0x1000047B4, symSize: 0x12C }
  - { offsetInCU: 0x18405, offset: 0x18405, size: 0x8, addend: 0x0, symName: __ZN16BinarySearchTreeIiNSt3__14lessIiEEE4NodeC1Ev, symObjAddr: 0x41A8, symBinAddr: 0x1000048E0, symSize: 0x2C }
  - { offsetInCU: 0x1842F, offset: 0x1842F, size: 0x8, addend: 0x0, symName: __ZNKSt3__14lessIiEclB8ue170006ERKiS3_, symObjAddr: 0x41D4, symBinAddr: 0x10000490C, symSize: 0x34 }
  - { offsetInCU: 0x18473, offset: 0x18473, size: 0x8, addend: 0x0, symName: __ZN16BinarySearchTreeIiNSt3__14lessIiEEE4NodeC2Ev, symObjAddr: 0x4208, symBinAddr: 0x100004940, symSize: 0x14 }
  - { offsetInCU: 0x184AC, offset: 0x184AC, size: 0x8, addend: 0x0, symName: __ZN19unit_test_framework11TestFailureC1ENSt3__112basic_stringIcNS1_11char_traitsIcEENS1_9allocatorIcEEEEiPKc, symObjAddr: 0x421C, symBinAddr: 0x100004954, symSize: 0x44 }
  - { offsetInCU: 0x18501, offset: 0x18501, size: 0x8, addend: 0x0, symName: __ZN19unit_test_framework11TestFailureD1Ev, symObjAddr: 0x4260, symBinAddr: 0x100004998, symSize: 0x2C }
  - { offsetInCU: 0x1852D, offset: 0x1852D, size: 0x8, addend: 0x0, symName: __ZN19unit_test_framework11TestFailureC2ENSt3__112basic_stringIcNS1_11char_traitsIcEENS1_9allocatorIcEEEEiPKc, symObjAddr: 0x428C, symBinAddr: 0x1000049C4, symSize: 0x4C }
  - { offsetInCU: 0x18582, offset: 0x18582, size: 0x8, addend: 0x0, symName: __ZN19unit_test_framework11TestFailureD2Ev, symObjAddr: 0x42D8, symBinAddr: 0x100004A10, symSize: 0x2C }
  - { offsetInCU: 0x185AE, offset: 0x185AE, size: 0x8, addend: 0x0, symName: __ZN16BinarySearchTreeIiNSt3__14lessIiEEE9size_implEPKNS3_4NodeE, symObjAddr: 0x4304, symBinAddr: 0x100004A3C, symSize: 0x6C }
  - { offsetInCU: 0x185D2, offset: 0x185D2, size: 0x8, addend: 0x0, symName: __ZN16BinarySearchTreeIiNSt3__14lessIiEEE11height_implEPKNS3_4NodeE, symObjAddr: 0x4370, symBinAddr: 0x100004AA8, symSize: 0x84 }
  - { offsetInCU: 0x185F6, offset: 0x185F6, size: 0x8, addend: 0x0, symName: __ZNKSt3__16__lessIvvEclB8ue170006IiiEEbRKT_RKT0_, symObjAddr: 0x4474, symBinAddr: 0x100004BAC, symSize: 0x34 }
  - { offsetInCU: 0x1864A, offset: 0x1864A, size: 0x8, addend: 0x0, symName: __ZN16BinarySearchTreeIiNSt3__14lessIiEEE9find_implEPNS3_4NodeERKiS2_, symObjAddr: 0x44A8, symBinAddr: 0x100004BE0, symSize: 0xC4 }
  - { offsetInCU: 0x1868C, offset: 0x1868C, size: 0x8, addend: 0x0, symName: __ZN16BinarySearchTreeIiNSt3__14lessIiEEE8IteratorC1EPNS3_4NodeES6_S2_, symObjAddr: 0x456C, symBinAddr: 0x100004CA4, symSize: 0x3C }
  - { offsetInCU: 0x186E0, offset: 0x186E0, size: 0x8, addend: 0x0, symName: __ZN16BinarySearchTreeIiNSt3__14lessIiEEE8IteratorC2EPNS3_4NodeES6_S2_, symObjAddr: 0x45A8, symBinAddr: 0x100004CE0, symSize: 0x2C }
  - { offsetInCU: 0x18734, offset: 0x18734, size: 0x8, addend: 0x0, symName: __ZN16BinarySearchTreeIiNSt3__14lessIiEEE8IteratorC1Ev, symObjAddr: 0x45D4, symBinAddr: 0x100004D0C, symSize: 0x2C }
  - { offsetInCU: 0x1875E, offset: 0x1875E, size: 0x8, addend: 0x0, symName: __ZN16BinarySearchTreeIiNSt3__14lessIiEEE8IteratorC2Ev, symObjAddr: 0x4600, symBinAddr: 0x100004D38, symSize: 0x1C }
  - { offsetInCU: 0x18788, offset: 0x18788, size: 0x8, addend: 0x0, symName: __ZN16BinarySearchTreeIiNSt3__14lessIiEEE28check_sorting_invariant_implEPKNS3_4NodeES2_, symObjAddr: 0x461C, symBinAddr: 0x100004D54, symSize: 0x128 }
  - { offsetInCU: 0x187BB, offset: 0x187BB, size: 0x8, addend: 0x0, symName: __ZN16BinarySearchTreeIiNSt3__14lessIiEEE16max_element_implEPNS3_4NodeE, symObjAddr: 0x4744, symBinAddr: 0x100004E7C, symSize: 0x74 }
  - { offsetInCU: 0x187DF, offset: 0x187DF, size: 0x8, addend: 0x0, symName: __ZN16BinarySearchTreeIiNSt3__14lessIiEEE16min_element_implEPNS3_4NodeE, symObjAddr: 0x47B8, symBinAddr: 0x100004EF0, symSize: 0x74 }
  - { offsetInCU: 0x18803, offset: 0x18803, size: 0x8, addend: 0x0, symName: __ZN16BinarySearchTreeIiNSt3__14lessIiEEE21min_greater_than_implEPNS3_4NodeERKiS2_, symObjAddr: 0x482C, symBinAddr: 0x100004F64, symSize: 0xB0 }
  - { offsetInCU: 0x18862, offset: 0x18862, size: 0x8, addend: 0x0, symName: __ZNSt3__111char_traitsIcE6lengthB8ue170006EPKc, symObjAddr: 0x4AC8, symBinAddr: 0x100005200, symSize: 0x34 }
  - { offsetInCU: 0x188A3, offset: 0x188A3, size: 0x8, addend: 0x0, symName: __ZNKSt3__113basic_ostreamIcNS_11char_traitsIcEEE6sentrycvbB8ue170006Ev, symObjAddr: 0x4AFC, symBinAddr: 0x100005234, symSize: 0x1C }
  - { offsetInCU: 0x188C9, offset: 0x188C9, size: 0x8, addend: 0x0, symName: __ZNSt3__119ostreambuf_iteratorIcNS_11char_traitsIcEEEC1B8ue170006ERNS_13basic_ostreamIcS2_EE, symObjAddr: 0x4D58, symBinAddr: 0x100005490, symSize: 0x34 }
  - { offsetInCU: 0x18901, offset: 0x18901, size: 0x8, addend: 0x0, symName: __ZNKSt3__18ios_base5flagsB8ue170006Ev, symObjAddr: 0x4D8C, symBinAddr: 0x1000054C4, symSize: 0x18 }
  - { offsetInCU: 0x18929, offset: 0x18929, size: 0x8, addend: 0x0, symName: __ZNKSt3__19basic_iosIcNS_11char_traitsIcEEE4fillB8ue170006Ev, symObjAddr: 0x4DA4, symBinAddr: 0x1000054DC, symSize: 0x64 }
  - { offsetInCU: 0x18951, offset: 0x18951, size: 0x8, addend: 0x0, symName: __ZNKSt3__119ostreambuf_iteratorIcNS_11char_traitsIcEEE6failedB8ue170006Ev, symObjAddr: 0x4E08, symBinAddr: 0x100005540, symSize: 0x24 }
  - { offsetInCU: 0x18977, offset: 0x18977, size: 0x8, addend: 0x0, symName: __ZNSt3__19basic_iosIcNS_11char_traitsIcEEE8setstateB8ue170006Ej, symObjAddr: 0x4E2C, symBinAddr: 0x100005564, symSize: 0x2C }
  - { offsetInCU: 0x189AC, offset: 0x189AC, size: 0x8, addend: 0x0, symName: __ZNKSt3__18ios_base5widthB8ue170006Ev, symObjAddr: 0x4E58, symBinAddr: 0x100005590, symSize: 0x18 }
  - { offsetInCU: 0x189D4, offset: 0x189D4, size: 0x8, addend: 0x0, symName: __ZNSt3__115basic_streambufIcNS_11char_traitsIcEEE5sputnB8ue170006EPKcl, symObjAddr: 0x4E70, symBinAddr: 0x1000055A8, symSize: 0x3C }
  - { offsetInCU: 0x18A16, offset: 0x18A16, size: 0x8, addend: 0x0, symName: __ZNSt3__112basic_stringIcNS_11char_traitsIcEENS_9allocatorIcEEEC1B8ue170006Emc, symObjAddr: 0x4EAC, symBinAddr: 0x1000055E4, symSize: 0x3C }
  - { offsetInCU: 0x18A5E, offset: 0x18A5E, size: 0x8, addend: 0x0, symName: __ZNSt3__112basic_stringIcNS_11char_traitsIcEENS_9allocatorIcEEE4dataB8ue170006Ev, symObjAddr: 0x4EE8, symBinAddr: 0x100005620, symSize: 0x28 }
  - { offsetInCU: 0x18A84, offset: 0x18A84, size: 0x8, addend: 0x0, symName: __ZNSt3__18ios_base5widthB8ue170006El, symObjAddr: 0x4F10, symBinAddr: 0x100005648, symSize: 0x2C }
  - { offsetInCU: 0x18ACA, offset: 0x18ACA, size: 0x8, addend: 0x0, symName: __ZNSt3__112basic_stringIcNS_11char_traitsIcEENS_9allocatorIcEEEC2B8ue170006Emc, symObjAddr: 0x4F3C, symBinAddr: 0x100005674, symSize: 0x4C }
  - { offsetInCU: 0x18B12, offset: 0x18B12, size: 0x8, addend: 0x0, symName: __ZNSt3__112basic_stringIcNS_11char_traitsIcEENS_9allocatorIcEEE13__get_pointerB8ue170006Ev, symObjAddr: 0x4F9C, symBinAddr: 0x1000056D4, symSize: 0x54 }
  - { offsetInCU: 0x18B38, offset: 0x18B38, size: 0x8, addend: 0x0, symName: __ZNSt3__112basic_stringIcNS_11char_traitsIcEENS_9allocatorIcEEE18__get_long_pointerB8ue170006Ev, symObjAddr: 0x4FF0, symBinAddr: 0x100005728, symSize: 0x28 }
  - { offsetInCU: 0x18B5E, offset: 0x18B5E, size: 0x8, addend: 0x0, symName: __ZNSt3__112basic_stringIcNS_11char_traitsIcEENS_9allocatorIcEEE19__get_short_pointerB8ue170006Ev, symObjAddr: 0x5018, symBinAddr: 0x100005750, symSize: 0x28 }
  - { offsetInCU: 0x18B84, offset: 0x18B84, size: 0x8, addend: 0x0, symName: __ZNSt3__114pointer_traitsIPcE10pointer_toB8ue170006ERc, symObjAddr: 0x5040, symBinAddr: 0x100005778, symSize: 0x14 }
  - { offsetInCU: 0x18BA7, offset: 0x18BA7, size: 0x8, addend: 0x0, symName: __ZNSt3__119ostreambuf_iteratorIcNS_11char_traitsIcEEEC2B8ue170006ERNS_13basic_ostreamIcS2_EE, symObjAddr: 0x5054, symBinAddr: 0x10000578C, symSize: 0x54 }
  - { offsetInCU: 0x18BDF, offset: 0x18BDF, size: 0x8, addend: 0x0, symName: __ZNKSt3__19basic_iosIcNS_11char_traitsIcEEE5rdbufB8ue170006Ev, symObjAddr: 0x50A8, symBinAddr: 0x1000057E0, symSize: 0x24 }
  - { offsetInCU: 0x18C07, offset: 0x18C07, size: 0x8, addend: 0x0, symName: __ZNKSt3__18ios_base5rdbufB8ue170006Ev, symObjAddr: 0x50CC, symBinAddr: 0x100005804, symSize: 0x18 }
  - { offsetInCU: 0x18C2D, offset: 0x18C2D, size: 0x8, addend: 0x0, symName: __ZNSt3__111char_traitsIcE11eq_int_typeB8ue170006Eii, symObjAddr: 0x50E4, symBinAddr: 0x10000581C, symSize: 0x28 }
  - { offsetInCU: 0x18C60, offset: 0x18C60, size: 0x8, addend: 0x0, symName: __ZNSt3__111char_traitsIcE3eofB8ue170006Ev, symObjAddr: 0x510C, symBinAddr: 0x100005844, symSize: 0x8 }
  - { offsetInCU: 0x18C74, offset: 0x18C74, size: 0x8, addend: 0x0, symName: __ZNKSt3__19basic_iosIcNS_11char_traitsIcEEE5widenB8ue170006Ec, symObjAddr: 0x5114, symBinAddr: 0x10000584C, symSize: 0x84 }
  - { offsetInCU: 0x18CDD, offset: 0x18CDD, size: 0x8, addend: 0x0, symName: __ZNKSt3__15ctypeIcE5widenB8ue170006Ec, symObjAddr: 0x51C4, symBinAddr: 0x1000058FC, symSize: 0x38 }
  - { offsetInCU: 0x18D12, offset: 0x18D12, size: 0x8, addend: 0x0, symName: __ZNSt3__18ios_base8setstateB8ue170006Ej, symObjAddr: 0x51FC, symBinAddr: 0x100005934, symSize: 0x34 }
  - { offsetInCU: 0x18D49, offset: 0x18D49, size: 0x8, addend: 0x0, symName: __ZNK16BinarySearchTreeIiNSt3__14lessIiEEE17get_max_elt_widthEv, symObjAddr: 0x5254, symBinAddr: 0x10000598C, symSize: 0x1B0 }
  - { offsetInCU: 0x18EF3, offset: 0x18EF3, size: 0x8, addend: 0x0, symName: __ZN16BinarySearchTreeIiNSt3__14lessIiEEE9Tree_gridC1ERKS3_, symObjAddr: 0x5404, symBinAddr: 0x100005B3C, symSize: 0x34 }
  - { offsetInCU: 0x18F2B, offset: 0x18F2B, size: 0x8, addend: 0x0, symName: __ZNK16BinarySearchTreeIiNSt3__14lessIiEEE9Tree_grid14get_leftmost_xEv, symObjAddr: 0x5438, symBinAddr: 0x100005B70, symSize: 0x18 }
  - { offsetInCU: 0x18F51, offset: 0x18F51, size: 0x8, addend: 0x0, symName: __ZNK16BinarySearchTreeIiNSt3__14lessIiEEE9Tree_grid15get_rightmost_xEv, symObjAddr: 0x5450, symBinAddr: 0x100005B88, symSize: 0x18 }
  - { offsetInCU: 0x18F77, offset: 0x18F77, size: 0x8, addend: 0x0, symName: __ZNK16BinarySearchTreeIiNSt3__14lessIiEEE9Tree_grid14get_num_levelsEv, symObjAddr: 0x5468, symBinAddr: 0x100005BA0, symSize: 0x18 }
  - { offsetInCU: 0x18F9D, offset: 0x18F9D, size: 0x8, addend: 0x0, symName: __ZNK16BinarySearchTreeIiNSt3__14lessIiEEE9Tree_grid4findERKNS3_16Tree_grid_squareE, symObjAddr: 0x5480, symBinAddr: 0x100005BB8, symSize: 0x80 }
  - { offsetInCU: 0x18FDF, offset: 0x18FDF, size: 0x8, addend: 0x0, symName: __ZN16BinarySearchTreeIiNSt3__14lessIiEEE16Tree_grid_squareC1Eii, symObjAddr: 0x5500, symBinAddr: 0x100005C38, symSize: 0x3C }
  - { offsetInCU: 0x19025, offset: 0x19025, size: 0x8, addend: 0x0, symName: __ZN16BinarySearchTreeIiNSt3__14lessIiEEE16Tree_grid_squareD1Ev, symObjAddr: 0x553C, symBinAddr: 0x100005C74, symSize: 0x2C }
  - { offsetInCU: 0x19052, offset: 0x19052, size: 0x8, addend: 0x0, symName: __ZNK16BinarySearchTreeIiNSt3__14lessIiEEE16Tree_grid_square9get_valueEv, symObjAddr: 0x5568, symBinAddr: 0x100005CA0, symSize: 0x3C }
  - { offsetInCU: 0x19078, offset: 0x19078, size: 0x8, addend: 0x0, symName: __ZNSt3__113basic_ostreamIcNS_11char_traitsIcEEElsB8ue170006EPFRNS_8ios_baseES5_E, symObjAddr: 0x55A4, symBinAddr: 0x100005CDC, symSize: 0x40 }
  - { offsetInCU: 0x190AC, offset: 0x190AC, size: 0x8, addend: 0x0, symName: __ZN16BinarySearchTreeIiNSt3__14lessIiEEE9Tree_gridD1Ev, symObjAddr: 0x56E4, symBinAddr: 0x100005E1C, symSize: 0x2C }
  - { offsetInCU: 0x19118, offset: 0x19118, size: 0x8, addend: 0x0, symName: __ZNSt3__15stackIPN16BinarySearchTreeIiNS_4lessIiEEE4NodeENS_5dequeIS6_NS_9allocatorIS6_EEEEEC1B8ue170006Ev, symObjAddr: 0x5710, symBinAddr: 0x100005E48, symSize: 0x2C }
  - { offsetInCU: 0x19142, offset: 0x19142, size: 0x8, addend: 0x0, symName: __ZNSt3__15stackIPN16BinarySearchTreeIiNS_4lessIiEEE4NodeENS_5dequeIS6_NS_9allocatorIS6_EEEEE4pushB8ue170006ERKS6_, symObjAddr: 0x573C, symBinAddr: 0x100005E74, symSize: 0x2C }
  - { offsetInCU: 0x19177, offset: 0x19177, size: 0x8, addend: 0x0, symName: __ZNKSt3__15stackIPN16BinarySearchTreeIiNS_4lessIiEEE4NodeENS_5dequeIS6_NS_9allocatorIS6_EEEEE5emptyB8ue170006Ev, symObjAddr: 0x5768, symBinAddr: 0x100005EA0, symSize: 0x28 }
  - { offsetInCU: 0x1919D, offset: 0x1919D, size: 0x8, addend: 0x0, symName: __ZNSt3__15stackIPN16BinarySearchTreeIiNS_4lessIiEEE4NodeENS_5dequeIS6_NS_9allocatorIS6_EEEEE3topB8ue170006Ev, symObjAddr: 0x5790, symBinAddr: 0x100005EC8, symSize: 0x24 }
  - { offsetInCU: 0x191C3, offset: 0x191C3, size: 0x8, addend: 0x0, symName: __ZNSt3__15stackIPN16BinarySearchTreeIiNS_4lessIiEEE4NodeENS_5dequeIS6_NS_9allocatorIS6_EEEEE3popB8ue170006Ev, symObjAddr: 0x57B4, symBinAddr: 0x100005EEC, symSize: 0x24 }
  - { offsetInCU: 0x191E9, offset: 0x191E9, size: 0x8, addend: 0x0, symName: __ZNKSt3__112basic_stringIcNS_11char_traitsIcEENS_9allocatorIcEEE6lengthB8ue170006Ev, symObjAddr: 0x57D8, symBinAddr: 0x100005F10, symSize: 0x24 }
  - { offsetInCU: 0x1920F, offset: 0x1920F, size: 0x8, addend: 0x0, symName: __ZNSt3__15stackIPN16BinarySearchTreeIiNS_4lessIiEEE4NodeENS_5dequeIS6_NS_9allocatorIS6_EEEEED1Ev, symObjAddr: 0x57FC, symBinAddr: 0x100005F34, symSize: 0x2C }
  - { offsetInCU: 0x1923B, offset: 0x1923B, size: 0x8, addend: 0x0, symName: __ZNSt3__15stackIPN16BinarySearchTreeIiNS_4lessIiEEE4NodeENS_5dequeIS6_NS_9allocatorIS6_EEEEEC2B8ue170006Ev, symObjAddr: 0x5828, symBinAddr: 0x100005F60, symSize: 0x2C }
  - { offsetInCU: 0x19265, offset: 0x19265, size: 0x8, addend: 0x0, symName: __ZNSt3__15dequeIPN16BinarySearchTreeIiNS_4lessIiEEE4NodeENS_9allocatorIS6_EEEC1B8ue170006Ev, symObjAddr: 0x5854, symBinAddr: 0x100005F8C, symSize: 0x2C }
  - { offsetInCU: 0x1928F, offset: 0x1928F, size: 0x8, addend: 0x0, symName: __ZNSt3__15dequeIPN16BinarySearchTreeIiNS_4lessIiEEE4NodeENS_9allocatorIS6_EEEC2B8ue170006Ev, symObjAddr: 0x5880, symBinAddr: 0x100005FB8, symSize: 0x5C }
  - { offsetInCU: 0x192B9, offset: 0x192B9, size: 0x8, addend: 0x0, symName: __ZNSt3__114__split_bufferIPPN16BinarySearchTreeIiNS_4lessIiEEE4NodeENS_9allocatorIS7_EEEC1B8ue170006Ev, symObjAddr: 0x58DC, symBinAddr: 0x100006014, symSize: 0x2C }
  - { offsetInCU: 0x192E9, offset: 0x192E9, size: 0x8, addend: 0x0, symName: __ZNSt3__117__compressed_pairImNS_9allocatorIPN16BinarySearchTreeIiNS_4lessIiEEE4NodeEEEEC1B8ue170006IiNS_18__default_init_tagEEEOT_OT0_, symObjAddr: 0x5908, symBinAddr: 0x100006040, symSize: 0x3C }
  - { offsetInCU: 0x19341, offset: 0x19341, size: 0x8, addend: 0x0, symName: __ZNKSt3__15dequeIPN16BinarySearchTreeIiNS_4lessIiEEE4NodeENS_9allocatorIS6_EEE14__annotate_newB8ue170006Em, symObjAddr: 0x5944, symBinAddr: 0x10000607C, symSize: 0xC8 }
  - { offsetInCU: 0x19376, offset: 0x19376, size: 0x8, addend: 0x0, symName: __ZNSt3__114__split_bufferIPPN16BinarySearchTreeIiNS_4lessIiEEE4NodeENS_9allocatorIS7_EEEC2B8ue170006Ev, symObjAddr: 0x5A0C, symBinAddr: 0x100006144, symSize: 0x50 }
  - { offsetInCU: 0x193A6, offset: 0x193A6, size: 0x8, addend: 0x0, symName: __ZNSt3__117__compressed_pairIPPPN16BinarySearchTreeIiNS_4lessIiEEE4NodeENS_9allocatorIS7_EEEC1B8ue170006IDnNS_18__default_init_tagEEEOT_OT0_, symObjAddr: 0x5A5C, symBinAddr: 0x100006194, symSize: 0x3C }
  - { offsetInCU: 0x193FE, offset: 0x193FE, size: 0x8, addend: 0x0, symName: __ZNSt3__117__compressed_pairIPPPN16BinarySearchTreeIiNS_4lessIiEEE4NodeENS_9allocatorIS7_EEEC2B8ue170006IDnNS_18__default_init_tagEEEOT_OT0_, symObjAddr: 0x5A98, symBinAddr: 0x1000061D0, symSize: 0x40 }
  - { offsetInCU: 0x19456, offset: 0x19456, size: 0x8, addend: 0x0, symName: __ZNSt3__122__compressed_pair_elemIPPPN16BinarySearchTreeIiNS_4lessIiEEE4NodeELi0ELb0EEC2B8ue170006IDnvEEOT_, symObjAddr: 0x5AD8, symBinAddr: 0x100006210, symSize: 0x1C }
  - { offsetInCU: 0x19498, offset: 0x19498, size: 0x8, addend: 0x0, symName: __ZNSt3__122__compressed_pair_elemINS_9allocatorIPPN16BinarySearchTreeIiNS_4lessIiEEE4NodeEEELi1ELb1EEC2B8ue170006ENS_18__default_init_tagE, symObjAddr: 0x5AF4, symBinAddr: 0x10000622C, symSize: 0x2C }
  - { offsetInCU: 0x194CC, offset: 0x194CC, size: 0x8, addend: 0x0, symName: __ZNSt3__19allocatorIPPN16BinarySearchTreeIiNS_4lessIiEEE4NodeEEC2B8ue170006Ev, symObjAddr: 0x5B20, symBinAddr: 0x100006258, symSize: 0x2C }
  - { offsetInCU: 0x194F6, offset: 0x194F6, size: 0x8, addend: 0x0, symName: __ZNSt3__116__non_trivial_ifILb1ENS_9allocatorIPPN16BinarySearchTreeIiNS_4lessIiEEE4NodeEEEEC2B8ue170006Ev, symObjAddr: 0x5B4C, symBinAddr: 0x100006284, symSize: 0x14 }
  - { offsetInCU: 0x19520, offset: 0x19520, size: 0x8, addend: 0x0, symName: __ZNSt3__117__compressed_pairImNS_9allocatorIPN16BinarySearchTreeIiNS_4lessIiEEE4NodeEEEEC2B8ue170006IiNS_18__default_init_tagEEEOT_OT0_, symObjAddr: 0x5B60, symBinAddr: 0x100006298, symSize: 0x40 }
  - { offsetInCU: 0x19578, offset: 0x19578, size: 0x8, addend: 0x0, symName: __ZNSt3__122__compressed_pair_elemImLi0ELb0EEC2B8ue170006IivEEOT_, symObjAddr: 0x5BA0, symBinAddr: 0x1000062D8, symSize: 0x24 }
  - { offsetInCU: 0x195BA, offset: 0x195BA, size: 0x8, addend: 0x0, symName: __ZNSt3__122__compressed_pair_elemINS_9allocatorIPN16BinarySearchTreeIiNS_4lessIiEEE4NodeEEELi1ELb1EEC2B8ue170006ENS_18__default_init_tagE, symObjAddr: 0x5BC4, symBinAddr: 0x1000062FC, symSize: 0x2C }
  - { offsetInCU: 0x195EE, offset: 0x195EE, size: 0x8, addend: 0x0, symName: __ZNSt3__19allocatorIPN16BinarySearchTreeIiNS_4lessIiEEE4NodeEEC2B8ue170006Ev, symObjAddr: 0x5BF0, symBinAddr: 0x100006328, symSize: 0x2C }
  - { offsetInCU: 0x19618, offset: 0x19618, size: 0x8, addend: 0x0, symName: __ZNSt3__116__non_trivial_ifILb1ENS_9allocatorIPN16BinarySearchTreeIiNS_4lessIiEEE4NodeEEEEC2B8ue170006Ev, symObjAddr: 0x5C1C, symBinAddr: 0x100006354, symSize: 0x14 }
  - { offsetInCU: 0x19642, offset: 0x19642, size: 0x8, addend: 0x0, symName: __ZNKSt3__15dequeIPN16BinarySearchTreeIiNS_4lessIiEEE4NodeENS_9allocatorIS6_EEE18__annotate_from_toB8ue170006EmmNS9_22__asan_annotation_typeENS9_23__asan_annotation_placeE, symObjAddr: 0x5C30, symBinAddr: 0x100006368, symSize: 0x580 }
  - { offsetInCU: 0x197FE, offset: 0x197FE, size: 0x8, addend: 0x0, symName: __ZNKSt3__114__split_bufferIPPN16BinarySearchTreeIiNS_4lessIiEEE4NodeENS_9allocatorIS7_EEE4sizeB8ue170006Ev, symObjAddr: 0x61B0, symBinAddr: 0x1000068E8, symSize: 0x28 }
  - { offsetInCU: 0x19824, offset: 0x19824, size: 0x8, addend: 0x0, symName: __ZNKSt3__114__split_bufferIPPN16BinarySearchTreeIiNS_4lessIiEEE4NodeENS_9allocatorIS7_EEE5beginB8ue170006Ev, symObjAddr: 0x61D8, symBinAddr: 0x100006910, symSize: 0x18 }
  - { offsetInCU: 0x1984A, offset: 0x1984A, size: 0x8, addend: 0x0, symName: __ZNKSt3__15dequeIPN16BinarySearchTreeIiNS_4lessIiEEE4NodeENS_9allocatorIS6_EEE4sizeB8ue170006Ev, symObjAddr: 0x61F0, symBinAddr: 0x100006928, symSize: 0x28 }
  - { offsetInCU: 0x19870, offset: 0x19870, size: 0x8, addend: 0x0, symName: __ZNKSt3__15dequeIPN16BinarySearchTreeIiNS_4lessIiEEE4NodeENS_9allocatorIS6_EEE5emptyB8ue170006Ev, symObjAddr: 0x6218, symBinAddr: 0x100006950, symSize: 0x30 }
  - { offsetInCU: 0x19896, offset: 0x19896, size: 0x8, addend: 0x0, symName: __ZNKSt3__15dequeIPN16BinarySearchTreeIiNS_4lessIiEEE4NodeENS_9allocatorIS6_EEE44__annotate_double_ended_contiguous_containerB8ue170006EPKvSB_SB_SB_SB_SB_, symObjAddr: 0x625C, symBinAddr: 0x100006994, symSize: 0x28 }
  - { offsetInCU: 0x19904, offset: 0x19904, size: 0x8, addend: 0x0, symName: __ZNKSt3__15dequeIPN16BinarySearchTreeIiNS_4lessIiEEE4NodeENS_9allocatorIS6_EEE6__sizeB8ue170006Ev, symObjAddr: 0x6284, symBinAddr: 0x1000069BC, symSize: 0x28 }
  - { offsetInCU: 0x1992A, offset: 0x1992A, size: 0x8, addend: 0x0, symName: __ZNKSt3__117__compressed_pairImNS_9allocatorIPN16BinarySearchTreeIiNS_4lessIiEEE4NodeEEEE5firstB8ue170006Ev, symObjAddr: 0x62AC, symBinAddr: 0x1000069E4, symSize: 0x24 }
  - { offsetInCU: 0x19950, offset: 0x19950, size: 0x8, addend: 0x0, symName: __ZNKSt3__122__compressed_pair_elemImLi0ELb0EE5__getB8ue170006Ev, symObjAddr: 0x62D0, symBinAddr: 0x100006A08, symSize: 0x14 }
  - { offsetInCU: 0x19976, offset: 0x19976, size: 0x8, addend: 0x0, symName: __ZNSt3__15dequeIPN16BinarySearchTreeIiNS_4lessIiEEE4NodeENS_9allocatorIS6_EEE9push_backERKS6_, symObjAddr: 0x62E4, symBinAddr: 0x100006A1C, symSize: 0xAC }
  - { offsetInCU: 0x199BC, offset: 0x199BC, size: 0x8, addend: 0x0, symName: __ZNSt3__15dequeIPN16BinarySearchTreeIiNS_4lessIiEEE4NodeENS_9allocatorIS6_EEE7__allocB8ue170006Ev, symObjAddr: 0x6390, symBinAddr: 0x100006AC8, symSize: 0x28 }
  - { offsetInCU: 0x199E2, offset: 0x199E2, size: 0x8, addend: 0x0, symName: __ZNKSt3__15dequeIPN16BinarySearchTreeIiNS_4lessIiEEE4NodeENS_9allocatorIS6_EEE12__back_spareB8ue170006Ev, symObjAddr: 0x63B8, symBinAddr: 0x100006AF0, symSize: 0x54 }
  - { offsetInCU: 0x19A08, offset: 0x19A08, size: 0x8, addend: 0x0, symName: __ZNSt3__15dequeIPN16BinarySearchTreeIiNS_4lessIiEEE4NodeENS_9allocatorIS6_EEE19__add_back_capacityEv, symObjAddr: 0x640C, symBinAddr: 0x100006B44, symSize: 0x34C }
  - { offsetInCU: 0x19ABD, offset: 0x19ABD, size: 0x8, addend: 0x0, symName: __ZNKSt3__15dequeIPN16BinarySearchTreeIiNS_4lessIiEEE4NodeENS_9allocatorIS6_EEE24__annotate_increase_backB8ue170006Em, symObjAddr: 0x6758, symBinAddr: 0x100006E90, symSize: 0x7C }
  - { offsetInCU: 0x19AF2, offset: 0x19AF2, size: 0x8, addend: 0x0, symName: __ZNSt3__116allocator_traitsINS_9allocatorIPN16BinarySearchTreeIiNS_4lessIiEEE4NodeEEEE9constructB8ue170006IS7_JRKS7_EvEEvRS8_PT_DpOT0_, symObjAddr: 0x67D4, symBinAddr: 0x100006F0C, symSize: 0x34 }
  - { offsetInCU: 0x19B49, offset: 0x19B49, size: 0x8, addend: 0x0, symName: __ZNSt3__15dequeIPN16BinarySearchTreeIiNS_4lessIiEEE4NodeENS_9allocatorIS6_EEE3endB8ue170006Ev, symObjAddr: 0x6808, symBinAddr: 0x100006F40, symSize: 0xCC }
  - { offsetInCU: 0x19B8D, offset: 0x19B8D, size: 0x8, addend: 0x0, symName: __ZNKSt3__116__deque_iteratorIPN16BinarySearchTreeIiNS_4lessIiEEE4NodeEPS6_RS6_PS7_lLl512EEdeB8ue170006Ev, symObjAddr: 0x68D4, symBinAddr: 0x10000700C, symSize: 0x18 }
  - { offsetInCU: 0x19BB3, offset: 0x19BB3, size: 0x8, addend: 0x0, symName: __ZNSt3__15dequeIPN16BinarySearchTreeIiNS_4lessIiEEE4NodeENS_9allocatorIS6_EEE6__sizeB8ue170006Ev, symObjAddr: 0x68EC, symBinAddr: 0x100007024, symSize: 0x28 }
  - { offsetInCU: 0x19BD9, offset: 0x19BD9, size: 0x8, addend: 0x0, symName: __ZNSt3__117__compressed_pairImNS_9allocatorIPN16BinarySearchTreeIiNS_4lessIiEEE4NodeEEEE6secondB8ue170006Ev, symObjAddr: 0x6914, symBinAddr: 0x10000704C, symSize: 0x24 }
  - { offsetInCU: 0x19BFF, offset: 0x19BFF, size: 0x8, addend: 0x0, symName: __ZNSt3__122__compressed_pair_elemINS_9allocatorIPN16BinarySearchTreeIiNS_4lessIiEEE4NodeEEELi1ELb1EE5__getB8ue170006Ev, symObjAddr: 0x6938, symBinAddr: 0x100007070, symSize: 0x14 }
  - { offsetInCU: 0x19C25, offset: 0x19C25, size: 0x8, addend: 0x0, symName: __ZNKSt3__15dequeIPN16BinarySearchTreeIiNS_4lessIiEEE4NodeENS_9allocatorIS6_EEE10__capacityB8ue170006Ev, symObjAddr: 0x694C, symBinAddr: 0x100007084, symSize: 0x60 }
  - { offsetInCU: 0x19C4B, offset: 0x19C4B, size: 0x8, addend: 0x0, symName: __ZNKSt3__15dequeIPN16BinarySearchTreeIiNS_4lessIiEEE4NodeENS_9allocatorIS6_EEE13__front_spareB8ue170006Ev, symObjAddr: 0x69AC, symBinAddr: 0x1000070E4, symSize: 0x18 }
  - { offsetInCU: 0x19C71, offset: 0x19C71, size: 0x8, addend: 0x0, symName: __ZNSt3__114__split_bufferIPPN16BinarySearchTreeIiNS_4lessIiEEE4NodeENS_9allocatorIS7_EEE5frontB8ue170006Ev, symObjAddr: 0x69C4, symBinAddr: 0x1000070FC, symSize: 0x18 }
  - { offsetInCU: 0x19C97, offset: 0x19C97, size: 0x8, addend: 0x0, symName: __ZNSt3__114__split_bufferIPPN16BinarySearchTreeIiNS_4lessIiEEE4NodeENS_9allocatorIS7_EEE9pop_frontB8ue170006Ev, symObjAddr: 0x69DC, symBinAddr: 0x100007114, symSize: 0x2C }
  - { offsetInCU: 0x19CBD, offset: 0x19CBD, size: 0x8, addend: 0x0, symName: __ZNSt3__114__split_bufferIPPN16BinarySearchTreeIiNS_4lessIiEEE4NodeENS_9allocatorIS7_EEE9push_backB8ue170006ERKS7_, symObjAddr: 0x6A08, symBinAddr: 0x100007140, symSize: 0x260 }
  - { offsetInCU: 0x19D35, offset: 0x19D35, size: 0x8, addend: 0x0, symName: __ZNKSt3__114__split_bufferIPPN16BinarySearchTreeIiNS_4lessIiEEE4NodeENS_9allocatorIS7_EEE8capacityB8ue170006Ev, symObjAddr: 0x6C68, symBinAddr: 0x1000073A0, symSize: 0x40 }
  - { offsetInCU: 0x19D5B, offset: 0x19D5B, size: 0x8, addend: 0x0, symName: __ZNKSt3__114__split_bufferIPPN16BinarySearchTreeIiNS_4lessIiEEE4NodeENS_9allocatorIS7_EEE12__back_spareB8ue170006Ev, symObjAddr: 0x6CA8, symBinAddr: 0x1000073E0, symSize: 0x40 }
  - { offsetInCU: 0x19D81, offset: 0x19D81, size: 0x8, addend: 0x0, symName: __ZNSt3__114__split_bufferIPPN16BinarySearchTreeIiNS_4lessIiEEE4NodeENS_9allocatorIS7_EEE9push_backEOS7_, symObjAddr: 0x6CE8, symBinAddr: 0x100007420, symSize: 0x260 }
  - { offsetInCU: 0x19DF9, offset: 0x19DF9, size: 0x8, addend: 0x0, symName: __ZNSt3__116allocator_traitsINS_9allocatorIPN16BinarySearchTreeIiNS_4lessIiEEE4NodeEEEE8allocateB8ue170006ERS8_m, symObjAddr: 0x6F48, symBinAddr: 0x100007680, symSize: 0x2C }
  - { offsetInCU: 0x19E2C, offset: 0x19E2C, size: 0x8, addend: 0x0, symName: __ZNSt3__114__split_bufferIPPN16BinarySearchTreeIiNS_4lessIiEEE4NodeENS_9allocatorIS7_EEE10push_frontEOS7_, symObjAddr: 0x6F74, symBinAddr: 0x1000076AC, symSize: 0x25C }
  - { offsetInCU: 0x19EA4, offset: 0x19EA4, size: 0x8, addend: 0x0, symName: __ZNKSt3__15dequeIPN16BinarySearchTreeIiNS_4lessIiEEE4NodeENS_9allocatorIS6_EEE22__annotate_whole_blockB8ue170006EmNS9_22__asan_annotation_typeE, symObjAddr: 0x71D0, symBinAddr: 0x100007908, symSize: 0xAC }
  - { offsetInCU: 0x19F15, offset: 0x19F15, size: 0x8, addend: 0x0, symName: __ZNSt3__114__split_bufferIPPN16BinarySearchTreeIiNS_4lessIiEEE4NodeENS_9allocatorIS7_EEE7__allocB8ue170006Ev, symObjAddr: 0x72A8, symBinAddr: 0x1000079E0, symSize: 0x28 }
  - { offsetInCU: 0x19F3B, offset: 0x19F3B, size: 0x8, addend: 0x0, symName: __ZNSt3__114__split_bufferIPPN16BinarySearchTreeIiNS_4lessIiEEE4NodeERNS_9allocatorIS7_EEEC1EmmSA_, symObjAddr: 0x72D0, symBinAddr: 0x100007A08, symSize: 0x44 }
  - { offsetInCU: 0x19F96, offset: 0x19F96, size: 0x8, addend: 0x0, symName: __ZNSt3__122__allocator_destructorINS_9allocatorIPN16BinarySearchTreeIiNS_4lessIiEEE4NodeEEEEC1B8ue170006ERS8_m, symObjAddr: 0x7314, symBinAddr: 0x100007A4C, symSize: 0x3C }
  - { offsetInCU: 0x1A05B, offset: 0x1A05B, size: 0x8, addend: 0x0, symName: __ZNSt3__110unique_ptrIPPN16BinarySearchTreeIiNS_4lessIiEEE4NodeENS_22__allocator_destructorINS_9allocatorIS6_EEEEEC1B8ue170006ILb1EvEES7_NS_16__dependent_typeINS_27__unique_ptr_deleter_sfinaeISB_EEXT_EE20__good_rval_ref_typeE, symObjAddr: 0x7350, symBinAddr: 0x100007A88, symSize: 0x3C }
  - { offsetInCU: 0x1A0AC, offset: 0x1A0AC, size: 0x8, addend: 0x0, symName: __ZNSt3__114__split_bufferIPPN16BinarySearchTreeIiNS_4lessIiEEE4NodeERNS_9allocatorIS7_EEE9push_backEOS7_, symObjAddr: 0x738C, symBinAddr: 0x100007AC4, symSize: 0x260 }
  - { offsetInCU: 0x1A124, offset: 0x1A124, size: 0x8, addend: 0x0, symName: __ZNKSt3__110unique_ptrIPPN16BinarySearchTreeIiNS_4lessIiEEE4NodeENS_22__allocator_destructorINS_9allocatorIS6_EEEEE3getB8ue170006Ev, symObjAddr: 0x75EC, symBinAddr: 0x100007D24, symSize: 0x28 }
  - { offsetInCU: 0x1A14A, offset: 0x1A14A, size: 0x8, addend: 0x0, symName: __ZNSt3__110unique_ptrIPPN16BinarySearchTreeIiNS_4lessIiEEE4NodeENS_22__allocator_destructorINS_9allocatorIS6_EEEEE7releaseB8ue170006Ev, symObjAddr: 0x7614, symBinAddr: 0x100007D4C, symSize: 0x44 }
  - { offsetInCU: 0x1A17F, offset: 0x1A17F, size: 0x8, addend: 0x0, symName: __ZNSt3__114__split_bufferIPPN16BinarySearchTreeIiNS_4lessIiEEE4NodeENS_9allocatorIS7_EEE3endB8ue170006Ev, symObjAddr: 0x7658, symBinAddr: 0x100007D90, symSize: 0x18 }
  - { offsetInCU: 0x1A1A5, offset: 0x1A1A5, size: 0x8, addend: 0x0, symName: __ZNSt3__114__split_bufferIPPN16BinarySearchTreeIiNS_4lessIiEEE4NodeENS_9allocatorIS7_EEE5beginB8ue170006Ev, symObjAddr: 0x7670, symBinAddr: 0x100007DA8, symSize: 0x18 }
  - { offsetInCU: 0x1A1CB, offset: 0x1A1CB, size: 0x8, addend: 0x0, symName: __ZNSt3__114__split_bufferIPPN16BinarySearchTreeIiNS_4lessIiEEE4NodeERNS_9allocatorIS7_EEE10push_frontERKS7_, symObjAddr: 0x7688, symBinAddr: 0x100007DC0, symSize: 0x25C }
  - { offsetInCU: 0x1A243, offset: 0x1A243, size: 0x8, addend: 0x0, symName: __ZNSt3__114__split_bufferIPPN16BinarySearchTreeIiNS_4lessIiEEE4NodeENS_9allocatorIS7_EEE9__end_capB8ue170006Ev, symObjAddr: 0x7920, symBinAddr: 0x100008058, symSize: 0x28 }
  - { offsetInCU: 0x1A269, offset: 0x1A269, size: 0x8, addend: 0x0, symName: __ZNSt3__114__split_bufferIPPN16BinarySearchTreeIiNS_4lessIiEEE4NodeERNS_9allocatorIS7_EEE9__end_capB8ue170006Ev, symObjAddr: 0x7948, symBinAddr: 0x100008080, symSize: 0x28 }
  - { offsetInCU: 0x1A28F, offset: 0x1A28F, size: 0x8, addend: 0x0, symName: __ZNSt3__110unique_ptrIPPN16BinarySearchTreeIiNS_4lessIiEEE4NodeENS_22__allocator_destructorINS_9allocatorIS6_EEEEED1B8ue170006Ev, symObjAddr: 0x7970, symBinAddr: 0x1000080A8, symSize: 0x2C }
  - { offsetInCU: 0x1A2B9, offset: 0x1A2B9, size: 0x8, addend: 0x0, symName: __ZNSt3__114__split_bufferIPPN16BinarySearchTreeIiNS_4lessIiEEE4NodeERNS_9allocatorIS7_EEED1Ev, symObjAddr: 0x799C, symBinAddr: 0x1000080D4, symSize: 0x2C }
  - { offsetInCU: 0x1A2E5, offset: 0x1A2E5, size: 0x8, addend: 0x0, symName: __ZNSt3__114__split_bufferIPPN16BinarySearchTreeIiNS_4lessIiEEE4NodeENS_9allocatorIS7_EEE19__destruct_at_beginB8ue170006EPS7_, symObjAddr: 0x79C8, symBinAddr: 0x100008100, symSize: 0x2C }
  - { offsetInCU: 0x1A319, offset: 0x1A319, size: 0x8, addend: 0x0, symName: __ZNSt3__114__split_bufferIPPN16BinarySearchTreeIiNS_4lessIiEEE4NodeENS_9allocatorIS7_EEE19__destruct_at_beginEPS7_NS_17integral_constantIbLb1EEE, symObjAddr: 0x79F4, symBinAddr: 0x10000812C, symSize: 0x20 }
  - { offsetInCU: 0x1A359, offset: 0x1A359, size: 0x8, addend: 0x0, symName: __ZNSt3__114__split_bufferIPPN16BinarySearchTreeIiNS_4lessIiEEE4NodeERNS_9allocatorIS7_EEE18__construct_at_endINS_13move_iteratorIPS7_EEEENS_9enable_ifIXsr31__has_forward_iterator_categoryIT_EE5valueEvE4typeESH_SH_, symObjAddr: 0x7A54, symBinAddr: 0x10000818C, symSize: 0x60 }
  - { offsetInCU: 0x1A3A6, offset: 0x1A3A6, size: 0x8, addend: 0x0, symName: __ZNSt3__113move_iteratorIPPPN16BinarySearchTreeIiNS_4lessIiEEE4NodeEEC1B8ue170006ES8_, symObjAddr: 0x7AB4, symBinAddr: 0x1000081EC, symSize: 0x34 }
  - { offsetInCU: 0x1A3DE, offset: 0x1A3DE, size: 0x8, addend: 0x0, symName: __ZNSt3__116allocator_traitsINS_9allocatorIPPN16BinarySearchTreeIiNS_4lessIiEEE4NodeEEEE9constructB8ue170006IS8_JRKS8_EvEEvRS9_PT_DpOT0_, symObjAddr: 0x7AE8, symBinAddr: 0x100008220, symSize: 0x34 }
  - { offsetInCU: 0x1A459, offset: 0x1A459, size: 0x8, addend: 0x0, symName: __ZNKSt3__114__move_trivialclB8ue170006IPPN16BinarySearchTreeIiNS_4lessIiEEE4NodeES8_Li0EEENS_4pairIPT_PT0_EESB_SB_SD_, symObjAddr: 0x7CCC, symBinAddr: 0x100008404, symSize: 0x48 }
  - { offsetInCU: 0x1A4C7, offset: 0x1A4C7, size: 0x8, addend: 0x0, symName: __ZNSt3__14pairIPPPN16BinarySearchTreeIiNS_4lessIiEEE4NodeES8_EC1B8ue170006IRS8_S8_LPv0EEEOT_OT0_, symObjAddr: 0x7EF4, symBinAddr: 0x10000862C, symSize: 0x3C }
  - { offsetInCU: 0x1A525, offset: 0x1A525, size: 0x8, addend: 0x0, symName: __ZNSt3__14pairIPPPN16BinarySearchTreeIiNS_4lessIiEEE4NodeES8_EC2B8ue170006IRS8_S8_LPv0EEEOT_OT0_, symObjAddr: 0x7F30, symBinAddr: 0x100008668, symSize: 0x34 }
  - { offsetInCU: 0x1A583, offset: 0x1A583, size: 0x8, addend: 0x0, symName: __ZNSt3__118__unwrap_iter_implIPPPN16BinarySearchTreeIiNS_4lessIiEEE4NodeELb1EE8__unwrapB8ue170006ES8_, symObjAddr: 0x7F64, symBinAddr: 0x10000869C, symSize: 0x24 }
  - { offsetInCU: 0x1A5A6, offset: 0x1A5A6, size: 0x8, addend: 0x0, symName: __ZNSt3__14pairIPPPN16BinarySearchTreeIiNS_4lessIiEEE4NodeES8_EC1B8ue170006IS8_S8_LPv0EEEOT_OT0_, symObjAddr: 0x7F88, symBinAddr: 0x1000086C0, symSize: 0x3C }
  - { offsetInCU: 0x1A604, offset: 0x1A604, size: 0x8, addend: 0x0, symName: __ZNSt3__14pairIPPPN16BinarySearchTreeIiNS_4lessIiEEE4NodeES8_EC2B8ue170006IS8_S8_LPv0EEEOT_OT0_, symObjAddr: 0x7FC4, symBinAddr: 0x1000086FC, symSize: 0x34 }
  - { offsetInCU: 0x1A662, offset: 0x1A662, size: 0x8, addend: 0x0, symName: __ZNSt3__118__unwrap_iter_implIPPPN16BinarySearchTreeIiNS_4lessIiEEE4NodeELb1EE8__rewrapB8ue170006ES8_S8_, symObjAddr: 0x7FF8, symBinAddr: 0x100008730, symSize: 0x50 }
  - { offsetInCU: 0x1A693, offset: 0x1A693, size: 0x8, addend: 0x0, symName: __ZNSt3__114__split_bufferIPPN16BinarySearchTreeIiNS_4lessIiEEE4NodeERNS_9allocatorIS7_EEE28__construct_at_end_with_sizeINS_13move_iteratorIPS7_EEEEvT_m, symObjAddr: 0x8048, symBinAddr: 0x100008780, symSize: 0xDC }
  - { offsetInCU: 0x1A6F9, offset: 0x1A6F9, size: 0x8, addend: 0x0, symName: __ZNSt3__114__split_bufferIPPN16BinarySearchTreeIiNS_4lessIiEEE4NodeERNS_9allocatorIS7_EEE21_ConstructTransactionC1B8ue170006EPPS7_m, symObjAddr: 0x8160, symBinAddr: 0x100008898, symSize: 0x3C }
  - { offsetInCU: 0x1A73F, offset: 0x1A73F, size: 0x8, addend: 0x0, symName: __ZNSt3__116allocator_traitsINS_9allocatorIPPN16BinarySearchTreeIiNS_4lessIiEEE4NodeEEEE9constructB8ue170006IS8_JS8_EvEEvRS9_PT_DpOT0_, symObjAddr: 0x819C, symBinAddr: 0x1000088D4, symSize: 0x34 }
  - { offsetInCU: 0x1A796, offset: 0x1A796, size: 0x8, addend: 0x0, symName: __ZNSt3__114__split_bufferIPPN16BinarySearchTreeIiNS_4lessIiEEE4NodeERNS_9allocatorIS7_EEE7__allocB8ue170006Ev, symObjAddr: 0x81D0, symBinAddr: 0x100008908, symSize: 0x28 }
  - { offsetInCU: 0x1A7BC, offset: 0x1A7BC, size: 0x8, addend: 0x0, symName: __ZNKSt3__113move_iteratorIPPPN16BinarySearchTreeIiNS_4lessIiEEE4NodeEEdeB8ue170006Ev, symObjAddr: 0x81F8, symBinAddr: 0x100008930, symSize: 0x18 }
  - { offsetInCU: 0x1A7E2, offset: 0x1A7E2, size: 0x8, addend: 0x0, symName: __ZNSt3__113move_iteratorIPPPN16BinarySearchTreeIiNS_4lessIiEEE4NodeEEppB8ue170006Ev, symObjAddr: 0x8210, symBinAddr: 0x100008948, symSize: 0x20 }
  - { offsetInCU: 0x1A808, offset: 0x1A808, size: 0x8, addend: 0x0, symName: __ZNSt3__114__split_bufferIPPN16BinarySearchTreeIiNS_4lessIiEEE4NodeERNS_9allocatorIS7_EEE21_ConstructTransactionD1B8ue170006Ev, symObjAddr: 0x8230, symBinAddr: 0x100008968, symSize: 0x2C }
  - { offsetInCU: 0x1A832, offset: 0x1A832, size: 0x8, addend: 0x0, symName: __ZNSt3__114__split_bufferIPPN16BinarySearchTreeIiNS_4lessIiEEE4NodeERNS_9allocatorIS7_EEE21_ConstructTransactionC2B8ue170006EPPS7_m, symObjAddr: 0x825C, symBinAddr: 0x100008994, symSize: 0x44 }
  - { offsetInCU: 0x1A878, offset: 0x1A878, size: 0x8, addend: 0x0, symName: __ZNSt3__19allocatorIPPN16BinarySearchTreeIiNS_4lessIiEEE4NodeEE9constructB8ue170006IS7_JS7_EEEvPT_DpOT0_, symObjAddr: 0x82A0, symBinAddr: 0x1000089D8, symSize: 0x28 }
  - { offsetInCU: 0x1A8CE, offset: 0x1A8CE, size: 0x8, addend: 0x0, symName: __ZNSt3__117__compressed_pairIPPPN16BinarySearchTreeIiNS_4lessIiEEE4NodeERNS_9allocatorIS7_EEE6secondB8ue170006Ev, symObjAddr: 0x82C8, symBinAddr: 0x100008A00, symSize: 0x28 }
  - { offsetInCU: 0x1A8F4, offset: 0x1A8F4, size: 0x8, addend: 0x0, symName: __ZNSt3__122__compressed_pair_elemIRNS_9allocatorIPPN16BinarySearchTreeIiNS_4lessIiEEE4NodeEEELi1ELb0EE5__getB8ue170006Ev, symObjAddr: 0x82F0, symBinAddr: 0x100008A28, symSize: 0x18 }
  - { offsetInCU: 0x1A91A, offset: 0x1A91A, size: 0x8, addend: 0x0, symName: __ZNSt3__114__split_bufferIPPN16BinarySearchTreeIiNS_4lessIiEEE4NodeERNS_9allocatorIS7_EEE21_ConstructTransactionD2B8ue170006Ev, symObjAddr: 0x8308, symBinAddr: 0x100008A40, symSize: 0x20 }
  - { offsetInCU: 0x1A944, offset: 0x1A944, size: 0x8, addend: 0x0, symName: __ZNKSt3__113move_iteratorIPPPN16BinarySearchTreeIiNS_4lessIiEEE4NodeEE4baseB8ue170006Ev, symObjAddr: 0x83A0, symBinAddr: 0x100008AD8, symSize: 0x18 }
  - { offsetInCU: 0x1A96A, offset: 0x1A96A, size: 0x8, addend: 0x0, symName: __ZNSt3__113move_iteratorIPPPN16BinarySearchTreeIiNS_4lessIiEEE4NodeEEC2B8ue170006ES8_, symObjAddr: 0x83B8, symBinAddr: 0x100008AF0, symSize: 0x20 }
  - { offsetInCU: 0x1A9A2, offset: 0x1A9A2, size: 0x8, addend: 0x0, symName: __ZNSt3__19allocatorIPPN16BinarySearchTreeIiNS_4lessIiEEE4NodeEE9constructB8ue170006IS7_JRKS7_EEEvPT_DpOT0_, symObjAddr: 0x83D8, symBinAddr: 0x100008B10, symSize: 0x28 }
  - { offsetInCU: 0x1A9F8, offset: 0x1A9F8, size: 0x8, addend: 0x0, symName: __ZNKSt3__114__split_bufferIPPN16BinarySearchTreeIiNS_4lessIiEEE4NodeENS_9allocatorIS7_EEE9__end_capB8ue170006Ev, symObjAddr: 0x8400, symBinAddr: 0x100008B38, symSize: 0x28 }
  - { offsetInCU: 0x1AA1E, offset: 0x1AA1E, size: 0x8, addend: 0x0, symName: __ZNKSt3__117__compressed_pairIPPPN16BinarySearchTreeIiNS_4lessIiEEE4NodeENS_9allocatorIS7_EEE5firstB8ue170006Ev, symObjAddr: 0x8428, symBinAddr: 0x100008B60, symSize: 0x24 }
  - { offsetInCU: 0x1AA44, offset: 0x1AA44, size: 0x8, addend: 0x0, symName: __ZNKSt3__122__compressed_pair_elemIPPPN16BinarySearchTreeIiNS_4lessIiEEE4NodeELi0ELb0EE5__getB8ue170006Ev, symObjAddr: 0x844C, symBinAddr: 0x100008B84, symSize: 0x14 }
  - { offsetInCU: 0x1AA6A, offset: 0x1AA6A, size: 0x8, addend: 0x0, symName: __ZNSt3__19allocatorIPN16BinarySearchTreeIiNS_4lessIiEEE4NodeEE8allocateB8ue170006Em, symObjAddr: 0x8460, symBinAddr: 0x100008B98, symSize: 0x58 }
  - { offsetInCU: 0x1AAA8, offset: 0x1AAA8, size: 0x8, addend: 0x0, symName: __ZNSt3__116allocator_traitsINS_9allocatorIPN16BinarySearchTreeIiNS_4lessIiEEE4NodeEEEE8max_sizeB8ue170006IS8_vEEmRKS8_, symObjAddr: 0x84B8, symBinAddr: 0x100008BF0, symSize: 0x24 }
  - { offsetInCU: 0x1AAD6, offset: 0x1AAD6, size: 0x8, addend: 0x0, symName: __ZNKSt3__19allocatorIPN16BinarySearchTreeIiNS_4lessIiEEE4NodeEE8max_sizeB8ue170006Ev, symObjAddr: 0x84DC, symBinAddr: 0x100008C14, symSize: 0x14 }
  - { offsetInCU: 0x1AB06, offset: 0x1AB06, size: 0x8, addend: 0x0, symName: __ZNKSt3__123__move_backward_trivialclB8ue170006IPPN16BinarySearchTreeIiNS_4lessIiEEE4NodeES8_Li0EEENS_4pairIPT_PT0_EESB_SB_SD_, symObjAddr: 0x866C, symBinAddr: 0x100008DA4, symSize: 0x48 }
  - { offsetInCU: 0x1AB6E, offset: 0x1AB6E, size: 0x8, addend: 0x0, symName: __ZNSt3__14pairIPPPN16BinarySearchTreeIiNS_4lessIiEEE4NodeES8_EC1B8ue170006IRS8_SB_LPv0EEEOT_OT0_, symObjAddr: 0x877C, symBinAddr: 0x100008EB4, symSize: 0x3C }
  - { offsetInCU: 0x1ABCC, offset: 0x1ABCC, size: 0x8, addend: 0x0, symName: __ZNSt3__14pairIPPPN16BinarySearchTreeIiNS_4lessIiEEE4NodeES8_EC2B8ue170006IRS8_SB_LPv0EEEOT_OT0_, symObjAddr: 0x87B8, symBinAddr: 0x100008EF0, symSize: 0x34 }
  - { offsetInCU: 0x1AC2A, offset: 0x1AC2A, size: 0x8, addend: 0x0, symName: __ZNKSt3__15dequeIPN16BinarySearchTreeIiNS_4lessIiEEE4NodeENS_9allocatorIS6_EEE23__annotate_poison_blockB8ue170006EPKvSB_, symObjAddr: 0x87EC, symBinAddr: 0x100008F24, symSize: 0x44 }
  - { offsetInCU: 0x1AC6E, offset: 0x1AC6E, size: 0x8, addend: 0x0, symName: __ZNSt3__117__compressed_pairIPPPN16BinarySearchTreeIiNS_4lessIiEEE4NodeENS_9allocatorIS7_EEE6secondB8ue170006Ev, symObjAddr: 0x8884, symBinAddr: 0x100008FBC, symSize: 0x24 }
  - { offsetInCU: 0x1AC94, offset: 0x1AC94, size: 0x8, addend: 0x0, symName: __ZNSt3__122__compressed_pair_elemINS_9allocatorIPPN16BinarySearchTreeIiNS_4lessIiEEE4NodeEEELi1ELb1EE5__getB8ue170006Ev, symObjAddr: 0x88A8, symBinAddr: 0x100008FE0, symSize: 0x14 }
  - { offsetInCU: 0x1ACBA, offset: 0x1ACBA, size: 0x8, addend: 0x0, symName: __ZNSt3__114__split_bufferIPPN16BinarySearchTreeIiNS_4lessIiEEE4NodeERNS_9allocatorIS7_EEEC2EmmSA_, symObjAddr: 0x88BC, symBinAddr: 0x100008FF4, symSize: 0xD4 }
  - { offsetInCU: 0x1AD2D, offset: 0x1AD2D, size: 0x8, addend: 0x0, symName: __ZNSt3__117__compressed_pairIPPPN16BinarySearchTreeIiNS_4lessIiEEE4NodeERNS_9allocatorIS7_EEEC1B8ue170006IDnSB_EEOT_OT0_, symObjAddr: 0x8990, symBinAddr: 0x1000090C8, symSize: 0x3C }
  - { offsetInCU: 0x1AD85, offset: 0x1AD85, size: 0x8, addend: 0x0, symName: __ZNSt3__117__compressed_pairIPPPN16BinarySearchTreeIiNS_4lessIiEEE4NodeERNS_9allocatorIS7_EEEC2B8ue170006IDnSB_EEOT_OT0_, symObjAddr: 0x8A0C, symBinAddr: 0x100009144, symSize: 0x48 }
  - { offsetInCU: 0x1ADDD, offset: 0x1ADDD, size: 0x8, addend: 0x0, symName: __ZNSt3__122__compressed_pair_elemIRNS_9allocatorIPPN16BinarySearchTreeIiNS_4lessIiEEE4NodeEEELi1ELb0EEC2B8ue170006ISA_vEEOT_, symObjAddr: 0x8A54, symBinAddr: 0x10000918C, symSize: 0x20 }
  - { offsetInCU: 0x1AE1F, offset: 0x1AE1F, size: 0x8, addend: 0x0, symName: __ZNSt3__19allocatorIPPN16BinarySearchTreeIiNS_4lessIiEEE4NodeEE8allocateB8ue170006Em, symObjAddr: 0x8A74, symBinAddr: 0x1000091AC, symSize: 0x58 }
  - { offsetInCU: 0x1AE5D, offset: 0x1AE5D, size: 0x8, addend: 0x0, symName: __ZNSt3__116allocator_traitsINS_9allocatorIPPN16BinarySearchTreeIiNS_4lessIiEEE4NodeEEEE8max_sizeB8ue170006IS9_vEEmRKS9_, symObjAddr: 0x8ACC, symBinAddr: 0x100009204, symSize: 0x24 }
  - { offsetInCU: 0x1AE8B, offset: 0x1AE8B, size: 0x8, addend: 0x0, symName: __ZNKSt3__19allocatorIPPN16BinarySearchTreeIiNS_4lessIiEEE4NodeEE8max_sizeB8ue170006Ev, symObjAddr: 0x8AF0, symBinAddr: 0x100009228, symSize: 0x14 }
  - { offsetInCU: 0x1AEB1, offset: 0x1AEB1, size: 0x8, addend: 0x0, symName: __ZNSt3__122__allocator_destructorINS_9allocatorIPN16BinarySearchTreeIiNS_4lessIiEEE4NodeEEEEC2B8ue170006ERS8_m, symObjAddr: 0x8B04, symBinAddr: 0x10000923C, symSize: 0x2C }
  - { offsetInCU: 0x1AEF7, offset: 0x1AEF7, size: 0x8, addend: 0x0, symName: __ZNSt3__110unique_ptrIPPN16BinarySearchTreeIiNS_4lessIiEEE4NodeENS_22__allocator_destructorINS_9allocatorIS6_EEEEEC2B8ue170006ILb1EvEES7_NS_16__dependent_typeINS_27__unique_ptr_deleter_sfinaeISB_EEXT_EE20__good_rval_ref_typeE, symObjAddr: 0x8B30, symBinAddr: 0x100009268, symSize: 0x48 }
  - { offsetInCU: 0x1AF48, offset: 0x1AF48, size: 0x8, addend: 0x0, symName: __ZNSt3__117__compressed_pairIPPN16BinarySearchTreeIiNS_4lessIiEEE4NodeENS_22__allocator_destructorINS_9allocatorIS6_EEEEEC1B8ue170006IRS7_SB_EEOT_OT0_, symObjAddr: 0x8B78, symBinAddr: 0x1000092B0, symSize: 0x3C }
  - { offsetInCU: 0x1AFA0, offset: 0x1AFA0, size: 0x8, addend: 0x0, symName: __ZNSt3__117__compressed_pairIPPN16BinarySearchTreeIiNS_4lessIiEEE4NodeENS_22__allocator_destructorINS_9allocatorIS6_EEEEEC2B8ue170006IRS7_SB_EEOT_OT0_, symObjAddr: 0x8BB4, symBinAddr: 0x1000092EC, symSize: 0x48 }
  - { offsetInCU: 0x1AFF8, offset: 0x1AFF8, size: 0x8, addend: 0x0, symName: __ZNSt3__122__compressed_pair_elemIPPN16BinarySearchTreeIiNS_4lessIiEEE4NodeELi0ELb0EEC2B8ue170006IRS7_vEEOT_, symObjAddr: 0x8BFC, symBinAddr: 0x100009334, symSize: 0x24 }
  - { offsetInCU: 0x1B03A, offset: 0x1B03A, size: 0x8, addend: 0x0, symName: __ZNSt3__122__compressed_pair_elemINS_22__allocator_destructorINS_9allocatorIPN16BinarySearchTreeIiNS_4lessIiEEE4NodeEEEEELi1ELb0EEC2B8ue170006ISA_vEEOT_, symObjAddr: 0x8C20, symBinAddr: 0x100009358, symSize: 0x24 }
  - { offsetInCU: 0x1B07C, offset: 0x1B07C, size: 0x8, addend: 0x0, symName: __ZNKSt3__117__compressed_pairIPPN16BinarySearchTreeIiNS_4lessIiEEE4NodeENS_22__allocator_destructorINS_9allocatorIS6_EEEEE5firstB8ue170006Ev, symObjAddr: 0x8C44, symBinAddr: 0x10000937C, symSize: 0x24 }
  - { offsetInCU: 0x1B0A2, offset: 0x1B0A2, size: 0x8, addend: 0x0, symName: __ZNKSt3__122__compressed_pair_elemIPPN16BinarySearchTreeIiNS_4lessIiEEE4NodeELi0ELb0EE5__getB8ue170006Ev, symObjAddr: 0x8C68, symBinAddr: 0x1000093A0, symSize: 0x14 }
  - { offsetInCU: 0x1B0C8, offset: 0x1B0C8, size: 0x8, addend: 0x0, symName: __ZNSt3__117__compressed_pairIPPN16BinarySearchTreeIiNS_4lessIiEEE4NodeENS_22__allocator_destructorINS_9allocatorIS6_EEEEE5firstB8ue170006Ev, symObjAddr: 0x8C7C, symBinAddr: 0x1000093B4, symSize: 0x24 }
  - { offsetInCU: 0x1B0EE, offset: 0x1B0EE, size: 0x8, addend: 0x0, symName: __ZNSt3__122__compressed_pair_elemIPPN16BinarySearchTreeIiNS_4lessIiEEE4NodeELi0ELb0EE5__getB8ue170006Ev, symObjAddr: 0x8CA0, symBinAddr: 0x1000093D8, symSize: 0x14 }
  - { offsetInCU: 0x1B114, offset: 0x1B114, size: 0x8, addend: 0x0, symName: __ZNSt3__117__compressed_pairIPPPN16BinarySearchTreeIiNS_4lessIiEEE4NodeENS_9allocatorIS7_EEE5firstB8ue170006Ev, symObjAddr: 0x8CB4, symBinAddr: 0x1000093EC, symSize: 0x24 }
  - { offsetInCU: 0x1B13A, offset: 0x1B13A, size: 0x8, addend: 0x0, symName: __ZNSt3__122__compressed_pair_elemIPPPN16BinarySearchTreeIiNS_4lessIiEEE4NodeELi0ELb0EE5__getB8ue170006Ev, symObjAddr: 0x8CD8, symBinAddr: 0x100009410, symSize: 0x14 }
  - { offsetInCU: 0x1B160, offset: 0x1B160, size: 0x8, addend: 0x0, symName: __ZNSt3__117__compressed_pairIPPPN16BinarySearchTreeIiNS_4lessIiEEE4NodeERNS_9allocatorIS7_EEE5firstB8ue170006Ev, symObjAddr: 0x8CEC, symBinAddr: 0x100009424, symSize: 0x24 }
  - { offsetInCU: 0x1B186, offset: 0x1B186, size: 0x8, addend: 0x0, symName: __ZNSt3__110unique_ptrIPPN16BinarySearchTreeIiNS_4lessIiEEE4NodeENS_22__allocator_destructorINS_9allocatorIS6_EEEEED2B8ue170006Ev, symObjAddr: 0x8D10, symBinAddr: 0x100009448, symSize: 0x30 }
  - { offsetInCU: 0x1B1B0, offset: 0x1B1B0, size: 0x8, addend: 0x0, symName: __ZNSt3__110unique_ptrIPPN16BinarySearchTreeIiNS_4lessIiEEE4NodeENS_22__allocator_destructorINS_9allocatorIS6_EEEEE5resetB8ue170006ES7_, symObjAddr: 0x8D40, symBinAddr: 0x100009478, symSize: 0x78 }
  - { offsetInCU: 0x1B1F4, offset: 0x1B1F4, size: 0x8, addend: 0x0, symName: __ZNSt3__117__compressed_pairIPPN16BinarySearchTreeIiNS_4lessIiEEE4NodeENS_22__allocator_destructorINS_9allocatorIS6_EEEEE6secondB8ue170006Ev, symObjAddr: 0x8DB8, symBinAddr: 0x1000094F0, symSize: 0x28 }
  - { offsetInCU: 0x1B21A, offset: 0x1B21A, size: 0x8, addend: 0x0, symName: __ZNSt3__122__allocator_destructorINS_9allocatorIPN16BinarySearchTreeIiNS_4lessIiEEE4NodeEEEEclB8ue170006EPS7_, symObjAddr: 0x8DE0, symBinAddr: 0x100009518, symSize: 0x34 }
  - { offsetInCU: 0x1B24E, offset: 0x1B24E, size: 0x8, addend: 0x0, symName: __ZNSt3__122__compressed_pair_elemINS_22__allocator_destructorINS_9allocatorIPN16BinarySearchTreeIiNS_4lessIiEEE4NodeEEEEELi1ELb0EE5__getB8ue170006Ev, symObjAddr: 0x8E14, symBinAddr: 0x10000954C, symSize: 0x14 }
  - { offsetInCU: 0x1B274, offset: 0x1B274, size: 0x8, addend: 0x0, symName: __ZNSt3__116allocator_traitsINS_9allocatorIPN16BinarySearchTreeIiNS_4lessIiEEE4NodeEEEE10deallocateB8ue170006ERS8_PS7_m, symObjAddr: 0x8E28, symBinAddr: 0x100009560, symSize: 0x34 }
  - { offsetInCU: 0x1B2B6, offset: 0x1B2B6, size: 0x8, addend: 0x0, symName: __ZNSt3__19allocatorIPN16BinarySearchTreeIiNS_4lessIiEEE4NodeEE10deallocateB8ue170006EPS6_m, symObjAddr: 0x8E5C, symBinAddr: 0x100009594, symSize: 0x40 }
  - { offsetInCU: 0x1B2F8, offset: 0x1B2F8, size: 0x8, addend: 0x0, symName: __ZNSt3__114__split_bufferIPPN16BinarySearchTreeIiNS_4lessIiEEE4NodeERNS_9allocatorIS7_EEED2Ev, symObjAddr: 0x8E9C, symBinAddr: 0x1000095D4, symSize: 0x8C }
  - { offsetInCU: 0x1B324, offset: 0x1B324, size: 0x8, addend: 0x0, symName: __ZNSt3__114__split_bufferIPPN16BinarySearchTreeIiNS_4lessIiEEE4NodeERNS_9allocatorIS7_EEE5clearB8ue170006Ev, symObjAddr: 0x8F28, symBinAddr: 0x100009660, symSize: 0x28 }
  - { offsetInCU: 0x1B34A, offset: 0x1B34A, size: 0x8, addend: 0x0, symName: __ZNSt3__116allocator_traitsINS_9allocatorIPPN16BinarySearchTreeIiNS_4lessIiEEE4NodeEEEE10deallocateB8ue170006ERS9_PS8_m, symObjAddr: 0x8F50, symBinAddr: 0x100009688, symSize: 0x34 }
  - { offsetInCU: 0x1B38C, offset: 0x1B38C, size: 0x8, addend: 0x0, symName: __ZNKSt3__114__split_bufferIPPN16BinarySearchTreeIiNS_4lessIiEEE4NodeERNS_9allocatorIS7_EEE8capacityB8ue170006Ev, symObjAddr: 0x8F84, symBinAddr: 0x1000096BC, symSize: 0x40 }
  - { offsetInCU: 0x1B3B2, offset: 0x1B3B2, size: 0x8, addend: 0x0, symName: __ZNSt3__114__split_bufferIPPN16BinarySearchTreeIiNS_4lessIiEEE4NodeERNS_9allocatorIS7_EEE17__destruct_at_endB8ue170006EPS7_, symObjAddr: 0x8FC4, symBinAddr: 0x1000096FC, symSize: 0x2C }
  - { offsetInCU: 0x1B3E6, offset: 0x1B3E6, size: 0x8, addend: 0x0, symName: __ZNSt3__114__split_bufferIPPN16BinarySearchTreeIiNS_4lessIiEEE4NodeERNS_9allocatorIS7_EEE17__destruct_at_endB8ue170006EPS7_NS_17integral_constantIbLb0EEE, symObjAddr: 0x8FF0, symBinAddr: 0x100009728, symSize: 0x80 }
  - { offsetInCU: 0x1B426, offset: 0x1B426, size: 0x8, addend: 0x0, symName: __ZNSt3__116allocator_traitsINS_9allocatorIPPN16BinarySearchTreeIiNS_4lessIiEEE4NodeEEEE7destroyB8ue170006IS8_vEEvRS9_PT_, symObjAddr: 0x9070, symBinAddr: 0x1000097A8, symSize: 0x2C }
  - { offsetInCU: 0x1B463, offset: 0x1B463, size: 0x8, addend: 0x0, symName: __ZNSt3__19allocatorIPPN16BinarySearchTreeIiNS_4lessIiEEE4NodeEE7destroyB8ue170006EPS7_, symObjAddr: 0x909C, symBinAddr: 0x1000097D4, symSize: 0x14 }
  - { offsetInCU: 0x1B497, offset: 0x1B497, size: 0x8, addend: 0x0, symName: __ZNSt3__19allocatorIPPN16BinarySearchTreeIiNS_4lessIiEEE4NodeEE10deallocateB8ue170006EPS7_m, symObjAddr: 0x90B0, symBinAddr: 0x1000097E8, symSize: 0x40 }
  - { offsetInCU: 0x1B4D9, offset: 0x1B4D9, size: 0x8, addend: 0x0, symName: __ZNKSt3__114__split_bufferIPPN16BinarySearchTreeIiNS_4lessIiEEE4NodeERNS_9allocatorIS7_EEE9__end_capB8ue170006Ev, symObjAddr: 0x90F0, symBinAddr: 0x100009828, symSize: 0x28 }
  - { offsetInCU: 0x1B4FF, offset: 0x1B4FF, size: 0x8, addend: 0x0, symName: __ZNKSt3__117__compressed_pairIPPPN16BinarySearchTreeIiNS_4lessIiEEE4NodeERNS_9allocatorIS7_EEE5firstB8ue170006Ev, symObjAddr: 0x9118, symBinAddr: 0x100009850, symSize: 0x24 }
  - { offsetInCU: 0x1B525, offset: 0x1B525, size: 0x8, addend: 0x0, symName: __ZNSt3__19allocatorIPN16BinarySearchTreeIiNS_4lessIiEEE4NodeEE9constructB8ue170006IS6_JRKS6_EEEvPT_DpOT0_, symObjAddr: 0x913C, symBinAddr: 0x100009874, symSize: 0x28 }
  - { offsetInCU: 0x1B57B, offset: 0x1B57B, size: 0x8, addend: 0x0, symName: __ZNKSt3__114__split_bufferIPPN16BinarySearchTreeIiNS_4lessIiEEE4NodeENS_9allocatorIS7_EEE5emptyB8ue170006Ev, symObjAddr: 0x9164, symBinAddr: 0x10000989C, symSize: 0x28 }
  - { offsetInCU: 0x1B5A1, offset: 0x1B5A1, size: 0x8, addend: 0x0, symName: __ZNSt3__116__deque_iteratorIPN16BinarySearchTreeIiNS_4lessIiEEE4NodeEPS6_RS6_PS7_lLl512EEC1B8ue170006ES9_S7_, symObjAddr: 0x918C, symBinAddr: 0x1000098C4, symSize: 0x3C }
  - { offsetInCU: 0x1B5E9, offset: 0x1B5E9, size: 0x8, addend: 0x0, symName: __ZNSt3__116__deque_iteratorIPN16BinarySearchTreeIiNS_4lessIiEEE4NodeEPS6_RS6_PS7_lLl512EEC2B8ue170006ES9_S7_, symObjAddr: 0x91C8, symBinAddr: 0x100009900, symSize: 0x2C }
  - { offsetInCU: 0x1B631, offset: 0x1B631, size: 0x8, addend: 0x0, symName: __ZNSt3__117__compressed_pairImNS_9allocatorIPN16BinarySearchTreeIiNS_4lessIiEEE4NodeEEEE5firstB8ue170006Ev, symObjAddr: 0x91F4, symBinAddr: 0x10000992C, symSize: 0x24 }
  - { offsetInCU: 0x1B657, offset: 0x1B657, size: 0x8, addend: 0x0, symName: __ZNSt3__15dequeIPN16BinarySearchTreeIiNS_4lessIiEEE4NodeENS_9allocatorIS6_EEE4backEv, symObjAddr: 0x9218, symBinAddr: 0x100009950, symSize: 0x68 }
  - { offsetInCU: 0x1B68E, offset: 0x1B68E, size: 0x8, addend: 0x0, symName: __ZNSt3__15dequeIPN16BinarySearchTreeIiNS_4lessIiEEE4NodeENS_9allocatorIS6_EEE8pop_backEv, symObjAddr: 0x9280, symBinAddr: 0x1000099B8, symSize: 0xE0 }
  - { offsetInCU: 0x1B6F2, offset: 0x1B6F2, size: 0x8, addend: 0x0, symName: __ZNSt3__116allocator_traitsINS_9allocatorIPN16BinarySearchTreeIiNS_4lessIiEEE4NodeEEEE7destroyB8ue170006IS7_vEEvRS8_PT_, symObjAddr: 0x9360, symBinAddr: 0x100009A98, symSize: 0x2C }
  - { offsetInCU: 0x1B72F, offset: 0x1B72F, size: 0x8, addend: 0x0, symName: __ZNKSt3__15dequeIPN16BinarySearchTreeIiNS_4lessIiEEE4NodeENS_9allocatorIS6_EEE22__annotate_shrink_backB8ue170006Emm, symObjAddr: 0x938C, symBinAddr: 0x100009AC4, symSize: 0x60 }
  - { offsetInCU: 0x1B773, offset: 0x1B773, size: 0x8, addend: 0x0, symName: __ZNSt3__15dequeIPN16BinarySearchTreeIiNS_4lessIiEEE4NodeENS_9allocatorIS6_EEE25__maybe_remove_back_spareB8ue170006Eb, symObjAddr: 0x93EC, symBinAddr: 0x100009B24, symSize: 0xE8 }
  - { offsetInCU: 0x1B7A8, offset: 0x1B7A8, size: 0x8, addend: 0x0, symName: __ZNSt3__19allocatorIPN16BinarySearchTreeIiNS_4lessIiEEE4NodeEE7destroyB8ue170006EPS6_, symObjAddr: 0x94D4, symBinAddr: 0x100009C0C, symSize: 0x14 }
  - { offsetInCU: 0x1B7DC, offset: 0x1B7DC, size: 0x8, addend: 0x0, symName: __ZNKSt3__15dequeIPN16BinarySearchTreeIiNS_4lessIiEEE4NodeENS_9allocatorIS6_EEE19__back_spare_blocksB8ue170006Ev, symObjAddr: 0x94E8, symBinAddr: 0x100009C20, symSize: 0x2C }
  - { offsetInCU: 0x1B802, offset: 0x1B802, size: 0x8, addend: 0x0, symName: __ZNSt3__114__split_bufferIPPN16BinarySearchTreeIiNS_4lessIiEEE4NodeENS_9allocatorIS7_EEE4backB8ue170006Ev, symObjAddr: 0x9514, symBinAddr: 0x100009C4C, symSize: 0x1C }
  - { offsetInCU: 0x1B828, offset: 0x1B828, size: 0x8, addend: 0x0, symName: __ZNSt3__114__split_bufferIPPN16BinarySearchTreeIiNS_4lessIiEEE4NodeENS_9allocatorIS7_EEE8pop_backB8ue170006Ev, symObjAddr: 0x9530, symBinAddr: 0x100009C68, symSize: 0x2C }
  - { offsetInCU: 0x1B84E, offset: 0x1B84E, size: 0x8, addend: 0x0, symName: __ZNSt3__114__split_bufferIPPN16BinarySearchTreeIiNS_4lessIiEEE4NodeENS_9allocatorIS7_EEE17__destruct_at_endB8ue170006EPS7_, symObjAddr: 0x955C, symBinAddr: 0x100009C94, symSize: 0x2C }
  - { offsetInCU: 0x1B882, offset: 0x1B882, size: 0x8, addend: 0x0, symName: __ZNSt3__114__split_bufferIPPN16BinarySearchTreeIiNS_4lessIiEEE4NodeENS_9allocatorIS7_EEE17__destruct_at_endB8ue170006EPS7_NS_17integral_constantIbLb0EEE, symObjAddr: 0x9588, symBinAddr: 0x100009CC0, symSize: 0x80 }
  - { offsetInCU: 0x1B8C2, offset: 0x1B8C2, size: 0x8, addend: 0x0, symName: __ZNSt3__15stackIPN16BinarySearchTreeIiNS_4lessIiEEE4NodeENS_5dequeIS6_NS_9allocatorIS6_EEEEED2Ev, symObjAddr: 0x9608, symBinAddr: 0x100009D40, symSize: 0x2C }
  - { offsetInCU: 0x1B8EE, offset: 0x1B8EE, size: 0x8, addend: 0x0, symName: __ZNSt3__15dequeIPN16BinarySearchTreeIiNS_4lessIiEEE4NodeENS_9allocatorIS6_EEED1B8ue170006Ev, symObjAddr: 0x9634, symBinAddr: 0x100009D6C, symSize: 0x2C }
  - { offsetInCU: 0x1B918, offset: 0x1B918, size: 0x8, addend: 0x0, symName: __ZNSt3__15dequeIPN16BinarySearchTreeIiNS_4lessIiEEE4NodeENS_9allocatorIS6_EEED2B8ue170006Ev, symObjAddr: 0x9660, symBinAddr: 0x100009D98, symSize: 0xA4 }
  - { offsetInCU: 0x1B96E, offset: 0x1B96E, size: 0x8, addend: 0x0, symName: __ZNSt3__15dequeIPN16BinarySearchTreeIiNS_4lessIiEEE4NodeENS_9allocatorIS6_EEE5clearEv, symObjAddr: 0x9704, symBinAddr: 0x100009E3C, symSize: 0x170 }
  - { offsetInCU: 0x1B9C9, offset: 0x1B9C9, size: 0x8, addend: 0x0, symName: __ZNKSt3__15dequeIPN16BinarySearchTreeIiNS_4lessIiEEE4NodeENS_9allocatorIS6_EEE17__annotate_deleteB8ue170006Ev, symObjAddr: 0x9874, symBinAddr: 0x100009FAC, symSize: 0xE8 }
  - { offsetInCU: 0x1BA0C, offset: 0x1BA0C, size: 0x8, addend: 0x0, symName: __ZNSt3__114__split_bufferIPPN16BinarySearchTreeIiNS_4lessIiEEE4NodeENS_9allocatorIS7_EEED1Ev, symObjAddr: 0x995C, symBinAddr: 0x10000A094, symSize: 0x2C }
  - { offsetInCU: 0x1BA38, offset: 0x1BA38, size: 0x8, addend: 0x0, symName: __ZNSt3__15dequeIPN16BinarySearchTreeIiNS_4lessIiEEE4NodeENS_9allocatorIS6_EEE5beginB8ue170006Ev, symObjAddr: 0x9988, symBinAddr: 0x10000A0C0, symSize: 0xA8 }
  - { offsetInCU: 0x1BA6D, offset: 0x1BA6D, size: 0x8, addend: 0x0, symName: __ZNSt3__116__deque_iteratorIPN16BinarySearchTreeIiNS_4lessIiEEE4NodeEPS6_RS6_PS7_lLl512EEppB8ue170006Ev, symObjAddr: 0x9A64, symBinAddr: 0x10000A19C, symSize: 0x70 }
  - { offsetInCU: 0x1BA93, offset: 0x1BA93, size: 0x8, addend: 0x0, symName: __ZNSt3__114__split_bufferIPPN16BinarySearchTreeIiNS_4lessIiEEE4NodeENS_9allocatorIS7_EEED2Ev, symObjAddr: 0x9B04, symBinAddr: 0x10000A23C, symSize: 0x80 }
  - { offsetInCU: 0x1BABF, offset: 0x1BABF, size: 0x8, addend: 0x0, symName: __ZNSt3__114__split_bufferIPPN16BinarySearchTreeIiNS_4lessIiEEE4NodeENS_9allocatorIS7_EEE5clearB8ue170006Ev, symObjAddr: 0x9B84, symBinAddr: 0x10000A2BC, symSize: 0x28 }
  - { offsetInCU: 0x1BAE5, offset: 0x1BAE5, size: 0x8, addend: 0x0, symName: __ZN16BinarySearchTreeIiNSt3__14lessIiEEE9Tree_gridC2ERKS3_, symObjAddr: 0x9BAC, symBinAddr: 0x10000A2E4, symSize: 0x90 }
  - { offsetInCU: 0x1BB1D, offset: 0x1BB1D, size: 0x8, addend: 0x0, symName: __ZNSt3__13setIN16BinarySearchTreeIiNS_4lessIiEEE16Tree_grid_squareENS2_IS5_EENS_9allocatorIS5_EEEC1B8ue170006Ev, symObjAddr: 0x9C3C, symBinAddr: 0x10000A374, symSize: 0x2C }
  - { offsetInCU: 0x1BB47, offset: 0x1BB47, size: 0x8, addend: 0x0, symName: __ZN16BinarySearchTreeIiNSt3__14lessIiEEE9Tree_grid5buildEPKNS3_4NodeEii, symObjAddr: 0x9C68, symBinAddr: 0x10000A3A0, symSize: 0x3C8 }
  - { offsetInCU: 0x1BC1E, offset: 0x1BC1E, size: 0x8, addend: 0x0, symName: __ZNSt3__13setIN16BinarySearchTreeIiNS_4lessIiEEE16Tree_grid_squareENS2_IS5_EENS_9allocatorIS5_EEED1B8ue170006Ev, symObjAddr: 0xA030, symBinAddr: 0x10000A768, symSize: 0x2C }
  - { offsetInCU: 0x1BC48, offset: 0x1BC48, size: 0x8, addend: 0x0, symName: __ZNSt3__13setIN16BinarySearchTreeIiNS_4lessIiEEE16Tree_grid_squareENS2_IS5_EENS_9allocatorIS5_EEEC2B8ue170006Ev, symObjAddr: 0xA05C, symBinAddr: 0x10000A794, symSize: 0x30 }
  - { offsetInCU: 0x1BC72, offset: 0x1BC72, size: 0x8, addend: 0x0, symName: __ZNSt3__16__treeIN16BinarySearchTreeIiNS_4lessIiEEE16Tree_grid_squareENS2_IS5_EENS_9allocatorIS5_EEEC1ERKS6_, symObjAddr: 0xA08C, symBinAddr: 0x10000A7C4, symSize: 0x34 }
  - { offsetInCU: 0x1BCAD, offset: 0x1BCAD, size: 0x8, addend: 0x0, symName: __ZNSt3__16__treeIN16BinarySearchTreeIiNS_4lessIiEEE16Tree_grid_squareENS2_IS5_EENS_9allocatorIS5_EEEC2ERKS6_, symObjAddr: 0xA0C0, symBinAddr: 0x10000A7F8, symSize: 0x7C }
  - { offsetInCU: 0x1BCE8, offset: 0x1BCE8, size: 0x8, addend: 0x0, symName: __ZNSt3__117__compressed_pairINS_15__tree_end_nodeIPNS_16__tree_node_baseIPvEEEENS_9allocatorINS_11__tree_nodeIN16BinarySearchTreeIiNS_4lessIiEEE16Tree_grid_squareES3_EEEEEC1B8ue170006ILb1EvEEv, symObjAddr: 0xA13C, symBinAddr: 0x10000A874, symSize: 0x2C }
  - { offsetInCU: 0x1BD1D, offset: 0x1BD1D, size: 0x8, addend: 0x0, symName: __ZNSt3__117__compressed_pairImNS_4lessIN16BinarySearchTreeIiNS1_IiEEE16Tree_grid_squareEEEEC1B8ue170006IiRKS6_EEOT_OT0_, symObjAddr: 0xA168, symBinAddr: 0x10000A8A0, symSize: 0x3C }
  - { offsetInCU: 0x1BD75, offset: 0x1BD75, size: 0x8, addend: 0x0, symName: __ZNSt3__16__treeIN16BinarySearchTreeIiNS_4lessIiEEE16Tree_grid_squareENS2_IS5_EENS_9allocatorIS5_EEE10__end_nodeB8ue170006Ev, symObjAddr: 0xA1A4, symBinAddr: 0x10000A8DC, symSize: 0x2C }
  - { offsetInCU: 0x1BD9B, offset: 0x1BD9B, size: 0x8, addend: 0x0, symName: __ZNSt3__16__treeIN16BinarySearchTreeIiNS_4lessIiEEE16Tree_grid_squareENS2_IS5_EENS_9allocatorIS5_EEE12__begin_nodeB8ue170006Ev, symObjAddr: 0xA1D0, symBinAddr: 0x10000A908, symSize: 0x14 }
  - { offsetInCU: 0x1BDC1, offset: 0x1BDC1, size: 0x8, addend: 0x0, symName: __ZNSt3__117__compressed_pairINS_15__tree_end_nodeIPNS_16__tree_node_baseIPvEEEENS_9allocatorINS_11__tree_nodeIN16BinarySearchTreeIiNS_4lessIiEEE16Tree_grid_squareES3_EEEEEC2B8ue170006ILb1EvEEv, symObjAddr: 0xA1E4, symBinAddr: 0x10000A91C, symSize: 0x34 }
  - { offsetInCU: 0x1BDF6, offset: 0x1BDF6, size: 0x8, addend: 0x0, symName: __ZNSt3__122__compressed_pair_elemINS_15__tree_end_nodeIPNS_16__tree_node_baseIPvEEEELi0ELb0EEC2B8ue170006ENS_16__value_init_tagE, symObjAddr: 0xA218, symBinAddr: 0x10000A950, symSize: 0x2C }
  - { offsetInCU: 0x1BE2A, offset: 0x1BE2A, size: 0x8, addend: 0x0, symName: __ZNSt3__122__compressed_pair_elemINS_9allocatorINS_11__tree_nodeIN16BinarySearchTreeIiNS_4lessIiEEE16Tree_grid_squareEPvEEEELi1ELb1EEC2B8ue170006ENS_16__value_init_tagE, symObjAddr: 0xA244, symBinAddr: 0x10000A97C, symSize: 0x2C }
  - { offsetInCU: 0x1BE5E, offset: 0x1BE5E, size: 0x8, addend: 0x0, symName: __ZNSt3__115__tree_end_nodeIPNS_16__tree_node_baseIPvEEEC1B8ue170006Ev, symObjAddr: 0xA270, symBinAddr: 0x10000A9A8, symSize: 0x2C }
  - { offsetInCU: 0x1BE88, offset: 0x1BE88, size: 0x8, addend: 0x0, symName: __ZNSt3__115__tree_end_nodeIPNS_16__tree_node_baseIPvEEEC2B8ue170006Ev, symObjAddr: 0xA29C, symBinAddr: 0x10000A9D4, symSize: 0x18 }
  - { offsetInCU: 0x1BEB2, offset: 0x1BEB2, size: 0x8, addend: 0x0, symName: __ZNSt3__19allocatorINS_11__tree_nodeIN16BinarySearchTreeIiNS_4lessIiEEE16Tree_grid_squareEPvEEEC2B8ue170006Ev, symObjAddr: 0xA2B4, symBinAddr: 0x10000A9EC, symSize: 0x2C }
  - { offsetInCU: 0x1BEDC, offset: 0x1BEDC, size: 0x8, addend: 0x0, symName: __ZNSt3__116__non_trivial_ifILb1ENS_9allocatorINS_11__tree_nodeIN16BinarySearchTreeIiNS_4lessIiEEE16Tree_grid_squareEPvEEEEEC2B8ue170006Ev, symObjAddr: 0xA2E0, symBinAddr: 0x10000AA18, symSize: 0x14 }
  - { offsetInCU: 0x1BF06, offset: 0x1BF06, size: 0x8, addend: 0x0, symName: __ZNSt3__117__compressed_pairImNS_4lessIN16BinarySearchTreeIiNS1_IiEEE16Tree_grid_squareEEEEC2B8ue170006IiRKS6_EEOT_OT0_, symObjAddr: 0xA2F4, symBinAddr: 0x10000AA2C, symSize: 0x44 }
  - { offsetInCU: 0x1BF5E, offset: 0x1BF5E, size: 0x8, addend: 0x0, symName: __ZNSt3__122__compressed_pair_elemINS_4lessIN16BinarySearchTreeIiNS1_IiEEE16Tree_grid_squareEEELi1ELb1EEC2B8ue170006IRKS6_vEEOT_, symObjAddr: 0xA338, symBinAddr: 0x10000AA70, symSize: 0x18 }
  - { offsetInCU: 0x1BFA0, offset: 0x1BFA0, size: 0x8, addend: 0x0, symName: __ZNSt3__117__compressed_pairINS_15__tree_end_nodeIPNS_16__tree_node_baseIPvEEEENS_9allocatorINS_11__tree_nodeIN16BinarySearchTreeIiNS_4lessIiEEE16Tree_grid_squareES3_EEEEE5firstB8ue170006Ev, symObjAddr: 0xA350, symBinAddr: 0x10000AA88, symSize: 0x24 }
  - { offsetInCU: 0x1BFC6, offset: 0x1BFC6, size: 0x8, addend: 0x0, symName: __ZNSt3__13setIN16BinarySearchTreeIiNS_4lessIiEEE16Tree_grid_squareENS2_IS5_EENS_9allocatorIS5_EEE6insertB8ue170006EOS5_, symObjAddr: 0xA374, symBinAddr: 0x10000AAAC, symSize: 0x4C }
  - { offsetInCU: 0x1BFFB, offset: 0x1BFFB, size: 0x8, addend: 0x0, symName: __ZN16BinarySearchTreeIiNSt3__14lessIiEEE16Tree_grid_squareC1IiEEiiT_, symObjAddr: 0xA3C0, symBinAddr: 0x10000AAF8, symSize: 0x44 }
  - { offsetInCU: 0x1C058, offset: 0x1C058, size: 0x8, addend: 0x0, symName: __ZN16BinarySearchTreeIiNSt3__14lessIiEEE9Tree_grid18calculate_x_offsetEii, symObjAddr: 0xA404, symBinAddr: 0x10000AB3C, symSize: 0x54 }
  - { offsetInCU: 0x1C089, offset: 0x1C089, size: 0x8, addend: 0x0, symName: __ZN16BinarySearchTreeIiNSt3__14lessIiEEE16Tree_grid_squareC1IPKcEEiiT_, symObjAddr: 0xA458, symBinAddr: 0x10000AB90, symSize: 0x44 }
  - { offsetInCU: 0x1C0E6, offset: 0x1C0E6, size: 0x8, addend: 0x0, symName: __ZNSt3__13setIN16BinarySearchTreeIiNS_4lessIiEEE16Tree_grid_squareENS2_IS5_EENS_9allocatorIS5_EEE4findB8ue170006ERKS5_, symObjAddr: 0xA49C, symBinAddr: 0x10000ABD4, symSize: 0x40 }
  - { offsetInCU: 0x1C11B, offset: 0x1C11B, size: 0x8, addend: 0x0, symName: __ZNSt3__13setIN16BinarySearchTreeIiNS_4lessIiEEE16Tree_grid_squareENS2_IS5_EENS_9allocatorIS5_EEE3endB8ue170006Ev, symObjAddr: 0xA510, symBinAddr: 0x10000AC48, symSize: 0x38 }
  - { offsetInCU: 0x1C141, offset: 0x1C141, size: 0x8, addend: 0x0, symName: __ZNSt3__13setIN16BinarySearchTreeIiNS_4lessIiEEE16Tree_grid_squareENS2_IS5_EENS_9allocatorIS5_EEE5eraseB8ue170006ENS_21__tree_const_iteratorIS5_PNS_11__tree_nodeIS5_PvEElEE, symObjAddr: 0xA548, symBinAddr: 0x10000AC80, symSize: 0x48 }
  - { offsetInCU: 0x1C176, offset: 0x1C176, size: 0x8, addend: 0x0, symName: __ZNK16BinarySearchTreeIiNSt3__14lessIiEEE16Tree_grid_square5get_xEv, symObjAddr: 0xA590, symBinAddr: 0x10000ACC8, symSize: 0x18 }
  - { offsetInCU: 0x1C19C, offset: 0x1C19C, size: 0x8, addend: 0x0, symName: __ZNK16BinarySearchTreeIiNSt3__14lessIiEEE16Tree_grid_square5get_yEv, symObjAddr: 0xA5A8, symBinAddr: 0x10000ACE0, symSize: 0x18 }
  - { offsetInCU: 0x1C1C2, offset: 0x1C1C2, size: 0x8, addend: 0x0, symName: __ZNSt3__13setIN16BinarySearchTreeIiNS_4lessIiEEE16Tree_grid_squareENS2_IS5_EENS_9allocatorIS5_EEE6insertB8ue170006ERKS5_, symObjAddr: 0xA5C0, symBinAddr: 0x10000ACF8, symSize: 0x4C }
  - { offsetInCU: 0x1C1F7, offset: 0x1C1F7, size: 0x8, addend: 0x0, symName: __ZNSt3__16__treeIN16BinarySearchTreeIiNS_4lessIiEEE16Tree_grid_squareENS2_IS5_EENS_9allocatorIS5_EEE15__insert_uniqueB8ue170006EOS5_, symObjAddr: 0xA60C, symBinAddr: 0x10000AD44, symSize: 0x50 }
  - { offsetInCU: 0x1C22C, offset: 0x1C22C, size: 0x8, addend: 0x0, symName: __ZNSt3__14pairINS_21__tree_const_iteratorIN16BinarySearchTreeIiNS_4lessIiEEE16Tree_grid_squareEPNS_11__tree_nodeIS6_PvEElEEbEC1B8ue170006INS_15__tree_iteratorIS6_SA_lEEbLS8_0EEEONS0_IT_T0_EE, symObjAddr: 0xA65C, symBinAddr: 0x10000AD94, symSize: 0x34 }
  - { offsetInCU: 0x1C283, offset: 0x1C283, size: 0x8, addend: 0x0, symName: __ZNSt3__16__treeIN16BinarySearchTreeIiNS_4lessIiEEE16Tree_grid_squareENS2_IS5_EENS_9allocatorIS5_EEE25__emplace_unique_key_argsIS5_JS5_EEENS_4pairINS_15__tree_iteratorIS5_PNS_11__tree_nodeIS5_PvEElEEbEERKT_DpOT0_, symObjAddr: 0xA690, symBinAddr: 0x10000ADC8, symSize: 0xF0 }
  - { offsetInCU: 0x1C32F, offset: 0x1C32F, size: 0x8, addend: 0x0, symName: __ZNSt3__122__tree_key_value_typesIN16BinarySearchTreeIiNS_4lessIiEEE16Tree_grid_squareEE9__get_keyB8ue170006ERKS5_, symObjAddr: 0xA780, symBinAddr: 0x10000AEB8, symSize: 0x14 }
  - { offsetInCU: 0x1C353, offset: 0x1C353, size: 0x8, addend: 0x0, symName: __ZNSt3__16__treeIN16BinarySearchTreeIiNS_4lessIiEEE16Tree_grid_squareENS2_IS5_EENS_9allocatorIS5_EEE12__find_equalIS5_EERPNS_16__tree_node_baseIPvEERPNS_15__tree_end_nodeISE_EERKT_, symObjAddr: 0xA794, symBinAddr: 0x10000AECC, symSize: 0x184 }
  - { offsetInCU: 0x1C3C0, offset: 0x1C3C0, size: 0x8, addend: 0x0, symName: __ZNSt3__16__treeIN16BinarySearchTreeIiNS_4lessIiEEE16Tree_grid_squareENS2_IS5_EENS_9allocatorIS5_EEE16__construct_nodeIJS5_EEENS_10unique_ptrINS_11__tree_nodeIS5_PvEENS_22__tree_node_destructorINS7_ISE_EEEEEEDpOT_, symObjAddr: 0xA918, symBinAddr: 0x10000B050, symSize: 0x110 }
  - { offsetInCU: 0x1C421, offset: 0x1C421, size: 0x8, addend: 0x0, symName: __ZNSt3__16__treeIN16BinarySearchTreeIiNS_4lessIiEEE16Tree_grid_squareENS2_IS5_EENS_9allocatorIS5_EEE16__insert_node_atEPNS_15__tree_end_nodeIPNS_16__tree_node_baseIPvEEEERSE_SE_, symObjAddr: 0xAA28, symBinAddr: 0x10000B160, symSize: 0xCC }
  - { offsetInCU: 0x1C476, offset: 0x1C476, size: 0x8, addend: 0x0, symName: __ZNKSt3__110unique_ptrINS_11__tree_nodeIN16BinarySearchTreeIiNS_4lessIiEEE16Tree_grid_squareEPvEENS_22__tree_node_destructorINS_9allocatorIS8_EEEEE3getB8ue170006Ev, symObjAddr: 0xAAF4, symBinAddr: 0x10000B22C, symSize: 0x28 }
  - { offsetInCU: 0x1C49C, offset: 0x1C49C, size: 0x8, addend: 0x0, symName: __ZNSt3__110unique_ptrINS_11__tree_nodeIN16BinarySearchTreeIiNS_4lessIiEEE16Tree_grid_squareEPvEENS_22__tree_node_destructorINS_9allocatorIS8_EEEEE7releaseB8ue170006Ev, symObjAddr: 0xAB1C, symBinAddr: 0x10000B254, symSize: 0x44 }
  - { offsetInCU: 0x1C4D1, offset: 0x1C4D1, size: 0x8, addend: 0x0, symName: __ZNSt3__110unique_ptrINS_11__tree_nodeIN16BinarySearchTreeIiNS_4lessIiEEE16Tree_grid_squareEPvEENS_22__tree_node_destructorINS_9allocatorIS8_EEEEED1B8ue170006Ev, symObjAddr: 0xAB60, symBinAddr: 0x10000B298, symSize: 0x2C }
  - { offsetInCU: 0x1C4FB, offset: 0x1C4FB, size: 0x8, addend: 0x0, symName: __ZNSt3__115__tree_iteratorIN16BinarySearchTreeIiNS_4lessIiEEE16Tree_grid_squareEPNS_11__tree_nodeIS5_PvEElEC1B8ue170006ES9_, symObjAddr: 0xAB8C, symBinAddr: 0x10000B2C4, symSize: 0x34 }
  - { offsetInCU: 0x1C53A, offset: 0x1C53A, size: 0x8, addend: 0x0, symName: __ZNSt3__14pairINS_15__tree_iteratorIN16BinarySearchTreeIiNS_4lessIiEEE16Tree_grid_squareEPNS_11__tree_nodeIS6_PvEElEEbEC1B8ue170006ISB_RbLS8_0EEEOT_OT0_, symObjAddr: 0xABC0, symBinAddr: 0x10000B2F8, symSize: 0x3C }
  - { offsetInCU: 0x1C598, offset: 0x1C598, size: 0x8, addend: 0x0, symName: __ZNKSt3__16__treeIN16BinarySearchTreeIiNS_4lessIiEEE16Tree_grid_squareENS2_IS5_EENS_9allocatorIS5_EEE6__rootB8ue170006Ev, symObjAddr: 0xABFC, symBinAddr: 0x10000B334, symSize: 0x28 }
  - { offsetInCU: 0x1C5BE, offset: 0x1C5BE, size: 0x8, addend: 0x0, symName: __ZNKSt3__16__treeIN16BinarySearchTreeIiNS_4lessIiEEE16Tree_grid_squareENS2_IS5_EENS_9allocatorIS5_EEE10__root_ptrB8ue170006Ev, symObjAddr: 0xAC24, symBinAddr: 0x10000B35C, symSize: 0x24 }
  - { offsetInCU: 0x1C5E4, offset: 0x1C5E4, size: 0x8, addend: 0x0, symName: __ZNSt3__16__treeIN16BinarySearchTreeIiNS_4lessIiEEE16Tree_grid_squareENS2_IS5_EENS_9allocatorIS5_EEE10value_compB8ue170006Ev, symObjAddr: 0xAC48, symBinAddr: 0x10000B380, symSize: 0x28 }
  - { offsetInCU: 0x1C60A, offset: 0x1C60A, size: 0x8, addend: 0x0, symName: __ZNKSt3__14lessIN16BinarySearchTreeIiNS0_IiEEE16Tree_grid_squareEEclB8ue170006ERKS4_S7_, symObjAddr: 0xAC70, symBinAddr: 0x10000B3A8, symSize: 0x34 }
  - { offsetInCU: 0x1C64E, offset: 0x1C64E, size: 0x8, addend: 0x0, symName: __ZNKSt3__16__treeIN16BinarySearchTreeIiNS_4lessIiEEE16Tree_grid_squareENS2_IS5_EENS_9allocatorIS5_EEE10__end_nodeB8ue170006Ev, symObjAddr: 0xACA4, symBinAddr: 0x10000B3DC, symSize: 0x2C }
  - { offsetInCU: 0x1C674, offset: 0x1C674, size: 0x8, addend: 0x0, symName: __ZNKSt3__117__compressed_pairINS_15__tree_end_nodeIPNS_16__tree_node_baseIPvEEEENS_9allocatorINS_11__tree_nodeIN16BinarySearchTreeIiNS_4lessIiEEE16Tree_grid_squareES3_EEEEE5firstB8ue170006Ev, symObjAddr: 0xACD0, symBinAddr: 0x10000B408, symSize: 0x24 }
  - { offsetInCU: 0x1C69A, offset: 0x1C69A, size: 0x8, addend: 0x0, symName: __ZNSt3__117__compressed_pairImNS_4lessIN16BinarySearchTreeIiNS1_IiEEE16Tree_grid_squareEEEE6secondB8ue170006Ev, symObjAddr: 0xACF4, symBinAddr: 0x10000B42C, symSize: 0x24 }
  - { offsetInCU: 0x1C6C0, offset: 0x1C6C0, size: 0x8, addend: 0x0, symName: __ZNSt3__122__compressed_pair_elemINS_4lessIN16BinarySearchTreeIiNS1_IiEEE16Tree_grid_squareEEELi1ELb1EE5__getB8ue170006Ev, symObjAddr: 0xAD18, symBinAddr: 0x10000B450, symSize: 0x14 }
  - { offsetInCU: 0x1C6E6, offset: 0x1C6E6, size: 0x8, addend: 0x0, symName: __ZNK16BinarySearchTreeIiNSt3__14lessIiEEE16Tree_grid_squareltERKS4_, symObjAddr: 0xAD2C, symBinAddr: 0x10000B464, symSize: 0xB0 }
  - { offsetInCU: 0x1C71A, offset: 0x1C71A, size: 0x8, addend: 0x0, symName: __ZNSt3__16__treeIN16BinarySearchTreeIiNS_4lessIiEEE16Tree_grid_squareENS2_IS5_EENS_9allocatorIS5_EEE12__node_allocB8ue170006Ev, symObjAddr: 0xADDC, symBinAddr: 0x10000B514, symSize: 0x28 }
  - { offsetInCU: 0x1C740, offset: 0x1C740, size: 0x8, addend: 0x0, symName: __ZNSt3__116allocator_traitsINS_9allocatorINS_11__tree_nodeIN16BinarySearchTreeIiNS_4lessIiEEE16Tree_grid_squareEPvEEEEE8allocateB8ue170006ERSA_m, symObjAddr: 0xAE04, symBinAddr: 0x10000B53C, symSize: 0x2C }
  - { offsetInCU: 0x1C773, offset: 0x1C773, size: 0x8, addend: 0x0, symName: __ZNSt3__122__tree_node_destructorINS_9allocatorINS_11__tree_nodeIN16BinarySearchTreeIiNS_4lessIiEEE16Tree_grid_squareEPvEEEEEC1B8ue170006ERSA_b, symObjAddr: 0xAE30, symBinAddr: 0x10000B568, symSize: 0x48 }
  - { offsetInCU: 0x1C7C1, offset: 0x1C7C1, size: 0x8, addend: 0x0, symName: __ZNSt3__110unique_ptrINS_11__tree_nodeIN16BinarySearchTreeIiNS_4lessIiEEE16Tree_grid_squareEPvEENS_22__tree_node_destructorINS_9allocatorIS8_EEEEEC1B8ue170006ILb1EvEEPS8_NS_16__dependent_typeINS_27__unique_ptr_deleter_sfinaeISC_EEXT_EE20__good_rval_ref_typeE, symObjAddr: 0xAE78, symBinAddr: 0x10000B5B0, symSize: 0x3C }
  - { offsetInCU: 0x1C812, offset: 0x1C812, size: 0x8, addend: 0x0, symName: __ZNSt3__116allocator_traitsINS_9allocatorINS_11__tree_nodeIN16BinarySearchTreeIiNS_4lessIiEEE16Tree_grid_squareEPvEEEEE9constructB8ue170006IS7_JS7_EvEEvRSA_PT_DpOT0_, symObjAddr: 0xAEB4, symBinAddr: 0x10000B5EC, symSize: 0x34 }
  - { offsetInCU: 0x1C869, offset: 0x1C869, size: 0x8, addend: 0x0, symName: __ZNSt3__122__tree_key_value_typesIN16BinarySearchTreeIiNS_4lessIiEEE16Tree_grid_squareEE9__get_ptrB8ue170006ERS5_, symObjAddr: 0xAEE8, symBinAddr: 0x10000B620, symSize: 0x14 }
  - { offsetInCU: 0x1C88D, offset: 0x1C88D, size: 0x8, addend: 0x0, symName: __ZNKSt3__110unique_ptrINS_11__tree_nodeIN16BinarySearchTreeIiNS_4lessIiEEE16Tree_grid_squareEPvEENS_22__tree_node_destructorINS_9allocatorIS8_EEEEEptB8ue170006Ev, symObjAddr: 0xAEFC, symBinAddr: 0x10000B634, symSize: 0x28 }
  - { offsetInCU: 0x1C8B3, offset: 0x1C8B3, size: 0x8, addend: 0x0, symName: __ZNSt3__110unique_ptrINS_11__tree_nodeIN16BinarySearchTreeIiNS_4lessIiEEE16Tree_grid_squareEPvEENS_22__tree_node_destructorINS_9allocatorIS8_EEEEE11get_deleterB8ue170006Ev, symObjAddr: 0xAF24, symBinAddr: 0x10000B65C, symSize: 0x24 }
  - { offsetInCU: 0x1C8D9, offset: 0x1C8D9, size: 0x8, addend: 0x0, symName: __ZNSt3__117__compressed_pairINS_15__tree_end_nodeIPNS_16__tree_node_baseIPvEEEENS_9allocatorINS_11__tree_nodeIN16BinarySearchTreeIiNS_4lessIiEEE16Tree_grid_squareES3_EEEEE6secondB8ue170006Ev, symObjAddr: 0xAF48, symBinAddr: 0x10000B680, symSize: 0x24 }
  - { offsetInCU: 0x1C8FF, offset: 0x1C8FF, size: 0x8, addend: 0x0, symName: __ZNSt3__122__compressed_pair_elemINS_9allocatorINS_11__tree_nodeIN16BinarySearchTreeIiNS_4lessIiEEE16Tree_grid_squareEPvEEEELi1ELb1EE5__getB8ue170006Ev, symObjAddr: 0xAF6C, symBinAddr: 0x10000B6A4, symSize: 0x14 }
  - { offsetInCU: 0x1C925, offset: 0x1C925, size: 0x8, addend: 0x0, symName: __ZNSt3__19allocatorINS_11__tree_nodeIN16BinarySearchTreeIiNS_4lessIiEEE16Tree_grid_squareEPvEEE8allocateB8ue170006Em, symObjAddr: 0xAF80, symBinAddr: 0x10000B6B8, symSize: 0x58 }
  - { offsetInCU: 0x1C963, offset: 0x1C963, size: 0x8, addend: 0x0, symName: __ZNSt3__116allocator_traitsINS_9allocatorINS_11__tree_nodeIN16BinarySearchTreeIiNS_4lessIiEEE16Tree_grid_squareEPvEEEEE8max_sizeB8ue170006ISA_vEEmRKSA_, symObjAddr: 0xAFD8, symBinAddr: 0x10000B710, symSize: 0x24 }
  - { offsetInCU: 0x1C991, offset: 0x1C991, size: 0x8, addend: 0x0, symName: __ZNKSt3__19allocatorINS_11__tree_nodeIN16BinarySearchTreeIiNS_4lessIiEEE16Tree_grid_squareEPvEEE8max_sizeB8ue170006Ev, symObjAddr: 0xAFFC, symBinAddr: 0x10000B734, symSize: 0x14 }
  - { offsetInCU: 0x1C9B7, offset: 0x1C9B7, size: 0x8, addend: 0x0, symName: __ZNSt3__122__tree_node_destructorINS_9allocatorINS_11__tree_nodeIN16BinarySearchTreeIiNS_4lessIiEEE16Tree_grid_squareEPvEEEEEC2B8ue170006ERSA_b, symObjAddr: 0xB010, symBinAddr: 0x10000B748, symSize: 0x38 }
  - { offsetInCU: 0x1C9FF, offset: 0x1C9FF, size: 0x8, addend: 0x0, symName: __ZNSt3__110unique_ptrINS_11__tree_nodeIN16BinarySearchTreeIiNS_4lessIiEEE16Tree_grid_squareEPvEENS_22__tree_node_destructorINS_9allocatorIS8_EEEEEC2B8ue170006ILb1EvEEPS8_NS_16__dependent_typeINS_27__unique_ptr_deleter_sfinaeISC_EEXT_EE20__good_rval_ref_typeE, symObjAddr: 0xB048, symBinAddr: 0x10000B780, symSize: 0x48 }
  - { offsetInCU: 0x1CA50, offset: 0x1CA50, size: 0x8, addend: 0x0, symName: __ZNSt3__117__compressed_pairIPNS_11__tree_nodeIN16BinarySearchTreeIiNS_4lessIiEEE16Tree_grid_squareEPvEENS_22__tree_node_destructorINS_9allocatorIS8_EEEEEC1B8ue170006IRS9_SD_EEOT_OT0_, symObjAddr: 0xB090, symBinAddr: 0x10000B7C8, symSize: 0x3C }
  - { offsetInCU: 0x1CAA8, offset: 0x1CAA8, size: 0x8, addend: 0x0, symName: __ZNSt3__117__compressed_pairIPNS_11__tree_nodeIN16BinarySearchTreeIiNS_4lessIiEEE16Tree_grid_squareEPvEENS_22__tree_node_destructorINS_9allocatorIS8_EEEEEC2B8ue170006IRS9_SD_EEOT_OT0_, symObjAddr: 0xB0CC, symBinAddr: 0x10000B804, symSize: 0x48 }
  - { offsetInCU: 0x1CB00, offset: 0x1CB00, size: 0x8, addend: 0x0, symName: __ZNSt3__122__compressed_pair_elemIPNS_11__tree_nodeIN16BinarySearchTreeIiNS_4lessIiEEE16Tree_grid_squareEPvEELi0ELb0EEC2B8ue170006IRS9_vEEOT_, symObjAddr: 0xB114, symBinAddr: 0x10000B84C, symSize: 0x24 }
  - { offsetInCU: 0x1CB42, offset: 0x1CB42, size: 0x8, addend: 0x0, symName: __ZNSt3__122__compressed_pair_elemINS_22__tree_node_destructorINS_9allocatorINS_11__tree_nodeIN16BinarySearchTreeIiNS_4lessIiEEE16Tree_grid_squareEPvEEEEEELi1ELb0EEC2B8ue170006ISC_vEEOT_, symObjAddr: 0xB138, symBinAddr: 0x10000B870, symSize: 0x24 }
  - { offsetInCU: 0x1CB84, offset: 0x1CB84, size: 0x8, addend: 0x0, symName: __ZNSt3__19allocatorINS_11__tree_nodeIN16BinarySearchTreeIiNS_4lessIiEEE16Tree_grid_squareEPvEEE9constructB8ue170006IS6_JS6_EEEvPT_DpOT0_, symObjAddr: 0xB15C, symBinAddr: 0x10000B894, symSize: 0x30 }
  - { offsetInCU: 0x1CBDA, offset: 0x1CBDA, size: 0x8, addend: 0x0, symName: __ZN16BinarySearchTreeIiNSt3__14lessIiEEE16Tree_grid_squareC1EOS4_, symObjAddr: 0xB18C, symBinAddr: 0x10000B8C4, symSize: 0x34 }
  - { offsetInCU: 0x1CC10, offset: 0x1CC10, size: 0x8, addend: 0x0, symName: __ZN16BinarySearchTreeIiNSt3__14lessIiEEE16Tree_grid_squareC2EOS4_, symObjAddr: 0xB1C0, symBinAddr: 0x10000B8F8, symSize: 0x48 }
  - { offsetInCU: 0x1CC46, offset: 0x1CC46, size: 0x8, addend: 0x0, symName: __ZNKSt3__117__compressed_pairIPNS_11__tree_nodeIN16BinarySearchTreeIiNS_4lessIiEEE16Tree_grid_squareEPvEENS_22__tree_node_destructorINS_9allocatorIS8_EEEEE5firstB8ue170006Ev, symObjAddr: 0xB208, symBinAddr: 0x10000B940, symSize: 0x24 }
  - { offsetInCU: 0x1CC6C, offset: 0x1CC6C, size: 0x8, addend: 0x0, symName: __ZNKSt3__122__compressed_pair_elemIPNS_11__tree_nodeIN16BinarySearchTreeIiNS_4lessIiEEE16Tree_grid_squareEPvEELi0ELb0EE5__getB8ue170006Ev, symObjAddr: 0xB22C, symBinAddr: 0x10000B964, symSize: 0x14 }
  - { offsetInCU: 0x1CC92, offset: 0x1CC92, size: 0x8, addend: 0x0, symName: __ZNSt3__117__compressed_pairIPNS_11__tree_nodeIN16BinarySearchTreeIiNS_4lessIiEEE16Tree_grid_squareEPvEENS_22__tree_node_destructorINS_9allocatorIS8_EEEEE6secondB8ue170006Ev, symObjAddr: 0xB240, symBinAddr: 0x10000B978, symSize: 0x28 }
  - { offsetInCU: 0x1CCB8, offset: 0x1CCB8, size: 0x8, addend: 0x0, symName: __ZNSt3__122__compressed_pair_elemINS_22__tree_node_destructorINS_9allocatorINS_11__tree_nodeIN16BinarySearchTreeIiNS_4lessIiEEE16Tree_grid_squareEPvEEEEEELi1ELb0EE5__getB8ue170006Ev, symObjAddr: 0xB268, symBinAddr: 0x10000B9A0, symSize: 0x14 }
  - { offsetInCU: 0x1CCDE, offset: 0x1CCDE, size: 0x8, addend: 0x0, symName: __ZNSt3__16__treeIN16BinarySearchTreeIiNS_4lessIiEEE16Tree_grid_squareENS2_IS5_EENS_9allocatorIS5_EEE4sizeB8ue170006Ev, symObjAddr: 0xB27C, symBinAddr: 0x10000B9B4, symSize: 0x28 }
  - { offsetInCU: 0x1CD04, offset: 0x1CD04, size: 0x8, addend: 0x0, symName: __ZNSt3__117__compressed_pairImNS_4lessIN16BinarySearchTreeIiNS1_IiEEE16Tree_grid_squareEEEE5firstB8ue170006Ev, symObjAddr: 0xB2A4, symBinAddr: 0x10000B9DC, symSize: 0x24 }
  - { offsetInCU: 0x1CD2A, offset: 0x1CD2A, size: 0x8, addend: 0x0, symName: __ZNSt3__117__compressed_pairIPNS_11__tree_nodeIN16BinarySearchTreeIiNS_4lessIiEEE16Tree_grid_squareEPvEENS_22__tree_node_destructorINS_9allocatorIS8_EEEEE5firstB8ue170006Ev, symObjAddr: 0xB2C8, symBinAddr: 0x10000BA00, symSize: 0x24 }
  - { offsetInCU: 0x1CD50, offset: 0x1CD50, size: 0x8, addend: 0x0, symName: __ZNSt3__122__compressed_pair_elemIPNS_11__tree_nodeIN16BinarySearchTreeIiNS_4lessIiEEE16Tree_grid_squareEPvEELi0ELb0EE5__getB8ue170006Ev, symObjAddr: 0xB2EC, symBinAddr: 0x10000BA24, symSize: 0x14 }
  - { offsetInCU: 0x1CD76, offset: 0x1CD76, size: 0x8, addend: 0x0, symName: __ZNSt3__110unique_ptrINS_11__tree_nodeIN16BinarySearchTreeIiNS_4lessIiEEE16Tree_grid_squareEPvEENS_22__tree_node_destructorINS_9allocatorIS8_EEEEED2B8ue170006Ev, symObjAddr: 0xB300, symBinAddr: 0x10000BA38, symSize: 0x30 }
  - { offsetInCU: 0x1CDA0, offset: 0x1CDA0, size: 0x8, addend: 0x0, symName: __ZNSt3__110unique_ptrINS_11__tree_nodeIN16BinarySearchTreeIiNS_4lessIiEEE16Tree_grid_squareEPvEENS_22__tree_node_destructorINS_9allocatorIS8_EEEEE5resetB8ue170006EPS8_, symObjAddr: 0xB330, symBinAddr: 0x10000BA68, symSize: 0x78 }
  - { offsetInCU: 0x1CDE4, offset: 0x1CDE4, size: 0x8, addend: 0x0, symName: __ZNSt3__122__tree_node_destructorINS_9allocatorINS_11__tree_nodeIN16BinarySearchTreeIiNS_4lessIiEEE16Tree_grid_squareEPvEEEEEclB8ue170006EPS9_, symObjAddr: 0xB3A8, symBinAddr: 0x10000BAE0, symSize: 0x90 }
  - { offsetInCU: 0x1CE19, offset: 0x1CE19, size: 0x8, addend: 0x0, symName: __ZNSt3__116allocator_traitsINS_9allocatorINS_11__tree_nodeIN16BinarySearchTreeIiNS_4lessIiEEE16Tree_grid_squareEPvEEEEE7destroyB8ue170006IS7_vvEEvRSA_PT_, symObjAddr: 0xB438, symBinAddr: 0x10000BB70, symSize: 0x28 }
  - { offsetInCU: 0x1CE54, offset: 0x1CE54, size: 0x8, addend: 0x0, symName: __ZNSt3__116allocator_traitsINS_9allocatorINS_11__tree_nodeIN16BinarySearchTreeIiNS_4lessIiEEE16Tree_grid_squareEPvEEEEE10deallocateB8ue170006ERSA_PS9_m, symObjAddr: 0xB460, symBinAddr: 0x10000BB98, symSize: 0x34 }
  - { offsetInCU: 0x1CE96, offset: 0x1CE96, size: 0x8, addend: 0x0, symName: __ZNSt3__19allocatorINS_11__tree_nodeIN16BinarySearchTreeIiNS_4lessIiEEE16Tree_grid_squareEPvEEE10deallocateB8ue170006EPS8_m, symObjAddr: 0xB494, symBinAddr: 0x10000BBCC, symSize: 0x40 }
  - { offsetInCU: 0x1CED8, offset: 0x1CED8, size: 0x8, addend: 0x0, symName: __ZNSt3__115__tree_iteratorIN16BinarySearchTreeIiNS_4lessIiEEE16Tree_grid_squareEPNS_11__tree_nodeIS5_PvEElEC2B8ue170006ES9_, symObjAddr: 0xB4D4, symBinAddr: 0x10000BC0C, symSize: 0x20 }
  - { offsetInCU: 0x1CF11, offset: 0x1CF11, size: 0x8, addend: 0x0, symName: __ZNSt3__14pairINS_15__tree_iteratorIN16BinarySearchTreeIiNS_4lessIiEEE16Tree_grid_squareEPNS_11__tree_nodeIS6_PvEElEEbEC2B8ue170006ISB_RbLS8_0EEEOT_OT0_, symObjAddr: 0xB4F4, symBinAddr: 0x10000BC2C, symSize: 0x38 }
  - { offsetInCU: 0x1CF6F, offset: 0x1CF6F, size: 0x8, addend: 0x0, symName: __ZNSt3__14pairINS_21__tree_const_iteratorIN16BinarySearchTreeIiNS_4lessIiEEE16Tree_grid_squareEPNS_11__tree_nodeIS6_PvEElEEbEC2B8ue170006INS_15__tree_iteratorIS6_SA_lEEbLS8_0EEEONS0_IT_T0_EE, symObjAddr: 0xB52C, symBinAddr: 0x10000BC64, symSize: 0x50 }
  - { offsetInCU: 0x1CFC0, offset: 0x1CFC0, size: 0x8, addend: 0x0, symName: __ZNSt3__121__tree_const_iteratorIN16BinarySearchTreeIiNS_4lessIiEEE16Tree_grid_squareEPNS_11__tree_nodeIS5_PvEElEC1B8ue170006ENS_15__tree_iteratorIS5_S9_lEE, symObjAddr: 0xB57C, symBinAddr: 0x10000BCB4, symSize: 0x34 }
  - { offsetInCU: 0x1CFF9, offset: 0x1CFF9, size: 0x8, addend: 0x0, symName: __ZNSt3__121__tree_const_iteratorIN16BinarySearchTreeIiNS_4lessIiEEE16Tree_grid_squareEPNS_11__tree_nodeIS5_PvEElEC2B8ue170006ENS_15__tree_iteratorIS5_S9_lEE, symObjAddr: 0xB5B0, symBinAddr: 0x10000BCE8, symSize: 0x20 }
  - { offsetInCU: 0x1D032, offset: 0x1D032, size: 0x8, addend: 0x0, symName: __ZN16BinarySearchTreeIiNSt3__14lessIiEEE16Tree_grid_squareC2IiEEiiT_, symObjAddr: 0xB5D0, symBinAddr: 0x10000BD08, symSize: 0xE4 }
  - { offsetInCU: 0x1D0A4, offset: 0x1D0A4, size: 0x8, addend: 0x0, symName: __ZNSt3__112basic_stringIcNS_11char_traitsIcEENS_9allocatorIcEEEaSB8ue170006EOS5_, symObjAddr: 0xB6B4, symBinAddr: 0x10000BDEC, symSize: 0x34 }
  - { offsetInCU: 0x1D0D9, offset: 0x1D0D9, size: 0x8, addend: 0x0, symName: __ZNSt3__112basic_stringIcNS_11char_traitsIcEENS_9allocatorIcEEE13__move_assignB8ue170006ERS5_NS_17integral_constantIbLb1EEE, symObjAddr: 0xB6E8, symBinAddr: 0x10000BE20, symSize: 0xC8 }
  - { offsetInCU: 0x1D11C, offset: 0x1D11C, size: 0x8, addend: 0x0, symName: __ZNSt3__116allocator_traitsINS_9allocatorIcEEE10deallocateB8ue170006ERS2_Pcm, symObjAddr: 0xB7B0, symBinAddr: 0x10000BEE8, symSize: 0x34 }
  - { offsetInCU: 0x1D15E, offset: 0x1D15E, size: 0x8, addend: 0x0, symName: __ZNSt3__112basic_stringIcNS_11char_traitsIcEENS_9allocatorIcEEE7__allocB8ue170006Ev, symObjAddr: 0xB7E4, symBinAddr: 0x10000BF1C, symSize: 0x24 }
  - { offsetInCU: 0x1D184, offset: 0x1D184, size: 0x8, addend: 0x0, symName: __ZNKSt3__112basic_stringIcNS_11char_traitsIcEENS_9allocatorIcEEE14__get_long_capB8ue170006Ev, symObjAddr: 0xB808, symBinAddr: 0x10000BF40, symSize: 0x30 }
  - { offsetInCU: 0x1D1AA, offset: 0x1D1AA, size: 0x8, addend: 0x0, symName: __ZNSt3__112basic_stringIcNS_11char_traitsIcEENS_9allocatorIcEEE19__move_assign_allocB8ue170006ERS5_, symObjAddr: 0xB838, symBinAddr: 0x10000BF70, symSize: 0x2C }
  - { offsetInCU: 0x1D1DF, offset: 0x1D1DF, size: 0x8, addend: 0x0, symName: __ZNSt3__112basic_stringIcNS_11char_traitsIcEENS_9allocatorIcEEE16__set_short_sizeB8ue170006Em, symObjAddr: 0xB864, symBinAddr: 0x10000BF9C, symSize: 0x78 }
  - { offsetInCU: 0x1D214, offset: 0x1D214, size: 0x8, addend: 0x0, symName: __ZNSt3__111char_traitsIcE6assignB8ue170006ERcRKc, symObjAddr: 0xB8DC, symBinAddr: 0x10000C014, symSize: 0x24 }
  - { offsetInCU: 0x1D245, offset: 0x1D245, size: 0x8, addend: 0x0, symName: __ZNSt3__19allocatorIcE10deallocateB8ue170006EPcm, symObjAddr: 0xB900, symBinAddr: 0x10000C038, symSize: 0x40 }
  - { offsetInCU: 0x1D287, offset: 0x1D287, size: 0x8, addend: 0x0, symName: __ZNSt3__117__compressed_pairINS_12basic_stringIcNS_11char_traitsIcEENS_9allocatorIcEEE5__repES5_E6secondB8ue170006Ev, symObjAddr: 0xB940, symBinAddr: 0x10000C078, symSize: 0x24 }
  - { offsetInCU: 0x1D2AD, offset: 0x1D2AD, size: 0x8, addend: 0x0, symName: __ZNSt3__122__compressed_pair_elemINS_9allocatorIcEELi1ELb1EE5__getB8ue170006Ev, symObjAddr: 0xB964, symBinAddr: 0x10000C09C, symSize: 0x14 }
  - { offsetInCU: 0x1D2D3, offset: 0x1D2D3, size: 0x8, addend: 0x0, symName: __ZNSt3__112basic_stringIcNS_11char_traitsIcEENS_9allocatorIcEEE19__move_assign_allocB8ue170006ERS5_NS_17integral_constantIbLb1EEE, symObjAddr: 0xB978, symBinAddr: 0x10000C0B0, symSize: 0x38 }
  - { offsetInCU: 0x1D314, offset: 0x1D314, size: 0x8, addend: 0x0, symName: __ZN16BinarySearchTreeIiNSt3__14lessIiEEE16Tree_grid_squareC2IPKcEEiiT_, symObjAddr: 0xB9F4, symBinAddr: 0x10000C12C, symSize: 0xE4 }
  - { offsetInCU: 0x1D386, offset: 0x1D386, size: 0x8, addend: 0x0, symName: __ZNSt3__16__treeIN16BinarySearchTreeIiNS_4lessIiEEE16Tree_grid_squareENS2_IS5_EENS_9allocatorIS5_EEE4findIS5_EENS_15__tree_iteratorIS5_PNS_11__tree_nodeIS5_PvEElEERKT_, symObjAddr: 0xBAD8, symBinAddr: 0x10000C210, symSize: 0xF8 }
  - { offsetInCU: 0x1D3D5, offset: 0x1D3D5, size: 0x8, addend: 0x0, symName: __ZNSt3__16__treeIN16BinarySearchTreeIiNS_4lessIiEEE16Tree_grid_squareENS2_IS5_EENS_9allocatorIS5_EEE13__lower_boundIS5_EENS_15__tree_iteratorIS5_PNS_11__tree_nodeIS5_PvEElEERKT_SF_PNS_15__tree_end_nodeIPNS_16__tree_node_baseISD_EEEE, symObjAddr: 0xBBD0, symBinAddr: 0x10000C308, symSize: 0xA4 }
  - { offsetInCU: 0x1D433, offset: 0x1D433, size: 0x8, addend: 0x0, symName: __ZNSt3__16__treeIN16BinarySearchTreeIiNS_4lessIiEEE16Tree_grid_squareENS2_IS5_EENS_9allocatorIS5_EEE3endB8ue170006Ev, symObjAddr: 0xBCA8, symBinAddr: 0x10000C3E0, symSize: 0x34 }
  - { offsetInCU: 0x1D459, offset: 0x1D459, size: 0x8, addend: 0x0, symName: __ZNKSt3__115__tree_iteratorIN16BinarySearchTreeIiNS_4lessIiEEE16Tree_grid_squareEPNS_11__tree_nodeIS5_PvEElEdeB8ue170006Ev, symObjAddr: 0xBCDC, symBinAddr: 0x10000C414, symSize: 0x28 }
  - { offsetInCU: 0x1D47F, offset: 0x1D47F, size: 0x8, addend: 0x0, symName: __ZNSt3__115__tree_iteratorIN16BinarySearchTreeIiNS_4lessIiEEE16Tree_grid_squareEPNS_11__tree_nodeIS5_PvEElEC1B8ue170006EPNS_15__tree_end_nodeIPNS_16__tree_node_baseIS7_EEEE, symObjAddr: 0xBD04, symBinAddr: 0x10000C43C, symSize: 0x34 }
  - { offsetInCU: 0x1D4B8, offset: 0x1D4B8, size: 0x8, addend: 0x0, symName: __ZNSt3__115__tree_iteratorIN16BinarySearchTreeIiNS_4lessIiEEE16Tree_grid_squareEPNS_11__tree_nodeIS5_PvEElEC2B8ue170006EPNS_15__tree_end_nodeIPNS_16__tree_node_baseIS7_EEEE, symObjAddr: 0xBD38, symBinAddr: 0x10000C470, symSize: 0x20 }
  - { offsetInCU: 0x1D4F1, offset: 0x1D4F1, size: 0x8, addend: 0x0, symName: __ZNKSt3__115__tree_iteratorIN16BinarySearchTreeIiNS_4lessIiEEE16Tree_grid_squareEPNS_11__tree_nodeIS5_PvEElE8__get_npB8ue170006Ev, symObjAddr: 0xBD88, symBinAddr: 0x10000C4C0, symSize: 0x18 }
  - { offsetInCU: 0x1D517, offset: 0x1D517, size: 0x8, addend: 0x0, symName: __ZNSt3__16__treeIN16BinarySearchTreeIiNS_4lessIiEEE16Tree_grid_squareENS2_IS5_EENS_9allocatorIS5_EEE5eraseENS_21__tree_const_iteratorIS5_PNS_11__tree_nodeIS5_PvEElEE, symObjAddr: 0xBDD0, symBinAddr: 0x10000C508, symSize: 0x98 }
  - { offsetInCU: 0x1D57B, offset: 0x1D57B, size: 0x8, addend: 0x0, symName: __ZNKSt3__121__tree_const_iteratorIN16BinarySearchTreeIiNS_4lessIiEEE16Tree_grid_squareEPNS_11__tree_nodeIS5_PvEElE8__get_npB8ue170006Ev, symObjAddr: 0xBE68, symBinAddr: 0x10000C5A0, symSize: 0x18 }
  - { offsetInCU: 0x1D5A1, offset: 0x1D5A1, size: 0x8, addend: 0x0, symName: __ZNSt3__16__treeIN16BinarySearchTreeIiNS_4lessIiEEE16Tree_grid_squareENS2_IS5_EENS_9allocatorIS5_EEE21__remove_node_pointerEPNS_11__tree_nodeIS5_PvEE, symObjAddr: 0xBE80, symBinAddr: 0x10000C5B8, symSize: 0xB4 }
  - { offsetInCU: 0x1D5E7, offset: 0x1D5E7, size: 0x8, addend: 0x0, symName: __ZNKSt3__121__tree_const_iteratorIN16BinarySearchTreeIiNS_4lessIiEEE16Tree_grid_squareEPNS_11__tree_nodeIS5_PvEElEdeB8ue170006Ev, symObjAddr: 0xBF34, symBinAddr: 0x10000C66C, symSize: 0x28 }
  - { offsetInCU: 0x1D60D, offset: 0x1D60D, size: 0x8, addend: 0x0, symName: __ZNSt3__115__tree_iteratorIN16BinarySearchTreeIiNS_4lessIiEEE16Tree_grid_squareEPNS_11__tree_nodeIS5_PvEElEppB8ue170006Ev, symObjAddr: 0xBF5C, symBinAddr: 0x10000C694, symSize: 0x38 }
  - { offsetInCU: 0x1D633, offset: 0x1D633, size: 0x8, addend: 0x0, symName: __ZNSt3__16__treeIN16BinarySearchTreeIiNS_4lessIiEEE16Tree_grid_squareENS2_IS5_EENS_9allocatorIS5_EEE15__insert_uniqueB8ue170006ERKS5_, symObjAddr: 0xC7B4, symBinAddr: 0x10000CEEC, symSize: 0x50 }
  - { offsetInCU: 0x1D668, offset: 0x1D668, size: 0x8, addend: 0x0, symName: __ZNSt3__16__treeIN16BinarySearchTreeIiNS_4lessIiEEE16Tree_grid_squareENS2_IS5_EENS_9allocatorIS5_EEE25__emplace_unique_key_argsIS5_JRKS5_EEENS_4pairINS_15__tree_iteratorIS5_PNS_11__tree_nodeIS5_PvEElEEbEERKT_DpOT0_, symObjAddr: 0xC804, symBinAddr: 0x10000CF3C, symSize: 0xF0 }
  - { offsetInCU: 0x1D714, offset: 0x1D714, size: 0x8, addend: 0x0, symName: __ZNSt3__16__treeIN16BinarySearchTreeIiNS_4lessIiEEE16Tree_grid_squareENS2_IS5_EENS_9allocatorIS5_EEE16__construct_nodeIJRKS5_EEENS_10unique_ptrINS_11__tree_nodeIS5_PvEENS_22__tree_node_destructorINS7_ISG_EEEEEEDpOT_, symObjAddr: 0xC8F4, symBinAddr: 0x10000D02C, symSize: 0x108 }
  - { offsetInCU: 0x1D775, offset: 0x1D775, size: 0x8, addend: 0x0, symName: __ZNSt3__116allocator_traitsINS_9allocatorINS_11__tree_nodeIN16BinarySearchTreeIiNS_4lessIiEEE16Tree_grid_squareEPvEEEEE9constructB8ue170006IS7_JRKS7_EvEEvRSA_PT_DpOT0_, symObjAddr: 0xC9FC, symBinAddr: 0x10000D134, symSize: 0x34 }
  - { offsetInCU: 0x1D7CC, offset: 0x1D7CC, size: 0x8, addend: 0x0, symName: __ZNSt3__19allocatorINS_11__tree_nodeIN16BinarySearchTreeIiNS_4lessIiEEE16Tree_grid_squareEPvEEE9constructB8ue170006IS6_JRKS6_EEEvPT_DpOT0_, symObjAddr: 0xCA30, symBinAddr: 0x10000D168, symSize: 0x30 }
  - { offsetInCU: 0x1D822, offset: 0x1D822, size: 0x8, addend: 0x0, symName: __ZN16BinarySearchTreeIiNSt3__14lessIiEEE16Tree_grid_squareC1ERKS4_, symObjAddr: 0xCA60, symBinAddr: 0x10000D198, symSize: 0x34 }
  - { offsetInCU: 0x1D858, offset: 0x1D858, size: 0x8, addend: 0x0, symName: __ZN16BinarySearchTreeIiNSt3__14lessIiEEE16Tree_grid_squareC2ERKS4_, symObjAddr: 0xCA94, symBinAddr: 0x10000D1CC, symSize: 0x48 }
  - { offsetInCU: 0x1D88E, offset: 0x1D88E, size: 0x8, addend: 0x0, symName: __ZNSt3__13setIN16BinarySearchTreeIiNS_4lessIiEEE16Tree_grid_squareENS2_IS5_EENS_9allocatorIS5_EEED2B8ue170006Ev, symObjAddr: 0xCADC, symBinAddr: 0x10000D214, symSize: 0x2C }
  - { offsetInCU: 0x1D8B8, offset: 0x1D8B8, size: 0x8, addend: 0x0, symName: __ZNSt3__16__treeIN16BinarySearchTreeIiNS_4lessIiEEE16Tree_grid_squareENS2_IS5_EENS_9allocatorIS5_EEED1Ev, symObjAddr: 0xCB08, symBinAddr: 0x10000D240, symSize: 0x2C }
  - { offsetInCU: 0x1D8E4, offset: 0x1D8E4, size: 0x8, addend: 0x0, symName: __ZNSt3__16__treeIN16BinarySearchTreeIiNS_4lessIiEEE16Tree_grid_squareENS2_IS5_EENS_9allocatorIS5_EEED2Ev, symObjAddr: 0xCB34, symBinAddr: 0x10000D26C, symSize: 0x38 }
  - { offsetInCU: 0x1D910, offset: 0x1D910, size: 0x8, addend: 0x0, symName: __ZNSt3__16__treeIN16BinarySearchTreeIiNS_4lessIiEEE16Tree_grid_squareENS2_IS5_EENS_9allocatorIS5_EEE7destroyEPNS_11__tree_nodeIS5_PvEE, symObjAddr: 0xCB6C, symBinAddr: 0x10000D2A4, symSize: 0x9C }
  - { offsetInCU: 0x1D964, offset: 0x1D964, size: 0x8, addend: 0x0, symName: __ZNKSt3__13setIN16BinarySearchTreeIiNS_4lessIiEEE16Tree_grid_squareENS2_IS5_EENS_9allocatorIS5_EEE4findB8ue170006ERKS5_, symObjAddr: 0xCC08, symBinAddr: 0x10000D340, symSize: 0x34 }
  - { offsetInCU: 0x1D999, offset: 0x1D999, size: 0x8, addend: 0x0, symName: __ZNKSt3__13setIN16BinarySearchTreeIiNS_4lessIiEEE16Tree_grid_squareENS2_IS5_EENS_9allocatorIS5_EEE3endB8ue170006Ev, symObjAddr: 0xCC3C, symBinAddr: 0x10000D374, symSize: 0x2C }
  - { offsetInCU: 0x1D9BF, offset: 0x1D9BF, size: 0x8, addend: 0x0, symName: __ZNKSt3__16__treeIN16BinarySearchTreeIiNS_4lessIiEEE16Tree_grid_squareENS2_IS5_EENS_9allocatorIS5_EEE4findIS5_EENS_21__tree_const_iteratorIS5_PNS_11__tree_nodeIS5_PvEElEERKT_, symObjAddr: 0xCC68, symBinAddr: 0x10000D3A0, symSize: 0xF8 }
  - { offsetInCU: 0x1DA0E, offset: 0x1DA0E, size: 0x8, addend: 0x0, symName: __ZNKSt3__16__treeIN16BinarySearchTreeIiNS_4lessIiEEE16Tree_grid_squareENS2_IS5_EENS_9allocatorIS5_EEE13__lower_boundIS5_EENS_21__tree_const_iteratorIS5_PNS_11__tree_nodeIS5_PvEElEERKT_SF_PNS_15__tree_end_nodeIPNS_16__tree_node_baseISD_EEEE, symObjAddr: 0xCD60, symBinAddr: 0x10000D498, symSize: 0xA4 }
  - { offsetInCU: 0x1DA6C, offset: 0x1DA6C, size: 0x8, addend: 0x0, symName: __ZNKSt3__16__treeIN16BinarySearchTreeIiNS_4lessIiEEE16Tree_grid_squareENS2_IS5_EENS_9allocatorIS5_EEE3endB8ue170006Ev, symObjAddr: 0xCE04, symBinAddr: 0x10000D53C, symSize: 0x34 }
  - { offsetInCU: 0x1DA92, offset: 0x1DA92, size: 0x8, addend: 0x0, symName: __ZNKSt3__16__treeIN16BinarySearchTreeIiNS_4lessIiEEE16Tree_grid_squareENS2_IS5_EENS_9allocatorIS5_EEE10value_compB8ue170006Ev, symObjAddr: 0xCE38, symBinAddr: 0x10000D570, symSize: 0x28 }
  - { offsetInCU: 0x1DAB8, offset: 0x1DAB8, size: 0x8, addend: 0x0, symName: __ZNSt3__121__tree_const_iteratorIN16BinarySearchTreeIiNS_4lessIiEEE16Tree_grid_squareEPNS_11__tree_nodeIS5_PvEElEC1B8ue170006EPNS_15__tree_end_nodeIPNS_16__tree_node_baseIS7_EEEE, symObjAddr: 0xCE60, symBinAddr: 0x10000D598, symSize: 0x34 }
  - { offsetInCU: 0x1DAF1, offset: 0x1DAF1, size: 0x8, addend: 0x0, symName: __ZNSt3__121__tree_const_iteratorIN16BinarySearchTreeIiNS_4lessIiEEE16Tree_grid_squareEPNS_11__tree_nodeIS5_PvEElEC2B8ue170006EPNS_15__tree_end_nodeIPNS_16__tree_node_baseIS7_EEEE, symObjAddr: 0xCE94, symBinAddr: 0x10000D5CC, symSize: 0x20 }
  - { offsetInCU: 0x1DB2A, offset: 0x1DB2A, size: 0x8, addend: 0x0, symName: __ZNKSt3__117__compressed_pairImNS_4lessIN16BinarySearchTreeIiNS1_IiEEE16Tree_grid_squareEEEE6secondB8ue170006Ev, symObjAddr: 0xCEB4, symBinAddr: 0x10000D5EC, symSize: 0x24 }
  - { offsetInCU: 0x1DB50, offset: 0x1DB50, size: 0x8, addend: 0x0, symName: __ZNKSt3__122__compressed_pair_elemINS_4lessIN16BinarySearchTreeIiNS1_IiEEE16Tree_grid_squareEEELi1ELb1EE5__getB8ue170006Ev, symObjAddr: 0xCED8, symBinAddr: 0x10000D610, symSize: 0x14 }
  - { offsetInCU: 0x1DB76, offset: 0x1DB76, size: 0x8, addend: 0x0, symName: __ZN16BinarySearchTreeIiNSt3__14lessIiEEE16Tree_grid_squareC2Eii, symObjAddr: 0xCEEC, symBinAddr: 0x10000D624, symSize: 0x48 }
  - { offsetInCU: 0x1DBBC, offset: 0x1DBBC, size: 0x8, addend: 0x0, symName: __ZN16BinarySearchTreeIiNSt3__14lessIiEEE16Tree_grid_squareD2Ev, symObjAddr: 0xCF34, symBinAddr: 0x10000D66C, symSize: 0x30 }
  - { offsetInCU: 0x1DBE9, offset: 0x1DBE9, size: 0x8, addend: 0x0, symName: __ZNSt3__18ios_base4setfB8ue170006Ejj, symObjAddr: 0xCF64, symBinAddr: 0x10000D69C, symSize: 0x5C }
  - { offsetInCU: 0x1DC3E, offset: 0x1DC3E, size: 0x8, addend: 0x0, symName: __ZNSt3__18ios_base6unsetfB8ue170006Ej, symObjAddr: 0xCFC0, symBinAddr: 0x10000D6F8, symSize: 0x28 }
  - { offsetInCU: 0x1DC75, offset: 0x1DC75, size: 0x8, addend: 0x0, symName: __ZNSt3__18__iom_t6C1B8ue170006Ei, symObjAddr: 0xCFE8, symBinAddr: 0x10000D720, symSize: 0x34 }
  - { offsetInCU: 0x1DCAD, offset: 0x1DCAD, size: 0x8, addend: 0x0, symName: __ZNSt3__18__iom_t6C2B8ue170006Ei, symObjAddr: 0xD01C, symBinAddr: 0x10000D754, symSize: 0x20 }
  - { offsetInCU: 0x1DCE5, offset: 0x1DCE5, size: 0x8, addend: 0x0, symName: __ZN16BinarySearchTreeIiNSt3__14lessIiEEE9Tree_gridD2Ev, symObjAddr: 0xD03C, symBinAddr: 0x10000D774, symSize: 0x2C }
  - { offsetInCU: 0x1DD12, offset: 0x1DD12, size: 0x8, addend: 0x0, symName: __ZNK16BinarySearchTreeIiNSt3__14lessIiEEE5beginEv, symObjAddr: 0xD068, symBinAddr: 0x10000D7A0, symSize: 0x70 }
  - { offsetInCU: 0x1DD38, offset: 0x1DD38, size: 0x8, addend: 0x0, symName: __ZN16BinarySearchTreeIiNSt3__14lessIiEEE8IteratorppEv, symObjAddr: 0xD0D8, symBinAddr: 0x10000D810, symSize: 0x78 }
  - { offsetInCU: 0x1DD5E, offset: 0x1DD5E, size: 0x8, addend: 0x0, symName: __ZNSt3__19basic_iosIcNS_11char_traitsIcEEEC2B8ue170006Ev, symObjAddr: 0xD150, symBinAddr: 0x10000D888, symSize: 0x44 }
  - { offsetInCU: 0x1DD88, offset: 0x1DD88, size: 0x8, addend: 0x0, symName: __ZNSt3__113basic_ostreamIcNS_11char_traitsIcEEEC2B8ue170006EPNS_15basic_streambufIcS2_EE, symObjAddr: 0xD194, symBinAddr: 0x10000D8CC, symSize: 0x60 }
  - { offsetInCU: 0x1DDCD, offset: 0x1DDCD, size: 0x8, addend: 0x0, symName: __ZNSt3__115basic_stringbufIcNS_11char_traitsIcEENS_9allocatorIcEEEC1B8ue170006Ej, symObjAddr: 0xD1F4, symBinAddr: 0x10000D92C, symSize: 0x34 }
  - { offsetInCU: 0x1DE06, offset: 0x1DE06, size: 0x8, addend: 0x0, symName: __ZNSt3__18ios_baseC2B8ue170006Ev, symObjAddr: 0xD228, symBinAddr: 0x10000D960, symSize: 0x24 }
  - { offsetInCU: 0x1DE30, offset: 0x1DE30, size: 0x8, addend: 0x0, symName: __ZNSt3__19basic_iosIcNS_11char_traitsIcEEE4initB8ue170006EPNS_15basic_streambufIcS2_EE, symObjAddr: 0xD24C, symBinAddr: 0x10000D984, symSize: 0x44 }
  - { offsetInCU: 0x1DE67, offset: 0x1DE67, size: 0x8, addend: 0x0, symName: __ZNSt3__115basic_stringbufIcNS_11char_traitsIcEENS_9allocatorIcEEEC2B8ue170006Ej, symObjAddr: 0xD290, symBinAddr: 0x10000D9C8, symSize: 0x60 }
  - { offsetInCU: 0x1DEA0, offset: 0x1DEA0, size: 0x8, addend: 0x0, symName: __ZN16BinarySearchTreeIiNSt3__14lessIiEEE22traverse_preorder_implEPKNS3_4NodeERNS0_13basic_ostreamIcNS0_11char_traitsIcEEEE, symObjAddr: 0xD2F0, symBinAddr: 0x10000DA28, symSize: 0x78 }
  - { offsetInCU: 0x1DED3, offset: 0x1DED3, size: 0x8, addend: 0x0, symName: __ZN16BinarySearchTreeIiNSt3__14lessIiEEE21traverse_inorder_implEPKNS3_4NodeERNS0_13basic_ostreamIcNS0_11char_traitsIcEEEE, symObjAddr: 0xD368, symBinAddr: 0x10000DAA0, symSize: 0x78 }
  - { offsetInCU: 0x1DF06, offset: 0x1DF06, size: 0x8, addend: 0x0, symName: __ZNSt3__119basic_ostringstreamIcNS_11char_traitsIcEENS_9allocatorIcEEED2Ev, symObjAddr: 0xD3E0, symBinAddr: 0x10000DB18, symSize: 0x64 }
  - { offsetInCU: 0x1DF40, offset: 0x1DF40, size: 0x8, addend: 0x0, symName: __ZTv0_n24_NSt3__119basic_ostringstreamIcNS_11char_traitsIcEENS_9allocatorIcEEED1Ev, symObjAddr: 0xD444, symBinAddr: 0x10000DB7C, symSize: 0x28 }
  - { offsetInCU: 0x1DF5C, offset: 0x1DF5C, size: 0x8, addend: 0x0, symName: __ZNSt3__115basic_stringbufIcNS_11char_traitsIcEENS_9allocatorIcEEED1Ev, symObjAddr: 0xD46C, symBinAddr: 0x10000DBA4, symSize: 0x2C }
  - { offsetInCU: 0x1DF89, offset: 0x1DF89, size: 0x8, addend: 0x0, symName: __ZNSt3__115basic_stringbufIcNS_11char_traitsIcEENS_9allocatorIcEEED2Ev, symObjAddr: 0xD498, symBinAddr: 0x10000DBD0, symSize: 0x48 }
  - { offsetInCU: 0x1DFB6, offset: 0x1DFB6, size: 0x8, addend: 0x0, symName: __ZN16BinarySearchTreeIiNSt3__14lessIiEEED2Ev, symObjAddr: 0xD4E0, symBinAddr: 0x10000DC18, symSize: 0x38 }
  - { offsetInCU: 0x1DFE0, offset: 0x1DFE0, size: 0x8, addend: 0x0, symName: __ZN16BinarySearchTreeIiNSt3__14lessIiEEE18destroy_nodes_implEPNS3_4NodeE, symObjAddr: 0xD518, symBinAddr: 0x10000DC50, symSize: 0x70 }
  - { offsetInCU: 0x1E004, offset: 0x1E004, size: 0x8, addend: 0x0, symName: __ZN19unit_test_framework9TestSuiteC1Ev, symObjAddr: 0xD588, symBinAddr: 0x10000DCC0, symSize: 0x2C }
  - { offsetInCU: 0x1E02E, offset: 0x1E02E, size: 0x8, addend: 0x0, symName: __ZN19unit_test_framework9TestSuiteC2Ev, symObjAddr: 0xD5B4, symBinAddr: 0x10000DCEC, symSize: 0x68 }
  - { offsetInCU: 0x1E09B, offset: 0x1E09B, size: 0x8, addend: 0x0, symName: __ZNSt3__13mapINS_12basic_stringIcNS_11char_traitsIcEENS_9allocatorIcEEEEN19unit_test_framework8TestCaseENS_4lessIS6_EENS4_INS_4pairIKS6_S8_EEEEEC1B8ue170006Ev, symObjAddr: 0xD61C, symBinAddr: 0x10000DD54, symSize: 0x2C }
  - { offsetInCU: 0x1E0CF, offset: 0x1E0CF, size: 0x8, addend: 0x0, symName: __ZZN19unit_test_framework9TestSuiteC1EvENKUlvE_cvPFvvEEv, symObjAddr: 0xD648, symBinAddr: 0x10000DD80, symSize: 0x18 }
  - { offsetInCU: 0x1E0FC, offset: 0x1E0FC, size: 0x8, addend: 0x0, symName: __ZNSt3__13mapINS_12basic_stringIcNS_11char_traitsIcEENS_9allocatorIcEEEEN19unit_test_framework8TestCaseENS_4lessIS6_EENS4_INS_4pairIKS6_S8_EEEEED1B8ue170006Ev, symObjAddr: 0xD660, symBinAddr: 0x10000DD98, symSize: 0x2C }
  - { offsetInCU: 0x1E126, offset: 0x1E126, size: 0x8, addend: 0x0, symName: __ZNSt3__13mapINS_12basic_stringIcNS_11char_traitsIcEENS_9allocatorIcEEEEN19unit_test_framework8TestCaseENS_4lessIS6_EENS4_INS_4pairIKS6_S8_EEEEEC2B8ue170006Ev, symObjAddr: 0xD68C, symBinAddr: 0x10000DDC4, symSize: 0x40 }
  - { offsetInCU: 0x1E150, offset: 0x1E150, size: 0x8, addend: 0x0, symName: __ZNSt3__119__map_value_compareINS_12basic_stringIcNS_11char_traitsIcEENS_9allocatorIcEEEENS_12__value_typeIS6_N19unit_test_framework8TestCaseEEENS_4lessIS6_EELb1EEC1B8ue170006ESC_, symObjAddr: 0xD6CC, symBinAddr: 0x10000DE04, symSize: 0x2C }
  - { offsetInCU: 0x1E189, offset: 0x1E189, size: 0x8, addend: 0x0, symName: __ZNSt3__16__treeINS_12__value_typeINS_12basic_stringIcNS_11char_traitsIcEENS_9allocatorIcEEEEN19unit_test_framework8TestCaseEEENS_19__map_value_compareIS7_SA_NS_4lessIS7_EELb1EEENS5_ISA_EEEC1ERKSE_, symObjAddr: 0xD6F8, symBinAddr: 0x10000DE30, symSize: 0x34 }
  - { offsetInCU: 0x1E1C4, offset: 0x1E1C4, size: 0x8, addend: 0x0, symName: __ZNSt3__119__map_value_compareINS_12basic_stringIcNS_11char_traitsIcEENS_9allocatorIcEEEENS_12__value_typeIS6_N19unit_test_framework8TestCaseEEENS_4lessIS6_EELb1EEC2B8ue170006ESC_, symObjAddr: 0xD72C, symBinAddr: 0x10000DE64, symSize: 0x14 }
  - { offsetInCU: 0x1E1FD, offset: 0x1E1FD, size: 0x8, addend: 0x0, symName: __ZNSt3__16__treeINS_12__value_typeINS_12basic_stringIcNS_11char_traitsIcEENS_9allocatorIcEEEEN19unit_test_framework8TestCaseEEENS_19__map_value_compareIS7_SA_NS_4lessIS7_EELb1EEENS5_ISA_EEEC2ERKSE_, symObjAddr: 0xD740, symBinAddr: 0x10000DE78, symSize: 0x7C }
  - { offsetInCU: 0x1E238, offset: 0x1E238, size: 0x8, addend: 0x0, symName: __ZNSt3__117__compressed_pairINS_15__tree_end_nodeIPNS_16__tree_node_baseIPvEEEENS_9allocatorINS_11__tree_nodeINS_12__value_typeINS_12basic_stringIcNS_11char_traitsIcEENS7_IcEEEEN19unit_test_framework8TestCaseEEES3_EEEEEC1B8ue170006ILb1EvEEv, symObjAddr: 0xD7BC, symBinAddr: 0x10000DEF4, symSize: 0x2C }
  - { offsetInCU: 0x1E26D, offset: 0x1E26D, size: 0x8, addend: 0x0, symName: __ZNSt3__117__compressed_pairImNS_19__map_value_compareINS_12basic_stringIcNS_11char_traitsIcEENS_9allocatorIcEEEENS_12__value_typeIS7_N19unit_test_framework8TestCaseEEENS_4lessIS7_EELb1EEEEC1B8ue170006IiRKSE_EEOT_OT0_, symObjAddr: 0xD7E8, symBinAddr: 0x10000DF20, symSize: 0x3C }
  - { offsetInCU: 0x1E2C5, offset: 0x1E2C5, size: 0x8, addend: 0x0, symName: __ZNSt3__117__compressed_pairINS_15__tree_end_nodeIPNS_16__tree_node_baseIPvEEEENS_9allocatorINS_11__tree_nodeINS_12__value_typeINS_12basic_stringIcNS_11char_traitsIcEENS7_IcEEEEN19unit_test_framework8TestCaseEEES3_EEEEEC2B8ue170006ILb1EvEEv, symObjAddr: 0xD824, symBinAddr: 0x10000DF5C, symSize: 0x34 }
  - { offsetInCU: 0x1E2FA, offset: 0x1E2FA, size: 0x8, addend: 0x0, symName: __ZNSt3__122__compressed_pair_elemINS_9allocatorINS_11__tree_nodeINS_12__value_typeINS_12basic_stringIcNS_11char_traitsIcEENS1_IcEEEEN19unit_test_framework8TestCaseEEEPvEEEELi1ELb1EEC2B8ue170006ENS_16__value_init_tagE, symObjAddr: 0xD858, symBinAddr: 0x10000DF90, symSize: 0x2C }
  - { offsetInCU: 0x1E32E, offset: 0x1E32E, size: 0x8, addend: 0x0, symName: __ZNSt3__19allocatorINS_11__tree_nodeINS_12__value_typeINS_12basic_stringIcNS_11char_traitsIcEENS0_IcEEEEN19unit_test_framework8TestCaseEEEPvEEEC2B8ue170006Ev, symObjAddr: 0xD884, symBinAddr: 0x10000DFBC, symSize: 0x2C }
  - { offsetInCU: 0x1E358, offset: 0x1E358, size: 0x8, addend: 0x0, symName: __ZNSt3__116__non_trivial_ifILb1ENS_9allocatorINS_11__tree_nodeINS_12__value_typeINS_12basic_stringIcNS_11char_traitsIcEENS1_IcEEEEN19unit_test_framework8TestCaseEEEPvEEEEEC2B8ue170006Ev, symObjAddr: 0xD8B0, symBinAddr: 0x10000DFE8, symSize: 0x14 }
  - { offsetInCU: 0x1E382, offset: 0x1E382, size: 0x8, addend: 0x0, symName: __ZNSt3__117__compressed_pairImNS_19__map_value_compareINS_12basic_stringIcNS_11char_traitsIcEENS_9allocatorIcEEEENS_12__value_typeIS7_N19unit_test_framework8TestCaseEEENS_4lessIS7_EELb1EEEEC2B8ue170006IiRKSE_EEOT_OT0_, symObjAddr: 0xD8C4, symBinAddr: 0x10000DFFC, symSize: 0x44 }
  - { offsetInCU: 0x1E3DA, offset: 0x1E3DA, size: 0x8, addend: 0x0, symName: __ZNSt3__122__compressed_pair_elemINS_19__map_value_compareINS_12basic_stringIcNS_11char_traitsIcEENS_9allocatorIcEEEENS_12__value_typeIS7_N19unit_test_framework8TestCaseEEENS_4lessIS7_EELb1EEELi1ELb1EEC2B8ue170006IRKSE_vEEOT_, symObjAddr: 0xD908, symBinAddr: 0x10000E040, symSize: 0x18 }
  - { offsetInCU: 0x1E41C, offset: 0x1E41C, size: 0x8, addend: 0x0, symName: __ZZN19unit_test_framework9TestSuiteC1EvENUlvE_8__invokeEv, symObjAddr: 0xD920, symBinAddr: 0x10000E058, symSize: 0x20 }
  - { offsetInCU: 0x1E437, offset: 0x1E437, size: 0x8, addend: 0x0, symName: __ZZN19unit_test_framework9TestSuiteC1EvENKUlvE_clEv, symObjAddr: 0xD940, symBinAddr: 0x10000E078, symSize: 0x50 }
  - { offsetInCU: 0x1E461, offset: 0x1E461, size: 0x8, addend: 0x0, symName: __ZNSt3__13mapINS_12basic_stringIcNS_11char_traitsIcEENS_9allocatorIcEEEEN19unit_test_framework8TestCaseENS_4lessIS6_EENS4_INS_4pairIKS6_S8_EEEEED2B8ue170006Ev, symObjAddr: 0xD990, symBinAddr: 0x10000E0C8, symSize: 0x2C }
  - { offsetInCU: 0x1E48B, offset: 0x1E48B, size: 0x8, addend: 0x0, symName: __ZNSt3__16__treeINS_12__value_typeINS_12basic_stringIcNS_11char_traitsIcEENS_9allocatorIcEEEEN19unit_test_framework8TestCaseEEENS_19__map_value_compareIS7_SA_NS_4lessIS7_EELb1EEENS5_ISA_EEED1Ev, symObjAddr: 0xD9BC, symBinAddr: 0x10000E0F4, symSize: 0x2C }
  - { offsetInCU: 0x1E4B7, offset: 0x1E4B7, size: 0x8, addend: 0x0, symName: __ZNSt3__16__treeINS_12__value_typeINS_12basic_stringIcNS_11char_traitsIcEENS_9allocatorIcEEEEN19unit_test_framework8TestCaseEEENS_19__map_value_compareIS7_SA_NS_4lessIS7_EELb1EEENS5_ISA_EEED2Ev, symObjAddr: 0xD9E8, symBinAddr: 0x10000E120, symSize: 0x38 }
  - { offsetInCU: 0x1E4E3, offset: 0x1E4E3, size: 0x8, addend: 0x0, symName: __ZNSt3__16__treeINS_12__value_typeINS_12basic_stringIcNS_11char_traitsIcEENS_9allocatorIcEEEEN19unit_test_framework8TestCaseEEENS_19__map_value_compareIS7_SA_NS_4lessIS7_EELb1EEENS5_ISA_EEE7destroyEPNS_11__tree_nodeISA_PvEE, symObjAddr: 0xDA20, symBinAddr: 0x10000E158, symSize: 0xA8 }
  - { offsetInCU: 0x1E534, offset: 0x1E534, size: 0x8, addend: 0x0, symName: __ZN19unit_test_framework11SetCompleteC1ERb, symObjAddr: 0xDAC8, symBinAddr: 0x10000E200, symSize: 0x34 }
  - { offsetInCU: 0x1E56C, offset: 0x1E56C, size: 0x8, addend: 0x0, symName: __ZNSt3__16vectorINS_12basic_stringIcNS_11char_traitsIcEENS_9allocatorIcEEEENS4_IS6_EEEC1B8ue170006Ev, symObjAddr: 0xDAFC, symBinAddr: 0x10000E234, symSize: 0x2C }
  - { offsetInCU: 0x1E596, offset: 0x1E596, size: 0x8, addend: 0x0, symName: __ZN19unit_test_framework9TestSuite21get_test_names_to_runEiPPc, symObjAddr: 0xDB28, symBinAddr: 0x10000E260, symSize: 0x630 }
  - { offsetInCU: 0x1E628, offset: 0x1E628, size: 0x8, addend: 0x0, symName: __ZNSt3__16vectorINS_12basic_stringIcNS_11char_traitsIcEENS_9allocatorIcEEEENS4_IS6_EEEaSB8ue170006EOS8_, symObjAddr: 0xE158, symBinAddr: 0x10000E890, symSize: 0x34 }
  - { offsetInCU: 0x1E65F, offset: 0x1E65F, size: 0x8, addend: 0x0, symName: __ZNSt3__16vectorINS_12basic_stringIcNS_11char_traitsIcEENS_9allocatorIcEEEENS4_IS6_EEED1B8ue170006Ev, symObjAddr: 0xE18C, symBinAddr: 0x10000E8C4, symSize: 0x2C }
  - { offsetInCU: 0x1E689, offset: 0x1E689, size: 0x8, addend: 0x0, symName: __ZNSt3__16vectorINS_12basic_stringIcNS_11char_traitsIcEENS_9allocatorIcEEEENS4_IS6_EEE5beginB8ue170006Ev, symObjAddr: 0xE1B8, symBinAddr: 0x10000E8F0, symSize: 0x30 }
  - { offsetInCU: 0x1E6B1, offset: 0x1E6B1, size: 0x8, addend: 0x0, symName: __ZNSt3__16vectorINS_12basic_stringIcNS_11char_traitsIcEENS_9allocatorIcEEEENS4_IS6_EEE3endB8ue170006Ev, symObjAddr: 0xE1E8, symBinAddr: 0x10000E920, symSize: 0x30 }
  - { offsetInCU: 0x1E6D9, offset: 0x1E6D9, size: 0x8, addend: 0x0, symName: __ZNKSt3__111__wrap_iterIPNS_12basic_stringIcNS_11char_traitsIcEENS_9allocatorIcEEEEEdeB8ue170006Ev, symObjAddr: 0xE24C, symBinAddr: 0x10000E984, symSize: 0x18 }
  - { offsetInCU: 0x1E6FF, offset: 0x1E6FF, size: 0x8, addend: 0x0, symName: __ZNSt3__13mapINS_12basic_stringIcNS_11char_traitsIcEENS_9allocatorIcEEEEN19unit_test_framework8TestCaseENS_4lessIS6_EENS4_INS_4pairIKS6_S8_EEEEE4findB8ue170006ERSC_, symObjAddr: 0xE294, symBinAddr: 0x10000E9CC, symSize: 0x40 }
  - { offsetInCU: 0x1E734, offset: 0x1E734, size: 0x8, addend: 0x0, symName: __ZNSt3__111__wrap_iterIPNS_12basic_stringIcNS_11char_traitsIcEENS_9allocatorIcEEEEEppB8ue170006Ev, symObjAddr: 0xE340, symBinAddr: 0x10000EA78, symSize: 0x20 }
  - { offsetInCU: 0x1E75A, offset: 0x1E75A, size: 0x8, addend: 0x0, symName: __ZNSt3__13mapINS_12basic_stringIcNS_11char_traitsIcEENS_9allocatorIcEEEEN19unit_test_framework8TestCaseENS_4lessIS6_EENS4_INS_4pairIKS6_S8_EEEEE2atERSC_, symObjAddr: 0xE360, symBinAddr: 0x10000EA98, symSize: 0x6C }
  - { offsetInCU: 0x1E7AF, offset: 0x1E7AF, size: 0x8, addend: 0x0, symName: __ZN19unit_test_framework8TestCase3runEb, symObjAddr: 0xE3CC, symBinAddr: 0x10000EB04, symSize: 0x364 }
  - { offsetInCU: 0x1E819, offset: 0x1E819, size: 0x8, addend: 0x0, symName: __ZN19unit_test_framework8TestCase5printEb, symObjAddr: 0xE730, symBinAddr: 0x10000EE68, symSize: 0x170 }
  - { offsetInCU: 0x1E84E, offset: 0x1E84E, size: 0x8, addend: 0x0, symName: __ZNSt3__13mapINS_12basic_stringIcNS_11char_traitsIcEENS_9allocatorIcEEEEN19unit_test_framework8TestCaseENS_4lessIS6_EENS4_INS_4pairIKS6_S8_EEEEE5beginB8ue170006Ev, symObjAddr: 0xE964, symBinAddr: 0x10000F09C, symSize: 0x38 }
  - { offsetInCU: 0x1E874, offset: 0x1E874, size: 0x8, addend: 0x0, symName: __ZNSt3__13mapINS_12basic_stringIcNS_11char_traitsIcEENS_9allocatorIcEEEEN19unit_test_framework8TestCaseENS_4lessIS6_EENS4_INS_4pairIKS6_S8_EEEEE3endB8ue170006Ev, symObjAddr: 0xE99C, symBinAddr: 0x10000F0D4, symSize: 0x38 }
  - { offsetInCU: 0x1E89A, offset: 0x1E89A, size: 0x8, addend: 0x0, symName: __ZNKSt3__16vectorINS_12basic_stringIcNS_11char_traitsIcEENS_9allocatorIcEEEENS4_IS6_EEE4sizeB8ue170006Ev, symObjAddr: 0xEA98, symBinAddr: 0x10000F1D0, symSize: 0x28 }
  - { offsetInCU: 0x1E8C0, offset: 0x1E8C0, size: 0x8, addend: 0x0, symName: __ZN19unit_test_framework11SetCompleteD1Ev, symObjAddr: 0xEAC0, symBinAddr: 0x10000F1F8, symSize: 0x2C }
  - { offsetInCU: 0x1E8EA, offset: 0x1E8EA, size: 0x8, addend: 0x0, symName: __ZN19unit_test_framework11SetCompleteC2ERb, symObjAddr: 0xEAEC, symBinAddr: 0x10000F224, symSize: 0x2C }
  - { offsetInCU: 0x1E922, offset: 0x1E922, size: 0x8, addend: 0x0, symName: __ZNSt3__16vectorINS_12basic_stringIcNS_11char_traitsIcEENS_9allocatorIcEEEENS4_IS6_EEEC2B8ue170006Ev, symObjAddr: 0xEB18, symBinAddr: 0x10000F250, symSize: 0x4C }
  - { offsetInCU: 0x1E94C, offset: 0x1E94C, size: 0x8, addend: 0x0, symName: __ZNSt3__117__compressed_pairIPNS_12basic_stringIcNS_11char_traitsIcEENS_9allocatorIcEEEENS4_IS6_EEEC1B8ue170006IDnNS_18__default_init_tagEEEOT_OT0_, symObjAddr: 0xEB64, symBinAddr: 0x10000F29C, symSize: 0x3C }
  - { offsetInCU: 0x1E9A4, offset: 0x1E9A4, size: 0x8, addend: 0x0, symName: __ZNSt3__117__compressed_pairIPNS_12basic_stringIcNS_11char_traitsIcEENS_9allocatorIcEEEENS4_IS6_EEEC2B8ue170006IDnNS_18__default_init_tagEEEOT_OT0_, symObjAddr: 0xEBA0, symBinAddr: 0x10000F2D8, symSize: 0x40 }
  - { offsetInCU: 0x1E9FC, offset: 0x1E9FC, size: 0x8, addend: 0x0, symName: __ZNSt3__122__compressed_pair_elemIPNS_12basic_stringIcNS_11char_traitsIcEENS_9allocatorIcEEEELi0ELb0EEC2B8ue170006IDnvEEOT_, symObjAddr: 0xEBE0, symBinAddr: 0x10000F318, symSize: 0x1C }
  - { offsetInCU: 0x1EA3E, offset: 0x1EA3E, size: 0x8, addend: 0x0, symName: __ZNSt3__122__compressed_pair_elemINS_9allocatorINS_12basic_stringIcNS_11char_traitsIcEENS1_IcEEEEEELi1ELb1EEC2B8ue170006ENS_18__default_init_tagE, symObjAddr: 0xEBFC, symBinAddr: 0x10000F334, symSize: 0x2C }
  - { offsetInCU: 0x1EA72, offset: 0x1EA72, size: 0x8, addend: 0x0, symName: __ZNSt3__19allocatorINS_12basic_stringIcNS_11char_traitsIcEENS0_IcEEEEEC2B8ue170006Ev, symObjAddr: 0xEC28, symBinAddr: 0x10000F360, symSize: 0x2C }
  - { offsetInCU: 0x1EA9C, offset: 0x1EA9C, size: 0x8, addend: 0x0, symName: __ZNSt3__116__non_trivial_ifILb1ENS_9allocatorINS_12basic_stringIcNS_11char_traitsIcEENS1_IcEEEEEEEC2B8ue170006Ev, symObjAddr: 0xEC54, symBinAddr: 0x10000F38C, symSize: 0x14 }
  - { offsetInCU: 0x1EAC6, offset: 0x1EAC6, size: 0x8, addend: 0x0, symName: __ZN19unit_test_framework9TestSuite16print_test_namesERNSt3__113basic_ostreamIcNS1_11char_traitsIcEEEE, symObjAddr: 0xED14, symBinAddr: 0x10000F44C, symSize: 0x8C }
  - { offsetInCU: 0x1EB52, offset: 0x1EB52, size: 0x8, addend: 0x0, symName: __ZN19unit_test_framework9ExitSuiteC1Ei, symObjAddr: 0xEDC8, symBinAddr: 0x10000F500, symSize: 0x34 }
  - { offsetInCU: 0x1EB8A, offset: 0x1EB8A, size: 0x8, addend: 0x0, symName: __ZN19unit_test_framework9ExitSuiteD1Ev, symObjAddr: 0xEDFC, symBinAddr: 0x10000F534, symSize: 0x2C }
  - { offsetInCU: 0x1EBB6, offset: 0x1EBB6, size: 0x8, addend: 0x0, symName: __ZN19unit_test_framework9TestSuite17enable_quiet_modeEv, symObjAddr: 0xEE28, symBinAddr: 0x10000F560, symSize: 0x1C }
  - { offsetInCU: 0x1EBDC, offset: 0x1EBDC, size: 0x8, addend: 0x0, symName: __ZNSt3__16vectorINS_12basic_stringIcNS_11char_traitsIcEENS_9allocatorIcEEEENS4_IS6_EEE9push_backB8ue170006EOS6_, symObjAddr: 0xEE44, symBinAddr: 0x10000F57C, symSize: 0x6C }
  - { offsetInCU: 0x1EC13, offset: 0x1EC13, size: 0x8, addend: 0x0, symName: __ZNKSt3__16vectorINS_12basic_stringIcNS_11char_traitsIcEENS_9allocatorIcEEEENS4_IS6_EEE5emptyB8ue170006Ev, symObjAddr: 0xEEB0, symBinAddr: 0x10000F5E8, symSize: 0x28 }
  - { offsetInCU: 0x1EC39, offset: 0x1EC39, size: 0x8, addend: 0x0, symName: __ZNKSt3__114__map_iteratorINS_15__tree_iteratorINS_12__value_typeINS_12basic_stringIcNS_11char_traitsIcEENS_9allocatorIcEEEEN19unit_test_framework8TestCaseEEEPNS_11__tree_nodeISB_PvEElEEEdeB8ue170006Ev, symObjAddr: 0xF064, symBinAddr: 0x10000F79C, symSize: 0x28 }
  - { offsetInCU: 0x1EC5F, offset: 0x1EC5F, size: 0x8, addend: 0x0, symName: __ZNSt3__114__map_iteratorINS_15__tree_iteratorINS_12__value_typeINS_12basic_stringIcNS_11char_traitsIcEENS_9allocatorIcEEEEN19unit_test_framework8TestCaseEEEPNS_11__tree_nodeISB_PvEElEEEppB8ue170006Ev, symObjAddr: 0xF08C, symBinAddr: 0x10000F7C4, symSize: 0x2C }
  - { offsetInCU: 0x1EC85, offset: 0x1EC85, size: 0x8, addend: 0x0, symName: __ZNKSt3__115__tree_iteratorINS_12__value_typeINS_12basic_stringIcNS_11char_traitsIcEENS_9allocatorIcEEEEN19unit_test_framework8TestCaseEEEPNS_11__tree_nodeISA_PvEElEptB8ue170006Ev, symObjAddr: 0xF11C, symBinAddr: 0x10000F854, symSize: 0x2C }
  - { offsetInCU: 0x1ECAB, offset: 0x1ECAB, size: 0x8, addend: 0x0, symName: __ZNSt3__114pointer_traitsIPNS_12__value_typeINS_12basic_stringIcNS_11char_traitsIcEENS_9allocatorIcEEEEN19unit_test_framework8TestCaseEEEE10pointer_toB8ue170006ERSA_, symObjAddr: 0xF148, symBinAddr: 0x10000F880, symSize: 0x14 }
  - { offsetInCU: 0x1ECCE, offset: 0x1ECCE, size: 0x8, addend: 0x0, symName: __ZNKSt3__115__tree_iteratorINS_12__value_typeINS_12basic_stringIcNS_11char_traitsIcEENS_9allocatorIcEEEEN19unit_test_framework8TestCaseEEEPNS_11__tree_nodeISA_PvEElE8__get_npB8ue170006Ev, symObjAddr: 0xF15C, symBinAddr: 0x10000F894, symSize: 0x18 }
  - { offsetInCU: 0x1ECF4, offset: 0x1ECF4, size: 0x8, addend: 0x0, symName: __ZNSt3__115__tree_iteratorINS_12__value_typeINS_12basic_stringIcNS_11char_traitsIcEENS_9allocatorIcEEEEN19unit_test_framework8TestCaseEEEPNS_11__tree_nodeISA_PvEElEppB8ue170006Ev, symObjAddr: 0xF174, symBinAddr: 0x10000F8AC, symSize: 0x38 }
  - { offsetInCU: 0x1ED1A, offset: 0x1ED1A, size: 0x8, addend: 0x0, symName: __ZN19unit_test_framework9ExitSuiteC2Ei, symObjAddr: 0xF1AC, symBinAddr: 0x10000F8E4, symSize: 0x50 }
  - { offsetInCU: 0x1ED52, offset: 0x1ED52, size: 0x8, addend: 0x0, symName: __ZNSt9exceptionC2B8ue170006Ev, symObjAddr: 0xF1FC, symBinAddr: 0x10000F934, symSize: 0x24 }
  - { offsetInCU: 0x1ED7C, offset: 0x1ED7C, size: 0x8, addend: 0x0, symName: __ZN19unit_test_framework9ExitSuiteD0Ev, symObjAddr: 0xF220, symBinAddr: 0x10000F958, symSize: 0x30 }
  - { offsetInCU: 0x1EDA8, offset: 0x1EDA8, size: 0x8, addend: 0x0, symName: __ZN19unit_test_framework9ExitSuiteD2Ev, symObjAddr: 0xF250, symBinAddr: 0x10000F988, symSize: 0x2C }
  - { offsetInCU: 0x1EDD4, offset: 0x1EDD4, size: 0x8, addend: 0x0, symName: __ZNSt3__16vectorINS_12basic_stringIcNS_11char_traitsIcEENS_9allocatorIcEEEENS4_IS6_EEE9__end_capB8ue170006Ev, symObjAddr: 0xF27C, symBinAddr: 0x10000F9B4, symSize: 0x28 }
  - { offsetInCU: 0x1EE00, offset: 0x1EE00, size: 0x8, addend: 0x0, symName: __ZNSt3__16vectorINS_12basic_stringIcNS_11char_traitsIcEENS_9allocatorIcEEEENS4_IS6_EEE22__construct_one_at_endB8ue170006IJS6_EEEvDpOT_, symObjAddr: 0xF2A4, symBinAddr: 0x10000F9DC, symSize: 0x90 }
  - { offsetInCU: 0x1EE4F, offset: 0x1EE4F, size: 0x8, addend: 0x0, symName: __ZNSt3__16vectorINS_12basic_stringIcNS_11char_traitsIcEENS_9allocatorIcEEEENS4_IS6_EEE21__push_back_slow_pathIS6_EEvOT_, symObjAddr: 0xF334, symBinAddr: 0x10000FA6C, symSize: 0xD8 }
  - { offsetInCU: 0x1EEAD, offset: 0x1EEAD, size: 0x8, addend: 0x0, symName: __ZNSt3__117__compressed_pairIPNS_12basic_stringIcNS_11char_traitsIcEENS_9allocatorIcEEEENS4_IS6_EEE5firstB8ue170006Ev, symObjAddr: 0xF40C, symBinAddr: 0x10000FB44, symSize: 0x24 }
  - { offsetInCU: 0x1EED3, offset: 0x1EED3, size: 0x8, addend: 0x0, symName: __ZNSt3__122__compressed_pair_elemIPNS_12basic_stringIcNS_11char_traitsIcEENS_9allocatorIcEEEELi0ELb0EE5__getB8ue170006Ev, symObjAddr: 0xF430, symBinAddr: 0x10000FB68, symSize: 0x14 }
  - { offsetInCU: 0x1EF12, offset: 0x1EF12, size: 0x8, addend: 0x0, symName: __ZNSt3__16vectorINS_12basic_stringIcNS_11char_traitsIcEENS_9allocatorIcEEEENS4_IS6_EEE21_ConstructTransactionC1B8ue170006ERS8_m, symObjAddr: 0xF444, symBinAddr: 0x10000FB7C, symSize: 0x3C }
  - { offsetInCU: 0x1EF5A, offset: 0x1EF5A, size: 0x8, addend: 0x0, symName: __ZNSt3__116allocator_traitsINS_9allocatorINS_12basic_stringIcNS_11char_traitsIcEENS1_IcEEEEEEE9constructB8ue170006IS6_JS6_EvEEvRS7_PT_DpOT0_, symObjAddr: 0xF480, symBinAddr: 0x10000FBB8, symSize: 0x34 }
  - { offsetInCU: 0x1EFB1, offset: 0x1EFB1, size: 0x8, addend: 0x0, symName: __ZNSt3__16vectorINS_12basic_stringIcNS_11char_traitsIcEENS_9allocatorIcEEEENS4_IS6_EEE7__allocB8ue170006Ev, symObjAddr: 0xF4B4, symBinAddr: 0x10000FBEC, symSize: 0x28 }
  - { offsetInCU: 0x1EFD7, offset: 0x1EFD7, size: 0x8, addend: 0x0, symName: __ZNSt3__16vectorINS_12basic_stringIcNS_11char_traitsIcEENS_9allocatorIcEEEENS4_IS6_EEE21_ConstructTransactionD1B8ue170006Ev, symObjAddr: 0xF4F0, symBinAddr: 0x10000FC28, symSize: 0x2C }
  - { offsetInCU: 0x1F001, offset: 0x1F001, size: 0x8, addend: 0x0, symName: __ZNSt3__16vectorINS_12basic_stringIcNS_11char_traitsIcEENS_9allocatorIcEEEENS4_IS6_EEE21_ConstructTransactionC2B8ue170006ERS8_m, symObjAddr: 0xF51C, symBinAddr: 0x10000FC54, symSize: 0x4C }
  - { offsetInCU: 0x1F049, offset: 0x1F049, size: 0x8, addend: 0x0, symName: __ZNSt3__19allocatorINS_12basic_stringIcNS_11char_traitsIcEENS0_IcEEEEE9constructB8ue170006IS5_JS5_EEEvPT_DpOT0_, symObjAddr: 0xF568, symBinAddr: 0x10000FCA0, symSize: 0x30 }
  - { offsetInCU: 0x1F09F, offset: 0x1F09F, size: 0x8, addend: 0x0, symName: __ZNSt3__117__compressed_pairIPNS_12basic_stringIcNS_11char_traitsIcEENS_9allocatorIcEEEENS4_IS6_EEE6secondB8ue170006Ev, symObjAddr: 0xF598, symBinAddr: 0x10000FCD0, symSize: 0x24 }
  - { offsetInCU: 0x1F0C5, offset: 0x1F0C5, size: 0x8, addend: 0x0, symName: __ZNSt3__122__compressed_pair_elemINS_9allocatorINS_12basic_stringIcNS_11char_traitsIcEENS1_IcEEEEEELi1ELb1EE5__getB8ue170006Ev, symObjAddr: 0xF5BC, symBinAddr: 0x10000FCF4, symSize: 0x14 }
  - { offsetInCU: 0x1F0EB, offset: 0x1F0EB, size: 0x8, addend: 0x0, symName: __ZNSt3__16vectorINS_12basic_stringIcNS_11char_traitsIcEENS_9allocatorIcEEEENS4_IS6_EEE21_ConstructTransactionD2B8ue170006Ev, symObjAddr: 0xF5D0, symBinAddr: 0x10000FD08, symSize: 0x20 }
  - { offsetInCU: 0x1F115, offset: 0x1F115, size: 0x8, addend: 0x0, symName: __ZNKSt3__16vectorINS_12basic_stringIcNS_11char_traitsIcEENS_9allocatorIcEEEENS4_IS6_EEE11__recommendB8ue170006Em, symObjAddr: 0xF5F0, symBinAddr: 0x10000FD28, symSize: 0xB4 }
  - { offsetInCU: 0x1F16A, offset: 0x1F16A, size: 0x8, addend: 0x0, symName: __ZNSt3__114__split_bufferINS_12basic_stringIcNS_11char_traitsIcEENS_9allocatorIcEEEERNS4_IS6_EEEC1EmmS8_, symObjAddr: 0xF6A4, symBinAddr: 0x10000FDDC, symSize: 0x44 }
  - { offsetInCU: 0x1F1C0, offset: 0x1F1C0, size: 0x8, addend: 0x0, symName: __ZNSt3__114__split_bufferINS_12basic_stringIcNS_11char_traitsIcEENS_9allocatorIcEEEERNS4_IS6_EEED1Ev, symObjAddr: 0xF7F8, symBinAddr: 0x10000FF30, symSize: 0x2C }
  - { offsetInCU: 0x1F1EC, offset: 0x1F1EC, size: 0x8, addend: 0x0, symName: __ZNKSt3__16vectorINS_12basic_stringIcNS_11char_traitsIcEENS_9allocatorIcEEEENS4_IS6_EEE8max_sizeEv, symObjAddr: 0xF824, symBinAddr: 0x10000FF5C, symSize: 0x60 }
  - { offsetInCU: 0x1F214, offset: 0x1F214, size: 0x8, addend: 0x0, symName: __ZNKSt3__16vectorINS_12basic_stringIcNS_11char_traitsIcEENS_9allocatorIcEEEENS4_IS6_EEE20__throw_length_errorB8ue170006Ev, symObjAddr: 0xF884, symBinAddr: 0x10000FFBC, symSize: 0x1C }
  - { offsetInCU: 0x1F23A, offset: 0x1F23A, size: 0x8, addend: 0x0, symName: __ZNKSt3__16vectorINS_12basic_stringIcNS_11char_traitsIcEENS_9allocatorIcEEEENS4_IS6_EEE8capacityB8ue170006Ev, symObjAddr: 0xF8A0, symBinAddr: 0x10000FFD8, symSize: 0x40 }
  - { offsetInCU: 0x1F26A, offset: 0x1F26A, size: 0x8, addend: 0x0, symName: __ZNSt3__116allocator_traitsINS_9allocatorINS_12basic_stringIcNS_11char_traitsIcEENS1_IcEEEEEEE8max_sizeB8ue170006IS7_vEEmRKS7_, symObjAddr: 0xF8E0, symBinAddr: 0x100010018, symSize: 0x24 }
  - { offsetInCU: 0x1F298, offset: 0x1F298, size: 0x8, addend: 0x0, symName: __ZNKSt3__16vectorINS_12basic_stringIcNS_11char_traitsIcEENS_9allocatorIcEEEENS4_IS6_EEE7__allocB8ue170006Ev, symObjAddr: 0xF904, symBinAddr: 0x10001003C, symSize: 0x28 }
  - { offsetInCU: 0x1F2BE, offset: 0x1F2BE, size: 0x8, addend: 0x0, symName: __ZNSt3__114numeric_limitsIlE3maxB8ue170006Ev, symObjAddr: 0xF92C, symBinAddr: 0x100010064, symSize: 0x14 }
  - { offsetInCU: 0x1F2D2, offset: 0x1F2D2, size: 0x8, addend: 0x0, symName: __ZNKSt3__19allocatorINS_12basic_stringIcNS_11char_traitsIcEENS0_IcEEEEE8max_sizeB8ue170006Ev, symObjAddr: 0xF940, symBinAddr: 0x100010078, symSize: 0x18 }
  - { offsetInCU: 0x1F2F8, offset: 0x1F2F8, size: 0x8, addend: 0x0, symName: __ZNKSt3__117__compressed_pairIPNS_12basic_stringIcNS_11char_traitsIcEENS_9allocatorIcEEEENS4_IS6_EEE6secondB8ue170006Ev, symObjAddr: 0xF958, symBinAddr: 0x100010090, symSize: 0x24 }
  - { offsetInCU: 0x1F31E, offset: 0x1F31E, size: 0x8, addend: 0x0, symName: __ZNKSt3__122__compressed_pair_elemINS_9allocatorINS_12basic_stringIcNS_11char_traitsIcEENS1_IcEEEEEELi1ELb1EE5__getB8ue170006Ev, symObjAddr: 0xF97C, symBinAddr: 0x1000100B4, symSize: 0x14 }
  - { offsetInCU: 0x1F344, offset: 0x1F344, size: 0x8, addend: 0x0, symName: __ZNSt3__123__libcpp_numeric_limitsIlLb1EE3maxB8ue170006Ev, symObjAddr: 0xF990, symBinAddr: 0x1000100C8, symSize: 0x8 }
  - { offsetInCU: 0x1F358, offset: 0x1F358, size: 0x8, addend: 0x0, symName: __ZNSt12length_errorC1B8ue170006EPKc, symObjAddr: 0xF9FC, symBinAddr: 0x100010134, symSize: 0x34 }
  - { offsetInCU: 0x1F390, offset: 0x1F390, size: 0x8, addend: 0x0, symName: __ZNSt12length_errorC2B8ue170006EPKc, symObjAddr: 0xFA30, symBinAddr: 0x100010168, symSize: 0x4C }
  - { offsetInCU: 0x1F3C8, offset: 0x1F3C8, size: 0x8, addend: 0x0, symName: __ZNKSt3__16vectorINS_12basic_stringIcNS_11char_traitsIcEENS_9allocatorIcEEEENS4_IS6_EEE9__end_capB8ue170006Ev, symObjAddr: 0xFA7C, symBinAddr: 0x1000101B4, symSize: 0x28 }
  - { offsetInCU: 0x1F3EE, offset: 0x1F3EE, size: 0x8, addend: 0x0, symName: __ZNKSt3__117__compressed_pairIPNS_12basic_stringIcNS_11char_traitsIcEENS_9allocatorIcEEEENS4_IS6_EEE5firstB8ue170006Ev, symObjAddr: 0xFAA4, symBinAddr: 0x1000101DC, symSize: 0x24 }
  - { offsetInCU: 0x1F414, offset: 0x1F414, size: 0x8, addend: 0x0, symName: __ZNKSt3__122__compressed_pair_elemIPNS_12basic_stringIcNS_11char_traitsIcEENS_9allocatorIcEEEELi0ELb0EE5__getB8ue170006Ev, symObjAddr: 0xFAC8, symBinAddr: 0x100010200, symSize: 0x14 }
  - { offsetInCU: 0x1F43A, offset: 0x1F43A, size: 0x8, addend: 0x0, symName: __ZNSt3__114__split_bufferINS_12basic_stringIcNS_11char_traitsIcEENS_9allocatorIcEEEERNS4_IS6_EEEC2EmmS8_, symObjAddr: 0xFADC, symBinAddr: 0x100010214, symSize: 0xE0 }
  - { offsetInCU: 0x1F4AD, offset: 0x1F4AD, size: 0x8, addend: 0x0, symName: __ZNSt3__117__compressed_pairIPNS_12basic_stringIcNS_11char_traitsIcEENS_9allocatorIcEEEERNS4_IS6_EEEC1B8ue170006IDnS9_EEOT_OT0_, symObjAddr: 0xFBBC, symBinAddr: 0x1000102F4, symSize: 0x3C }
  - { offsetInCU: 0x1F505, offset: 0x1F505, size: 0x8, addend: 0x0, symName: __ZNSt3__114__split_bufferINS_12basic_stringIcNS_11char_traitsIcEENS_9allocatorIcEEEERNS4_IS6_EEE7__allocB8ue170006Ev, symObjAddr: 0xFC38, symBinAddr: 0x100010370, symSize: 0x28 }
  - { offsetInCU: 0x1F52B, offset: 0x1F52B, size: 0x8, addend: 0x0, symName: __ZNSt3__114__split_bufferINS_12basic_stringIcNS_11char_traitsIcEENS_9allocatorIcEEEERNS4_IS6_EEE9__end_capB8ue170006Ev, symObjAddr: 0xFC60, symBinAddr: 0x100010398, symSize: 0x28 }
  - { offsetInCU: 0x1F551, offset: 0x1F551, size: 0x8, addend: 0x0, symName: __ZNSt3__117__compressed_pairIPNS_12basic_stringIcNS_11char_traitsIcEENS_9allocatorIcEEEERNS4_IS6_EEEC2B8ue170006IDnS9_EEOT_OT0_, symObjAddr: 0xFC88, symBinAddr: 0x1000103C0, symSize: 0x48 }
  - { offsetInCU: 0x1F5A9, offset: 0x1F5A9, size: 0x8, addend: 0x0, symName: __ZNSt3__122__compressed_pair_elemIRNS_9allocatorINS_12basic_stringIcNS_11char_traitsIcEENS1_IcEEEEEELi1ELb0EEC2B8ue170006IS8_vEEOT_, symObjAddr: 0xFCD0, symBinAddr: 0x100010408, symSize: 0x20 }
  - { offsetInCU: 0x1F5EB, offset: 0x1F5EB, size: 0x8, addend: 0x0, symName: __ZNSt3__19allocatorINS_12basic_stringIcNS_11char_traitsIcEENS0_IcEEEEE8allocateB8ue170006Em, symObjAddr: 0xFCF0, symBinAddr: 0x100010428, symSize: 0x5C }
  - { offsetInCU: 0x1F61F, offset: 0x1F61F, size: 0x8, addend: 0x0, symName: __ZNSt3__117__compressed_pairIPNS_12basic_stringIcNS_11char_traitsIcEENS_9allocatorIcEEEERNS4_IS6_EEE6secondB8ue170006Ev, symObjAddr: 0xFD4C, symBinAddr: 0x100010484, symSize: 0x28 }
  - { offsetInCU: 0x1F645, offset: 0x1F645, size: 0x8, addend: 0x0, symName: __ZNSt3__122__compressed_pair_elemIRNS_9allocatorINS_12basic_stringIcNS_11char_traitsIcEENS1_IcEEEEEELi1ELb0EE5__getB8ue170006Ev, symObjAddr: 0xFD74, symBinAddr: 0x1000104AC, symSize: 0x18 }
  - { offsetInCU: 0x1F66B, offset: 0x1F66B, size: 0x8, addend: 0x0, symName: __ZNSt3__117__compressed_pairIPNS_12basic_stringIcNS_11char_traitsIcEENS_9allocatorIcEEEERNS4_IS6_EEE5firstB8ue170006Ev, symObjAddr: 0xFD8C, symBinAddr: 0x1000104C4, symSize: 0x24 }
  - { offsetInCU: 0x1F691, offset: 0x1F691, size: 0x8, addend: 0x0, symName: __ZNKSt3__16vectorINS_12basic_stringIcNS_11char_traitsIcEENS_9allocatorIcEEEENS4_IS6_EEE17__annotate_deleteB8ue170006Ev, symObjAddr: 0xFDB0, symBinAddr: 0x1000104E8, symSize: 0xD4 }
  - { offsetInCU: 0x1F6B7, offset: 0x1F6B7, size: 0x8, addend: 0x0, symName: __ZNSt3__116reverse_iteratorIPNS_12basic_stringIcNS_11char_traitsIcEENS_9allocatorIcEEEEEC1B8ue170006ES7_, symObjAddr: 0xFFB0, symBinAddr: 0x1000106E8, symSize: 0x34 }
  - { offsetInCU: 0x1F6EF, offset: 0x1F6EF, size: 0x8, addend: 0x0, symName: __ZNKSt3__116reverse_iteratorIPNS_12basic_stringIcNS_11char_traitsIcEENS_9allocatorIcEEEEE4baseB8ue170006Ev, symObjAddr: 0xFFE4, symBinAddr: 0x10001071C, symSize: 0x18 }
  - { offsetInCU: 0x1F715, offset: 0x1F715, size: 0x8, addend: 0x0, symName: __ZNKSt3__16vectorINS_12basic_stringIcNS_11char_traitsIcEENS_9allocatorIcEEEENS4_IS6_EEE14__annotate_newB8ue170006Em, symObjAddr: 0x10038, symBinAddr: 0x100010770, symSize: 0xC8 }
  - { offsetInCU: 0x1F74A, offset: 0x1F74A, size: 0x8, addend: 0x0, symName: __ZNKSt3__16vectorINS_12basic_stringIcNS_11char_traitsIcEENS_9allocatorIcEEEENS4_IS6_EEE31__annotate_contiguous_containerB8ue170006EPKvSA_SA_SA_, symObjAddr: 0x10100, symBinAddr: 0x100010838, symSize: 0x20 }
  - { offsetInCU: 0x1F7A0, offset: 0x1F7A0, size: 0x8, addend: 0x0, symName: __ZNKSt3__16vectorINS_12basic_stringIcNS_11char_traitsIcEENS_9allocatorIcEEEENS4_IS6_EEE4dataB8ue170006Ev, symObjAddr: 0x10120, symBinAddr: 0x100010858, symSize: 0x28 }
  - { offsetInCU: 0x1F7C6, offset: 0x1F7C6, size: 0x8, addend: 0x0, symName: __ZNSt3__129_AllocatorDestroyRangeReverseINS_9allocatorINS_12basic_stringIcNS_11char_traitsIcEENS1_IcEEEEEENS_16reverse_iteratorIPS6_EEEC1B8ue170006ERS7_RSA_SD_, symObjAddr: 0x10194, symBinAddr: 0x1000108CC, symSize: 0x44 }
  - { offsetInCU: 0x1F81D, offset: 0x1F81D, size: 0x8, addend: 0x0, symName: __ZNKSt3__116reverse_iteratorIPNS_12basic_stringIcNS_11char_traitsIcEENS_9allocatorIcEEEEEdeB8ue170006Ev, symObjAddr: 0x10244, symBinAddr: 0x10001097C, symSize: 0x28 }
  - { offsetInCU: 0x1F851, offset: 0x1F851, size: 0x8, addend: 0x0, symName: __ZNSt3__116reverse_iteratorIPNS_12basic_stringIcNS_11char_traitsIcEENS_9allocatorIcEEEEEppB8ue170006Ev, symObjAddr: 0x1026C, symBinAddr: 0x1000109A4, symSize: 0x20 }
  - { offsetInCU: 0x1F877, offset: 0x1F877, size: 0x8, addend: 0x0, symName: __ZNSt3__128__exception_guard_exceptionsINS_29_AllocatorDestroyRangeReverseINS_9allocatorINS_12basic_stringIcNS_11char_traitsIcEENS2_IcEEEEEENS_16reverse_iteratorIPS7_EEEEE10__completeB8ue170006Ev, symObjAddr: 0x1028C, symBinAddr: 0x1000109C4, symSize: 0x1C }
  - { offsetInCU: 0x1F89D, offset: 0x1F89D, size: 0x8, addend: 0x0, symName: __ZNSt3__128__exception_guard_exceptionsINS_29_AllocatorDestroyRangeReverseINS_9allocatorINS_12basic_stringIcNS_11char_traitsIcEENS2_IcEEEEEENS_16reverse_iteratorIPS7_EEEEED1B8ue170006Ev, symObjAddr: 0x102A8, symBinAddr: 0x1000109E0, symSize: 0x2C }
  - { offsetInCU: 0x1F8C7, offset: 0x1F8C7, size: 0x8, addend: 0x0, symName: __ZNSt3__128__exception_guard_exceptionsINS_29_AllocatorDestroyRangeReverseINS_9allocatorINS_12basic_stringIcNS_11char_traitsIcEENS2_IcEEEEEENS_16reverse_iteratorIPS7_EEEEEC1B8ue170006ESC_, symObjAddr: 0x102D4, symBinAddr: 0x100010A0C, symSize: 0x34 }
  - { offsetInCU: 0x1F900, offset: 0x1F900, size: 0x8, addend: 0x0, symName: __ZNSt3__128__exception_guard_exceptionsINS_29_AllocatorDestroyRangeReverseINS_9allocatorINS_12basic_stringIcNS_11char_traitsIcEENS2_IcEEEEEENS_16reverse_iteratorIPS7_EEEEEC2B8ue170006ESC_, symObjAddr: 0x10308, symBinAddr: 0x100010A40, symSize: 0x30 }
  - { offsetInCU: 0x1F939, offset: 0x1F939, size: 0x8, addend: 0x0, symName: __ZNSt3__129_AllocatorDestroyRangeReverseINS_9allocatorINS_12basic_stringIcNS_11char_traitsIcEENS1_IcEEEEEENS_16reverse_iteratorIPS6_EEEC2B8ue170006ERS7_RSA_SD_, symObjAddr: 0x10338, symBinAddr: 0x100010A70, symSize: 0x38 }
  - { offsetInCU: 0x1F995, offset: 0x1F995, size: 0x8, addend: 0x0, symName: __ZNSt3__119__to_address_helperINS_16reverse_iteratorIPNS_12basic_stringIcNS_11char_traitsIcEENS_9allocatorIcEEEEEEvE6__callB8ue170006ERKS9_, symObjAddr: 0x10370, symBinAddr: 0x100010AA8, symSize: 0x38 }
  - { offsetInCU: 0x1F9B8, offset: 0x1F9B8, size: 0x8, addend: 0x0, symName: __ZNKSt3__116reverse_iteratorIPNS_12basic_stringIcNS_11char_traitsIcEENS_9allocatorIcEEEEEptB8ue170006Ev, symObjAddr: 0x103A8, symBinAddr: 0x100010AE0, symSize: 0x24 }
  - { offsetInCU: 0x1F9DE, offset: 0x1F9DE, size: 0x8, addend: 0x0, symName: __ZNSt3__128__exception_guard_exceptionsINS_29_AllocatorDestroyRangeReverseINS_9allocatorINS_12basic_stringIcNS_11char_traitsIcEENS2_IcEEEEEENS_16reverse_iteratorIPS7_EEEEED2B8ue170006Ev, symObjAddr: 0x103CC, symBinAddr: 0x100010B04, symSize: 0x50 }
  - { offsetInCU: 0x1FA08, offset: 0x1FA08, size: 0x8, addend: 0x0, symName: __ZNKSt3__129_AllocatorDestroyRangeReverseINS_9allocatorINS_12basic_stringIcNS_11char_traitsIcEENS1_IcEEEEEENS_16reverse_iteratorIPS6_EEEclB8ue170006Ev, symObjAddr: 0x1041C, symBinAddr: 0x100010B54, symSize: 0xB4 }
  - { offsetInCU: 0x1FA2F, offset: 0x1FA2F, size: 0x8, addend: 0x0, symName: __ZNSt3__116reverse_iteratorINS0_IPNS_12basic_stringIcNS_11char_traitsIcEENS_9allocatorIcEEEEEEEC1B8ue170006ES8_, symObjAddr: 0x10540, symBinAddr: 0x100010C78, symSize: 0x3C }
  - { offsetInCU: 0x1FA67, offset: 0x1FA67, size: 0x8, addend: 0x0, symName: __ZNSt3__116allocator_traitsINS_9allocatorINS_12basic_stringIcNS_11char_traitsIcEENS1_IcEEEEEEE7destroyB8ue170006IS6_vEEvRS7_PT_, symObjAddr: 0x105DC, symBinAddr: 0x100010D14, symSize: 0x2C }
  - { offsetInCU: 0x1FAA4, offset: 0x1FAA4, size: 0x8, addend: 0x0, symName: __ZNSt3__116reverse_iteratorINS0_IPNS_12basic_stringIcNS_11char_traitsIcEENS_9allocatorIcEEEEEEEppB8ue170006Ev, symObjAddr: 0x1062C, symBinAddr: 0x100010D64, symSize: 0x30 }
  - { offsetInCU: 0x1FACA, offset: 0x1FACA, size: 0x8, addend: 0x0, symName: __ZNKSt3__116reverse_iteratorINS0_IPNS_12basic_stringIcNS_11char_traitsIcEENS_9allocatorIcEEEEEEE4baseB8ue170006Ev, symObjAddr: 0x1065C, symBinAddr: 0x100010D94, symSize: 0x24 }
  - { offsetInCU: 0x1FAF0, offset: 0x1FAF0, size: 0x8, addend: 0x0, symName: __ZNSt3__19allocatorINS_12basic_stringIcNS_11char_traitsIcEENS0_IcEEEEE7destroyB8ue170006EPS5_, symObjAddr: 0x10680, symBinAddr: 0x100010DB8, symSize: 0x28 }
  - { offsetInCU: 0x1FB29, offset: 0x1FB29, size: 0x8, addend: 0x0, symName: __ZNSt3__119__to_address_helperINS_16reverse_iteratorINS1_IPNS_12basic_stringIcNS_11char_traitsIcEENS_9allocatorIcEEEEEEEEvE6__callB8ue170006ERKSA_, symObjAddr: 0x106A8, symBinAddr: 0x100010DE0, symSize: 0x38 }
  - { offsetInCU: 0x1FB4C, offset: 0x1FB4C, size: 0x8, addend: 0x0, symName: __ZNKSt3__116reverse_iteratorINS0_IPNS_12basic_stringIcNS_11char_traitsIcEENS_9allocatorIcEEEEEEEptB8ue170006Ev, symObjAddr: 0x106E0, symBinAddr: 0x100010E18, symSize: 0x24 }
  - { offsetInCU: 0x1FB72, offset: 0x1FB72, size: 0x8, addend: 0x0, symName: __ZNKSt3__116reverse_iteratorINS0_IPNS_12basic_stringIcNS_11char_traitsIcEENS_9allocatorIcEEEEEEEdeB8ue170006Ev, symObjAddr: 0x10704, symBinAddr: 0x100010E3C, symSize: 0x34 }
  - { offsetInCU: 0x1FBA6, offset: 0x1FBA6, size: 0x8, addend: 0x0, symName: __ZNSt3__116reverse_iteratorIPNS_12basic_stringIcNS_11char_traitsIcEENS_9allocatorIcEEEEEmmB8ue170006Ev, symObjAddr: 0x10738, symBinAddr: 0x100010E70, symSize: 0x20 }
  - { offsetInCU: 0x1FBCC, offset: 0x1FBCC, size: 0x8, addend: 0x0, symName: __ZNSt3__116reverse_iteratorINS0_IPNS_12basic_stringIcNS_11char_traitsIcEENS_9allocatorIcEEEEEEEC2B8ue170006ES8_, symObjAddr: 0x10758, symBinAddr: 0x100010E90, symSize: 0x2C }
  - { offsetInCU: 0x1FC04, offset: 0x1FC04, size: 0x8, addend: 0x0, symName: __ZNSt3__116reverse_iteratorIPNS_12basic_stringIcNS_11char_traitsIcEENS_9allocatorIcEEEEEC2B8ue170006ES7_, symObjAddr: 0x10784, symBinAddr: 0x100010EBC, symSize: 0x28 }
  - { offsetInCU: 0x1FC3C, offset: 0x1FC3C, size: 0x8, addend: 0x0, symName: __ZNSt3__114__split_bufferINS_12basic_stringIcNS_11char_traitsIcEENS_9allocatorIcEEEERNS4_IS6_EEED2Ev, symObjAddr: 0x107AC, symBinAddr: 0x100010EE4, symSize: 0x8C }
  - { offsetInCU: 0x1FC68, offset: 0x1FC68, size: 0x8, addend: 0x0, symName: __ZNSt3__114__split_bufferINS_12basic_stringIcNS_11char_traitsIcEENS_9allocatorIcEEEERNS4_IS6_EEE5clearB8ue170006Ev, symObjAddr: 0x10838, symBinAddr: 0x100010F70, symSize: 0x28 }
  - { offsetInCU: 0x1FC8E, offset: 0x1FC8E, size: 0x8, addend: 0x0, symName: __ZNSt3__116allocator_traitsINS_9allocatorINS_12basic_stringIcNS_11char_traitsIcEENS1_IcEEEEEEE10deallocateB8ue170006ERS7_PS6_m, symObjAddr: 0x10860, symBinAddr: 0x100010F98, symSize: 0x34 }
  - { offsetInCU: 0x1FCD0, offset: 0x1FCD0, size: 0x8, addend: 0x0, symName: __ZNKSt3__114__split_bufferINS_12basic_stringIcNS_11char_traitsIcEENS_9allocatorIcEEEERNS4_IS6_EEE8capacityB8ue170006Ev, symObjAddr: 0x10894, symBinAddr: 0x100010FCC, symSize: 0x40 }
  - { offsetInCU: 0x1FCF6, offset: 0x1FCF6, size: 0x8, addend: 0x0, symName: __ZNSt3__114__split_bufferINS_12basic_stringIcNS_11char_traitsIcEENS_9allocatorIcEEEERNS4_IS6_EEE17__destruct_at_endB8ue170006EPS6_, symObjAddr: 0x108D4, symBinAddr: 0x10001100C, symSize: 0x2C }
  - { offsetInCU: 0x1FD2A, offset: 0x1FD2A, size: 0x8, addend: 0x0, symName: __ZNSt3__114__split_bufferINS_12basic_stringIcNS_11char_traitsIcEENS_9allocatorIcEEEERNS4_IS6_EEE17__destruct_at_endB8ue170006EPS6_NS_17integral_constantIbLb0EEE, symObjAddr: 0x10900, symBinAddr: 0x100011038, symSize: 0x80 }
  - { offsetInCU: 0x1FD6A, offset: 0x1FD6A, size: 0x8, addend: 0x0, symName: __ZNSt3__19allocatorINS_12basic_stringIcNS_11char_traitsIcEENS0_IcEEEEE10deallocateB8ue170006EPS5_m, symObjAddr: 0x10980, symBinAddr: 0x1000110B8, symSize: 0x44 }
  - { offsetInCU: 0x1FDAC, offset: 0x1FDAC, size: 0x8, addend: 0x0, symName: __ZNKSt3__114__split_bufferINS_12basic_stringIcNS_11char_traitsIcEENS_9allocatorIcEEEERNS4_IS6_EEE9__end_capB8ue170006Ev, symObjAddr: 0x109C4, symBinAddr: 0x1000110FC, symSize: 0x28 }
  - { offsetInCU: 0x1FDD2, offset: 0x1FDD2, size: 0x8, addend: 0x0, symName: __ZNKSt3__117__compressed_pairIPNS_12basic_stringIcNS_11char_traitsIcEENS_9allocatorIcEEEERNS4_IS6_EEE5firstB8ue170006Ev, symObjAddr: 0x109EC, symBinAddr: 0x100011124, symSize: 0x24 }
  - { offsetInCU: 0x1FE1C, offset: 0x1FE1C, size: 0x8, addend: 0x0, symName: __ZZN19unit_test_framework9TestSuite21get_test_names_to_runEiPPcENKUlRKNSt3__14pairINS3_12basic_stringIcNS3_11char_traitsIcEENS3_9allocatorIcEEEENS_8TestCaseEEEE_clESE_, symObjAddr: 0x10A10, symBinAddr: 0x100011148, symSize: 0x3C }
  - { offsetInCU: 0x1FE55, offset: 0x1FE55, size: 0x8, addend: 0x0, symName: __ZNSt3__14pairINS_12basic_stringIcNS_11char_traitsIcEENS_9allocatorIcEEEEN19unit_test_framework8TestCaseEEC1B8ue170006IKS6_S8_LPv0EEERKNS0_IT_T0_EE, symObjAddr: 0x10A4C, symBinAddr: 0x100011184, symSize: 0x34 }
  - { offsetInCU: 0x1FEA5, offset: 0x1FEA5, size: 0x8, addend: 0x0, symName: __ZNSt3__120back_insert_iteratorINS_6vectorINS_12basic_stringIcNS_11char_traitsIcEENS_9allocatorIcEEEENS5_IS7_EEEEEdeB8ue170006Ev, symObjAddr: 0x10A80, symBinAddr: 0x1000111B8, symSize: 0x14 }
  - { offsetInCU: 0x1FECB, offset: 0x1FECB, size: 0x8, addend: 0x0, symName: __ZNSt3__120back_insert_iteratorINS_6vectorINS_12basic_stringIcNS_11char_traitsIcEENS_9allocatorIcEEEENS5_IS7_EEEEEaSB8ue170006EOS7_, symObjAddr: 0x10A94, symBinAddr: 0x1000111CC, symSize: 0x38 }
  - { offsetInCU: 0x1FEFF, offset: 0x1FEFF, size: 0x8, addend: 0x0, symName: __ZNSt3__14pairINS_12basic_stringIcNS_11char_traitsIcEENS_9allocatorIcEEEEN19unit_test_framework8TestCaseEED1Ev, symObjAddr: 0x10ACC, symBinAddr: 0x100011204, symSize: 0x2C }
  - { offsetInCU: 0x1FF2B, offset: 0x1FF2B, size: 0x8, addend: 0x0, symName: __ZNSt3__120back_insert_iteratorINS_6vectorINS_12basic_stringIcNS_11char_traitsIcEENS_9allocatorIcEEEENS5_IS7_EEEEEppB8ue170006Ev, symObjAddr: 0x10AF8, symBinAddr: 0x100011230, symSize: 0x14 }
  - { offsetInCU: 0x1FF51, offset: 0x1FF51, size: 0x8, addend: 0x0, symName: __ZNSt3__14pairINS_12basic_stringIcNS_11char_traitsIcEENS_9allocatorIcEEEEN19unit_test_framework8TestCaseEEC2B8ue170006IKS6_S8_LPv0EEERKNS0_IT_T0_EE, symObjAddr: 0x10B0C, symBinAddr: 0x100011244, symSize: 0x70 }
  - { offsetInCU: 0x1FFAB, offset: 0x1FFAB, size: 0x8, addend: 0x0, symName: __ZN19unit_test_framework8TestCaseC1ERKS0_, symObjAddr: 0x10B7C, symBinAddr: 0x1000112B4, symSize: 0x34 }
  - { offsetInCU: 0x1FFE1, offset: 0x1FFE1, size: 0x8, addend: 0x0, symName: __ZN19unit_test_framework8TestCaseC2ERKS0_, symObjAddr: 0x10BB0, symBinAddr: 0x1000112E8, symSize: 0xB4 }
  - { offsetInCU: 0x20017, offset: 0x20017, size: 0x8, addend: 0x0, symName: __ZNSt3__14pairINS_12basic_stringIcNS_11char_traitsIcEENS_9allocatorIcEEEEN19unit_test_framework8TestCaseEED2Ev, symObjAddr: 0x10C64, symBinAddr: 0x10001139C, symSize: 0x38 }
  - { offsetInCU: 0x20043, offset: 0x20043, size: 0x8, addend: 0x0, symName: __ZNSt3__120back_insert_iteratorINS_6vectorINS_12basic_stringIcNS_11char_traitsIcEENS_9allocatorIcEEEENS5_IS7_EEEEEC1B8ue170006ERS9_, symObjAddr: 0x10C9C, symBinAddr: 0x1000113D4, symSize: 0x34 }
  - { offsetInCU: 0x2007B, offset: 0x2007B, size: 0x8, addend: 0x0, symName: __ZNSt3__120back_insert_iteratorINS_6vectorINS_12basic_stringIcNS_11char_traitsIcEENS_9allocatorIcEEEENS5_IS7_EEEEEC2B8ue170006ERS9_, symObjAddr: 0x10CD0, symBinAddr: 0x100011408, symSize: 0x20 }
  - { offsetInCU: 0x200B3, offset: 0x200B3, size: 0x8, addend: 0x0, symName: __ZNSt3__16vectorINS_12basic_stringIcNS_11char_traitsIcEENS_9allocatorIcEEEENS4_IS6_EEE13__move_assignERS8_NS_17integral_constantIbLb1EEE, symObjAddr: 0x10CF0, symBinAddr: 0x100011428, symSize: 0x94 }
  - { offsetInCU: 0x200F6, offset: 0x200F6, size: 0x8, addend: 0x0, symName: __ZNSt3__16vectorINS_12basic_stringIcNS_11char_traitsIcEENS_9allocatorIcEEEENS4_IS6_EEE13__vdeallocateEv, symObjAddr: 0x10D84, symBinAddr: 0x1000114BC, symSize: 0x94 }
  - { offsetInCU: 0x2011E, offset: 0x2011E, size: 0x8, addend: 0x0, symName: __ZNSt3__16vectorINS_12basic_stringIcNS_11char_traitsIcEENS_9allocatorIcEEEENS4_IS6_EEE19__move_assign_allocB8ue170006ERS8_, symObjAddr: 0x10E18, symBinAddr: 0x100011550, symSize: 0x2C }
  - { offsetInCU: 0x20153, offset: 0x20153, size: 0x8, addend: 0x0, symName: __ZNSt3__16vectorINS_12basic_stringIcNS_11char_traitsIcEENS_9allocatorIcEEEENS4_IS6_EEE5clearB8ue170006Ev, symObjAddr: 0x10E44, symBinAddr: 0x10001157C, symSize: 0x44 }
  - { offsetInCU: 0x20188, offset: 0x20188, size: 0x8, addend: 0x0, symName: __ZNSt3__16vectorINS_12basic_stringIcNS_11char_traitsIcEENS_9allocatorIcEEEENS4_IS6_EEE7__clearB8ue170006Ev, symObjAddr: 0x10E88, symBinAddr: 0x1000115C0, symSize: 0x28 }
  - { offsetInCU: 0x201AE, offset: 0x201AE, size: 0x8, addend: 0x0, symName: __ZNKSt3__16vectorINS_12basic_stringIcNS_11char_traitsIcEENS_9allocatorIcEEEENS4_IS6_EEE17__annotate_shrinkB8ue170006Em, symObjAddr: 0x10EB0, symBinAddr: 0x1000115E8, symSize: 0xD0 }
  - { offsetInCU: 0x201E3, offset: 0x201E3, size: 0x8, addend: 0x0, symName: __ZNSt3__16vectorINS_12basic_stringIcNS_11char_traitsIcEENS_9allocatorIcEEEENS4_IS6_EEE22__base_destruct_at_endB8ue170006EPS6_, symObjAddr: 0x10F80, symBinAddr: 0x1000116B8, symSize: 0x8C }
  - { offsetInCU: 0x20227, offset: 0x20227, size: 0x8, addend: 0x0, symName: __ZNSt3__16vectorINS_12basic_stringIcNS_11char_traitsIcEENS_9allocatorIcEEEENS4_IS6_EEE19__move_assign_allocB8ue170006ERS8_NS_17integral_constantIbLb1EEE, symObjAddr: 0x1100C, symBinAddr: 0x100011744, symSize: 0x38 }
  - { offsetInCU: 0x20268, offset: 0x20268, size: 0x8, addend: 0x0, symName: __ZNSt3__16vectorINS_12basic_stringIcNS_11char_traitsIcEENS_9allocatorIcEEEENS4_IS6_EEED2B8ue170006Ev, symObjAddr: 0x11044, symBinAddr: 0x10001177C, symSize: 0x44 }
  - { offsetInCU: 0x20292, offset: 0x20292, size: 0x8, addend: 0x0, symName: __ZNSt3__16vectorINS_12basic_stringIcNS_11char_traitsIcEENS_9allocatorIcEEEENS4_IS6_EEE16__destroy_vectorC1B8ue170006ERS8_, symObjAddr: 0x11088, symBinAddr: 0x1000117C0, symSize: 0x34 }
  - { offsetInCU: 0x202CB, offset: 0x202CB, size: 0x8, addend: 0x0, symName: __ZNSt3__16vectorINS_12basic_stringIcNS_11char_traitsIcEENS_9allocatorIcEEEENS4_IS6_EEE16__destroy_vectorclB8ue170006Ev, symObjAddr: 0x110BC, symBinAddr: 0x1000117F4, symSize: 0x90 }
  - { offsetInCU: 0x202F1, offset: 0x202F1, size: 0x8, addend: 0x0, symName: __ZNSt3__16vectorINS_12basic_stringIcNS_11char_traitsIcEENS_9allocatorIcEEEENS4_IS6_EEE16__destroy_vectorC2B8ue170006ERS8_, symObjAddr: 0x1114C, symBinAddr: 0x100011884, symSize: 0x20 }
  - { offsetInCU: 0x2032A, offset: 0x2032A, size: 0x8, addend: 0x0, symName: __ZNSt3__16vectorINS_12basic_stringIcNS_11char_traitsIcEENS_9allocatorIcEEEENS4_IS6_EEE11__make_iterB8ue170006EPS6_, symObjAddr: 0x1116C, symBinAddr: 0x1000118A4, symSize: 0x30 }
  - { offsetInCU: 0x2035F, offset: 0x2035F, size: 0x8, addend: 0x0, symName: __ZNSt3__111__wrap_iterIPNS_12basic_stringIcNS_11char_traitsIcEENS_9allocatorIcEEEEEC1B8ue170006ES7_, symObjAddr: 0x1119C, symBinAddr: 0x1000118D4, symSize: 0x34 }
  - { offsetInCU: 0x20397, offset: 0x20397, size: 0x8, addend: 0x0, symName: __ZNSt3__111__wrap_iterIPNS_12basic_stringIcNS_11char_traitsIcEENS_9allocatorIcEEEEEC2B8ue170006ES7_, symObjAddr: 0x111D0, symBinAddr: 0x100011908, symSize: 0x20 }
  - { offsetInCU: 0x203CF, offset: 0x203CF, size: 0x8, addend: 0x0, symName: __ZNKSt3__111__wrap_iterIPNS_12basic_stringIcNS_11char_traitsIcEENS_9allocatorIcEEEEE4baseB8ue170006Ev, symObjAddr: 0x11238, symBinAddr: 0x100011970, symSize: 0x18 }
  - { offsetInCU: 0x203F5, offset: 0x203F5, size: 0x8, addend: 0x0, symName: __ZNSt3__16__treeINS_12__value_typeINS_12basic_stringIcNS_11char_traitsIcEENS_9allocatorIcEEEEN19unit_test_framework8TestCaseEEENS_19__map_value_compareIS7_SA_NS_4lessIS7_EELb1EEENS5_ISA_EEE4findIS7_EENS_15__tree_iteratorISA_PNS_11__tree_nodeISA_PvEElEERKT_, symObjAddr: 0x11250, symBinAddr: 0x100011988, symSize: 0xF8 }
  - { offsetInCU: 0x20444, offset: 0x20444, size: 0x8, addend: 0x0, symName: __ZNSt3__16__treeINS_12__value_typeINS_12basic_stringIcNS_11char_traitsIcEENS_9allocatorIcEEEEN19unit_test_framework8TestCaseEEENS_19__map_value_compareIS7_SA_NS_4lessIS7_EELb1EEENS5_ISA_EEE13__lower_boundIS7_EENS_15__tree_iteratorISA_PNS_11__tree_nodeISA_PvEElEERKT_SM_PNS_15__tree_end_nodeIPNS_16__tree_node_baseISK_EEEE, symObjAddr: 0x11348, symBinAddr: 0x100011A80, symSize: 0xA4 }
  - { offsetInCU: 0x204A2, offset: 0x204A2, size: 0x8, addend: 0x0, symName: __ZNSt3__16__treeINS_12__value_typeINS_12basic_stringIcNS_11char_traitsIcEENS_9allocatorIcEEEEN19unit_test_framework8TestCaseEEENS_19__map_value_compareIS7_SA_NS_4lessIS7_EELb1EEENS5_ISA_EEE3endB8ue170006Ev, symObjAddr: 0x113EC, symBinAddr: 0x100011B24, symSize: 0x34 }
  - { offsetInCU: 0x204C8, offset: 0x204C8, size: 0x8, addend: 0x0, symName: __ZNKSt3__115__tree_iteratorINS_12__value_typeINS_12basic_stringIcNS_11char_traitsIcEENS_9allocatorIcEEEEN19unit_test_framework8TestCaseEEEPNS_11__tree_nodeISA_PvEElEdeB8ue170006Ev, symObjAddr: 0x11420, symBinAddr: 0x100011B58, symSize: 0x28 }
  - { offsetInCU: 0x204EE, offset: 0x204EE, size: 0x8, addend: 0x0, symName: __ZNSt3__115__tree_iteratorINS_12__value_typeINS_12basic_stringIcNS_11char_traitsIcEENS_9allocatorIcEEEEN19unit_test_framework8TestCaseEEEPNS_11__tree_nodeISA_PvEElEC1B8ue170006EPNS_15__tree_end_nodeIPNS_16__tree_node_baseISC_EEEE, symObjAddr: 0x11448, symBinAddr: 0x100011B80, symSize: 0x34 }
  - { offsetInCU: 0x20527, offset: 0x20527, size: 0x8, addend: 0x0, symName: __ZNSt3__115__tree_iteratorINS_12__value_typeINS_12basic_stringIcNS_11char_traitsIcEENS_9allocatorIcEEEEN19unit_test_framework8TestCaseEEEPNS_11__tree_nodeISA_PvEElEC2B8ue170006EPNS_15__tree_end_nodeIPNS_16__tree_node_baseISC_EEEE, symObjAddr: 0x1147C, symBinAddr: 0x100011BB4, symSize: 0x20 }
  - { offsetInCU: 0x20560, offset: 0x20560, size: 0x8, addend: 0x0, symName: __ZNSt12out_of_rangeC1B8ue170006EPKc, symObjAddr: 0x11500, symBinAddr: 0x100011C38, symSize: 0x34 }
  - { offsetInCU: 0x20598, offset: 0x20598, size: 0x8, addend: 0x0, symName: __ZNSt12out_of_rangeC2B8ue170006EPKc, symObjAddr: 0x11534, symBinAddr: 0x100011C6C, symSize: 0x4C }
  - { offsetInCU: 0x205D0, offset: 0x205D0, size: 0x8, addend: 0x0, symName: __ZN19unit_test_framework10Diagnostic8demangleEPKc, symObjAddr: 0x11580, symBinAddr: 0x100011CB8, symSize: 0xDC }
  - { offsetInCU: 0x20651, offset: 0x20651, size: 0x8, addend: 0x0, symName: __ZNKSt9type_info4nameB8ue170006Ev, symObjAddr: 0x1165C, symBinAddr: 0x100011D94, symSize: 0x24 }
  - { offsetInCU: 0x20697, offset: 0x20697, size: 0x8, addend: 0x0, symName: __ZNK19unit_test_framework11TestFailure9to_stringEv, symObjAddr: 0x11680, symBinAddr: 0x100011DB8, symSize: 0x98 }
  - { offsetInCU: 0x206CB, offset: 0x206CB, size: 0x8, addend: 0x0, symName: __ZNK19unit_test_framework11TestFailure5printERNSt3__113basic_ostreamIcNS1_11char_traitsIcEEEE, symObjAddr: 0x11718, symBinAddr: 0x100011E50, symSize: 0x7C }
  - { offsetInCU: 0x206FF, offset: 0x206FF, size: 0x8, addend: 0x0, symName: __ZNKSt3__112basic_stringIcNS_11char_traitsIcEENS_9allocatorIcEEE5emptyB8ue170006Ev, symObjAddr: 0x11794, symBinAddr: 0x100011ECC, symSize: 0x30 }
  - { offsetInCU: 0x2072F, offset: 0x2072F, size: 0x8, addend: 0x0, symName: __ZZN19unit_test_framework9TestSuite9run_testsEiPPcENKUlNSt3__14pairINS3_12basic_stringIcNS3_11char_traitsIcEENS3_9allocatorIcEEEENS_8TestCaseEEEE_clESC_, symObjAddr: 0x117C4, symBinAddr: 0x100011EFC, symSize: 0x30 }
  - { offsetInCU: 0x20769, offset: 0x20769, size: 0x8, addend: 0x0, symName: __ZNSt3__16__treeINS_12__value_typeINS_12basic_stringIcNS_11char_traitsIcEENS_9allocatorIcEEEEN19unit_test_framework8TestCaseEEENS_19__map_value_compareIS7_SA_NS_4lessIS7_EELb1EEENS5_ISA_EEE5beginB8ue170006Ev, symObjAddr: 0x117F4, symBinAddr: 0x100011F2C, symSize: 0x34 }
  - { offsetInCU: 0x20799, offset: 0x20799, size: 0x8, addend: 0x0, symName: __ZZN19unit_test_framework9TestSuite9run_testsEiPPcENKUlNSt3__14pairINS3_12basic_stringIcNS3_11char_traitsIcEENS3_9allocatorIcEEEENS_8TestCaseEEEE0_clESC_, symObjAddr: 0x11828, symBinAddr: 0x100011F60, symSize: 0x30 }
  - { offsetInCU: 0x207D3, offset: 0x207D3, size: 0x8, addend: 0x0, symName: __ZN19unit_test_framework11SetCompleteD2Ev, symObjAddr: 0x11858, symBinAddr: 0x100011F90, symSize: 0x1C }
  - { offsetInCU: 0x207FD, offset: 0x207FD, size: 0x8, addend: 0x0, symName: __ZN19unit_test_framework18TestSuiteDestroyerD2Ev, symObjAddr: 0x11874, symBinAddr: 0x100011FAC, symSize: 0x58 }
  - { offsetInCU: 0x20827, offset: 0x20827, size: 0x8, addend: 0x0, symName: __ZN19unit_test_framework9TestSuiteD1Ev, symObjAddr: 0x118CC, symBinAddr: 0x100012004, symSize: 0x2C }
  - { offsetInCU: 0x20851, offset: 0x20851, size: 0x8, addend: 0x0, symName: __ZN19unit_test_framework9TestSuiteD2Ev, symObjAddr: 0x118F8, symBinAddr: 0x100012030, symSize: 0x2C }
  - { offsetInCU: 0x2087B, offset: 0x2087B, size: 0x8, addend: 0x0, symName: __ZNSt3__112basic_stringIcNS_11char_traitsIcEENS_9allocatorIcEEEC2B8ue170006ILi0EEEPKc, symObjAddr: 0x11924, symBinAddr: 0x10001205C, symSize: 0x58 }
...
