---
triple:          'arm64-apple-darwin'
binary-path:     BinarySearchTree_compile_check.exe
relocations:
  - { offsetInCU: 0x745C, offset: 0x745C, size: 0x8, addend: 0x0, symName: __ZNSt3__124__put_character_sequenceB8ue170006IcNS_11char_traitsIcEEEERNS_13basic_ostreamIT_T0_EES7_PKS4_m, symObjAddr: 0x2180, symBinAddr: 0x100004968, symSize: 0x1EC }
  - { offsetInCU: 0xCB5E, offset: 0xCB5E, size: 0x8, addend: 0x0, symName: __ZNSt3__1lsB8ue170006INS_11char_traitsIcEEEERNS_13basic_ostreamIcT_EES6_PKc, symObjAddr: 0x48, symBinAddr: 0x100002830, symSize: 0x48 }
  - { offsetInCU: 0xCBA4, offset: 0xCBA4, size: 0x8, addend: 0x0, symName: __ZNSt3__14endlB8ue170006IcNS_11char_traitsIcEEEERNS_13basic_ostreamIT_T0_EES7_, symObjAddr: 0xA00, symBinAddr: 0x1000031E8, symSize: 0x58 }
  - { offsetInCU: 0xCBE4, offset: 0xCBE4, size: 0x8, addend: 0x0, symName: __ZNSt3__1lsB8ue170006IcNS_11char_traitsIcEENS_9allocatorIcEEEERNS_13basic_ostreamIT_T0_EES9_RKNS_12basic_stringIS6_S7_T1_EE, symObjAddr: 0x20A4, symBinAddr: 0x10000488C, symSize: 0x4C }
  - { offsetInCU: 0xCC3C, offset: 0xCC3C, size: 0x8, addend: 0x0, symName: __ZNSt3__116__pad_and_outputB8ue170006IcNS_11char_traitsIcEEEENS_19ostreambuf_iteratorIT_T0_EES6_PKS4_S8_S8_RNS_8ios_baseES4_, symObjAddr: 0x23BC, symBinAddr: 0x100004BA4, symSize: 0x240 }
  - { offsetInCU: 0xCD0B, offset: 0xCD0B, size: 0x8, addend: 0x0, symName: __ZNSt3__112__to_addressB8ue170006IcEEPT_S2_, symObjAddr: 0x2930, symBinAddr: 0x100005118, symSize: 0x14 }
  - { offsetInCU: 0xCD73, offset: 0xCD73, size: 0x8, addend: 0x0, symName: __ZNSt3__19use_facetB8ue170006INS_5ctypeIcEEEERKT_RKNS_6localeE, symObjAddr: 0x2BE8, symBinAddr: 0x1000053D0, symSize: 0x2C }
  - { offsetInCU: 0xD240, offset: 0xD240, size: 0x8, addend: 0x0, symName: __ZNSt3__118__constexpr_strlenB8ue170006EPKc, symObjAddr: 0x2C80, symBinAddr: 0x100005468, symSize: 0x24 }
  - { offsetInCU: 0xD26C, offset: 0xD26C, size: 0x8, addend: 0x0, symName: __ZNSt3__13maxB8ue170006IiEERKT_S3_S3_, symObjAddr: 0x35A0, symBinAddr: 0x100005D88, symSize: 0x2C }
  - { offsetInCU: 0xD2AF, offset: 0xD2AF, size: 0x8, addend: 0x0, symName: __ZNSt3__13maxB8ue170006IiNS_6__lessIvvEEEERKT_S5_S5_T0_, symObjAddr: 0x35CC, symBinAddr: 0x100005DB4, symSize: 0x54 }
  - { offsetInCU: 0xE436, offset: 0xE436, size: 0x8, addend: 0x0, symName: __ZNSt3__1eqB8ue170006IcNS_11char_traitsIcEENS_9allocatorIcEEEEbRKNS_12basic_stringIT_T0_T1_EEPKS6_, symObjAddr: 0x4434, symBinAddr: 0x100006C1C, symSize: 0xAC }
  - { offsetInCU: 0xE49D, offset: 0xE49D, size: 0x8, addend: 0x0, symName: __ZNSt3__15rightB8ue170006ERNS_8ios_baseE, symObjAddr: 0x455C, symBinAddr: 0x100006D44, symSize: 0x30 }
  - { offsetInCU: 0xE4CB, offset: 0xE4CB, size: 0x8, addend: 0x0, symName: __ZNSt3__1lsB8ue170006IcNS_11char_traitsIcEEEERNS_13basic_ostreamIT_T0_EES7_RKNS_8__iom_t6E, symObjAddr: 0x458C, symBinAddr: 0x100006D74, symSize: 0x40 }
  - { offsetInCU: 0xE51A, offset: 0xE51A, size: 0x8, addend: 0x0, symName: __ZNSt3__14setwB8ue170006Ei, symObjAddr: 0x45CC, symBinAddr: 0x100006DB4, symSize: 0x2C }
  - { offsetInCU: 0xE548, offset: 0xE548, size: 0x8, addend: 0x0, symName: __ZNSt3__14leftB8ue170006ERNS_8ios_baseE, symObjAddr: 0x45F8, symBinAddr: 0x100006DE0, symSize: 0x30 }
  - { offsetInCU: 0xE576, offset: 0xE576, size: 0x8, addend: 0x0, symName: __ZNSt3__1lsB8ue170006INS_11char_traitsIcEEEERNS_13basic_ostreamIcT_EES6_c, symObjAddr: 0x4628, symBinAddr: 0x100006E10, symSize: 0x34 }
  - { offsetInCU: 0xE795, offset: 0xE795, size: 0x8, addend: 0x0, symName: __ZNSt3__112__to_addressB8ue170006IPN16BinarySearchTreeIiNS_4lessIiEEE4NodeEEEPT_S8_, symObjAddr: 0x5288, symBinAddr: 0x100007A70, symSize: 0x14 }
  - { offsetInCU: 0xE7CA, offset: 0xE7CA, size: 0x8, addend: 0x0, symName: __ZNSt3__13maxB8ue170006ImEERKT_S3_S3_, symObjAddr: 0x62BC, symBinAddr: 0x100008AA4, symSize: 0x2C }
  - { offsetInCU: 0xEC66, offset: 0xEC66, size: 0x8, addend: 0x0, symName: __ZNSt3__14swapB8ue170006IPPPN16BinarySearchTreeIiNS_4lessIiEEE4NodeEEENS_9enable_ifIXaasr21is_move_constructibleIT_EE5valuesr18is_move_assignableISA_EE5valueEvE4typeERSA_SD_, symObjAddr: 0x6924, symBinAddr: 0x10000910C, symSize: 0x3C }
  - { offsetInCU: 0xECB7, offset: 0xECB7, size: 0x8, addend: 0x0, symName: __ZNSt3__14moveB8ue170006IPPPN16BinarySearchTreeIiNS_4lessIiEEE4NodeES8_EET0_T_SA_S9_, symObjAddr: 0x6A54, symBinAddr: 0x10000923C, symSize: 0x40 }
  - { offsetInCU: 0xED2D, offset: 0xED2D, size: 0x8, addend: 0x0, symName: __ZNSt3__112__to_addressB8ue170006IPPN16BinarySearchTreeIiNS_4lessIiEEE4NodeEEEPT_S9_, symObjAddr: 0x6B5C, symBinAddr: 0x100009344, symSize: 0x14 }
  - { offsetInCU: 0xED62, offset: 0xED62, size: 0x8, addend: 0x0, symName: __ZNSt3__16__moveB8ue170006INS_17_ClassicAlgPolicyEPPPN16BinarySearchTreeIiNS_4lessIiEEE4NodeES9_S9_EENS_4pairIT0_T2_EESB_T1_SC_, symObjAddr: 0x6B70, symBinAddr: 0x100009358, symSize: 0x44 }
  - { offsetInCU: 0xEDCE, offset: 0xEDCE, size: 0x8, addend: 0x0, symName: __ZNSt3__123__dispatch_copy_or_moveB8ue170006INS_17_ClassicAlgPolicyENS_11__move_loopIS1_EENS_14__move_trivialEPPPN16BinarySearchTreeIiNS_4lessIiEEE4NodeESC_SC_EENS_4pairIT2_T4_EESE_T3_SF_, symObjAddr: 0x6BB4, symBinAddr: 0x10000939C, symSize: 0x44 }
  - { offsetInCU: 0xEE4C, offset: 0xEE4C, size: 0x8, addend: 0x0, symName: __ZNSt3__121__unwrap_and_dispatchB8ue170006INS_10__overloadINS_11__move_loopINS_17_ClassicAlgPolicyEEENS_14__move_trivialEEEPPPN16BinarySearchTreeIiNS_4lessIiEEE4NodeESE_SE_Li0EEENS_4pairIT0_T2_EESG_T1_SH_, symObjAddr: 0x6BF8, symBinAddr: 0x1000093E0, symSize: 0xB4 }
  - { offsetInCU: 0xEEDA, offset: 0xEEDA, size: 0x8, addend: 0x0, symName: __ZNSt3__114__unwrap_rangeB8ue170006IPPPN16BinarySearchTreeIiNS_4lessIiEEE4NodeES8_EENS_4pairIT0_SA_EET_SC_, symObjAddr: 0x6CAC, symBinAddr: 0x100009494, symSize: 0x60 }
  - { offsetInCU: 0xF0DA, offset: 0xF0DA, size: 0x8, addend: 0x0, symName: __ZNSt3__113__unwrap_iterB8ue170006IPPPN16BinarySearchTreeIiNS_4lessIiEEE4NodeENS_18__unwrap_iter_implIS8_Lb1EEELi0EEEDTclsrT0_8__unwrapclsr3stdE7declvalIT_EEEESC_, symObjAddr: 0x6D54, symBinAddr: 0x10000953C, symSize: 0x24 }
  - { offsetInCU: 0xF11E, offset: 0xF11E, size: 0x8, addend: 0x0, symName: __ZNSt3__19make_pairB8ue170006IPPPN16BinarySearchTreeIiNS_4lessIiEEE4NodeES8_EENS_4pairINS_18__unwrap_ref_decayIT_E4typeENSA_IT0_E4typeEEEOSB_OSE_, symObjAddr: 0x6D78, symBinAddr: 0x100009560, symSize: 0x38 }
  - { offsetInCU: 0xF16D, offset: 0xF16D, size: 0x8, addend: 0x0, symName: __ZNSt3__114__rewrap_rangeB8ue170006IPPPN16BinarySearchTreeIiNS_4lessIiEEE4NodeES8_EET_S9_T0_, symObjAddr: 0x6DB0, symBinAddr: 0x100009598, symSize: 0x2C }
  - { offsetInCU: 0xF1B9, offset: 0xF1B9, size: 0x8, addend: 0x0, symName: __ZNSt3__113__rewrap_iterB8ue170006IPPPN16BinarySearchTreeIiNS_4lessIiEEE4NodeES8_NS_18__unwrap_iter_implIS8_Lb1EEEEET_SB_T0_, symObjAddr: 0x6DDC, symBinAddr: 0x1000095C4, symSize: 0x3C }
  - { offsetInCU: 0xF20E, offset: 0xF20E, size: 0x8, addend: 0x0, symName: __ZNSt3__119__copy_trivial_implB8ue170006IPPN16BinarySearchTreeIiNS_4lessIiEEE4NodeES7_EENS_4pairIPT_PT0_EESA_SA_SC_, symObjAddr: 0x6E18, symBinAddr: 0x100009600, symSize: 0x80 }
  - { offsetInCU: 0xF276, offset: 0xF276, size: 0x8, addend: 0x0, symName: __ZNSt3__119__constexpr_memmoveB8ue170006IPPN16BinarySearchTreeIiNS_4lessIiEEE4NodeES7_Li0EEEPT_S9_PT0_NS_15__element_countE, symObjAddr: 0x6E98, symBinAddr: 0x100009680, symSize: 0x64 }
  - { offsetInCU: 0xF2E4, offset: 0xF2E4, size: 0x8, addend: 0x0, symName: __ZNSt3__19make_pairB8ue170006IRPPPN16BinarySearchTreeIiNS_4lessIiEEE4NodeES8_EENS_4pairINS_18__unwrap_ref_decayIT_E4typeENSB_IT0_E4typeEEEOSC_OSF_, symObjAddr: 0x6EFC, symBinAddr: 0x1000096E4, symSize: 0x38 }
  - { offsetInCU: 0xF386, offset: 0xF386, size: 0x8, addend: 0x0, symName: __ZNSt3__18distanceB8ue170006INS_13move_iteratorIPPPN16BinarySearchTreeIiNS_4lessIiEEE4NodeEEEEENS_15iterator_traitsIT_E15difference_typeESC_SC_, symObjAddr: 0x7164, symBinAddr: 0x10000994C, symSize: 0x3C }
  - { offsetInCU: 0xF3C9, offset: 0xF3C9, size: 0x8, addend: 0x0, symName: __ZNSt3__110__distanceB8ue170006INS_13move_iteratorIPPPN16BinarySearchTreeIiNS_4lessIiEEE4NodeEEEEENS_15iterator_traitsIT_E15difference_typeESC_SC_NS_26random_access_iterator_tagE, symObjAddr: 0x7368, symBinAddr: 0x100009B50, symSize: 0x30 }
  - { offsetInCU: 0xF416, offset: 0xF416, size: 0x8, addend: 0x0, symName: __ZNSt3__1miB8ue170006IPPPN16BinarySearchTreeIiNS_4lessIiEEE4NodeES8_EEDTmicldtfp_4baseEcldtfp0_4baseEERKNS_13move_iteratorIT_EERKNSA_IT0_EE, symObjAddr: 0x7398, symBinAddr: 0x100009B80, symSize: 0x48 }
  - { offsetInCU: 0xF465, offset: 0xF465, size: 0x8, addend: 0x0, symName: __ZNSt3__117__libcpp_allocateB8ue170006Emm, symObjAddr: 0x7550, symBinAddr: 0x100009D38, symSize: 0x60 }
  - { offsetInCU: 0xF4BF, offset: 0xF4BF, size: 0x8, addend: 0x0, symName: __ZNSt3__124__is_overaligned_for_newB8ue170006Em, symObjAddr: 0x75C4, symBinAddr: 0x100009DAC, symSize: 0x20 }
  - { offsetInCU: 0xF4ED, offset: 0xF4ED, size: 0x8, addend: 0x0, symName: __ZNSt3__121__libcpp_operator_newB8ue170006IJmSt11align_val_tEEEPvDpT_, symObjAddr: 0x75E4, symBinAddr: 0x100009DCC, symSize: 0x2C }
  - { offsetInCU: 0xF53A, offset: 0xF53A, size: 0x8, addend: 0x0, symName: __ZNSt3__121__libcpp_operator_newB8ue170006IJmEEEPvDpT_, symObjAddr: 0x7610, symBinAddr: 0x100009DF8, symSize: 0x24 }
  - { offsetInCU: 0xF573, offset: 0xF573, size: 0x8, addend: 0x0, symName: __ZNSt3__113move_backwardB8ue170006IPPPN16BinarySearchTreeIiNS_4lessIiEEE4NodeES8_EET0_T_SA_S9_, symObjAddr: 0x7634, symBinAddr: 0x100009E1C, symSize: 0x40 }
  - { offsetInCU: 0xF5CD, offset: 0xF5CD, size: 0x8, addend: 0x0, symName: __ZNSt3__115__move_backwardB8ue170006INS_17_ClassicAlgPolicyEPPPN16BinarySearchTreeIiNS_4lessIiEEE4NodeES9_S9_EENS_4pairIT0_T2_EESB_T1_SC_, symObjAddr: 0x7674, symBinAddr: 0x100009E5C, symSize: 0x44 }
  - { offsetInCU: 0xF639, offset: 0xF639, size: 0x8, addend: 0x0, symName: __ZNSt3__123__dispatch_copy_or_moveB8ue170006INS_17_ClassicAlgPolicyENS_20__move_backward_loopIS1_EENS_23__move_backward_trivialEPPPN16BinarySearchTreeIiNS_4lessIiEEE4NodeESC_SC_EENS_4pairIT2_T4_EESE_T3_SF_, symObjAddr: 0x76B8, symBinAddr: 0x100009EA0, symSize: 0x44 }
  - { offsetInCU: 0xF6B7, offset: 0xF6B7, size: 0x8, addend: 0x0, symName: __ZNSt3__121__unwrap_and_dispatchB8ue170006INS_10__overloadINS_20__move_backward_loopINS_17_ClassicAlgPolicyEEENS_23__move_backward_trivialEEEPPPN16BinarySearchTreeIiNS_4lessIiEEE4NodeESE_SE_Li0EEENS_4pairIT0_T2_EESG_T1_SH_, symObjAddr: 0x76FC, symBinAddr: 0x100009EE4, symSize: 0xB4 }
  - { offsetInCU: 0xF7C7, offset: 0xF7C7, size: 0x8, addend: 0x0, symName: __ZNSt3__128__copy_backward_trivial_implB8ue170006IPPN16BinarySearchTreeIiNS_4lessIiEEE4NodeES7_EENS_4pairIPT_PT0_EESA_SA_SC_, symObjAddr: 0x77F8, symBinAddr: 0x100009FE0, symSize: 0x90 }
  - { offsetInCU: 0xF82F, offset: 0xF82F, size: 0x8, addend: 0x0, symName: __ZNSt3__19make_pairB8ue170006IRPPPN16BinarySearchTreeIiNS_4lessIiEEE4NodeES9_EENS_4pairINS_18__unwrap_ref_decayIT_E4typeENSB_IT0_E4typeEEEOSC_OSF_, symObjAddr: 0x7888, symBinAddr: 0x10000A070, symSize: 0x38 }
  - { offsetInCU: 0xF87E, offset: 0xF87E, size: 0x8, addend: 0x0, symName: __ZNSt3__13maxB8ue170006ImNS_6__lessIvvEEEERKT_S5_S5_T0_, symObjAddr: 0x7974, symBinAddr: 0x10000A15C, symSize: 0x54 }
  - { offsetInCU: 0xF8D8, offset: 0xF8D8, size: 0x8, addend: 0x0, symName: __ZNSt3__119__allocate_at_leastB8ue170006INS_9allocatorIPPN16BinarySearchTreeIiNS_4lessIiEEE4NodeEEEEENS_19__allocation_resultINS_16allocator_traitsIT_E7pointerEEERSC_m, symObjAddr: 0x7B44, symBinAddr: 0x10000A32C, symSize: 0x40 }
  - { offsetInCU: 0xF91B, offset: 0xF91B, size: 0x8, addend: 0x0, symName: __ZNSt3__119__libcpp_deallocateB8ue170006EPvmm, symObjAddr: 0x8014, symBinAddr: 0x10000A7FC, symSize: 0x60 }
  - { offsetInCU: 0xF980, offset: 0xF980, size: 0x8, addend: 0x0, symName: __ZNSt3__127__do_deallocate_handle_sizeB8ue170006IJSt11align_val_tEEEvPvmDpT_, symObjAddr: 0x8074, symBinAddr: 0x10000A85C, symSize: 0x30 }
  - { offsetInCU: 0xF9D3, offset: 0xF9D3, size: 0x8, addend: 0x0, symName: __ZNSt3__127__do_deallocate_handle_sizeB8ue170006IJEEEvPvmDpT_, symObjAddr: 0x80A4, symBinAddr: 0x10000A88C, symSize: 0x28 }
  - { offsetInCU: 0xFA11, offset: 0xFA11, size: 0x8, addend: 0x0, symName: __ZNSt3__124__libcpp_operator_deleteB8ue170006IJPvSt11align_val_tEEEvDpT_, symObjAddr: 0x80CC, symBinAddr: 0x10000A8B4, symSize: 0x2C }
  - { offsetInCU: 0xFA5A, offset: 0xFA5A, size: 0x8, addend: 0x0, symName: __ZNSt3__124__libcpp_operator_deleteB8ue170006IJPvEEEvDpT_, symObjAddr: 0x80F8, symBinAddr: 0x10000A8E0, symSize: 0x24 }
  - { offsetInCU: 0xFA8F, offset: 0xFA8F, size: 0x8, addend: 0x0, symName: __ZNSt3__1neB8ue170006ERKNS_16__deque_iteratorIPN16BinarySearchTreeIiNS_4lessIiEEE4NodeEPS6_RS6_PS7_lLl512EEESC_, symObjAddr: 0x8D74, symBinAddr: 0x10000B55C, symSize: 0x34 }
  - { offsetInCU: 0xFACC, offset: 0xFACC, size: 0x8, addend: 0x0, symName: __ZNSt3__1eqB8ue170006ERKNS_16__deque_iteratorIPN16BinarySearchTreeIiNS_4lessIiEEE4NodeEPS6_RS6_PS7_lLl512EEESC_, symObjAddr: 0x8E18, symBinAddr: 0x10000B600, symSize: 0x30 }
  - { offsetInCU: 0xFB3C, offset: 0xFB3C, size: 0x8, addend: 0x0, symName: __ZNSt3__1neB8ue170006ERKNS_21__tree_const_iteratorIN16BinarySearchTreeIiNS_4lessIiEEE16Tree_grid_squareEPNS_11__tree_nodeIS5_PvEElEESC_, symObjAddr: 0x9848, symBinAddr: 0x10000C030, symSize: 0x34 }
  - { offsetInCU: 0xFB97, offset: 0xFB97, size: 0x8, addend: 0x0, symName: __ZNSt3__127__tree_balance_after_insertB8ue170006IPNS_16__tree_node_baseIPvEEEEvT_S5_, symObjAddr: 0xA678, symBinAddr: 0x10000CE60, symSize: 0x32C }
  - { offsetInCU: 0xFC13, offset: 0xFC13, size: 0x8, addend: 0x0, symName: __ZNSt3__120__tree_is_left_childB8ue170006IPNS_16__tree_node_baseIPvEEEEbT_, symObjAddr: 0xA9E4, symBinAddr: 0x10000D1CC, symSize: 0x2C }
  - { offsetInCU: 0xFC48, offset: 0xFC48, size: 0x8, addend: 0x0, symName: __ZNSt3__118__tree_left_rotateB8ue170006IPNS_16__tree_node_baseIPvEEEEvT_, symObjAddr: 0xAA10, symBinAddr: 0x10000D1F8, symSize: 0xD8 }
  - { offsetInCU: 0xFC8A, offset: 0xFC8A, size: 0x8, addend: 0x0, symName: __ZNSt3__119__tree_right_rotateB8ue170006IPNS_16__tree_node_baseIPvEEEEvT_, symObjAddr: 0xAAE8, symBinAddr: 0x10000D2D0, symSize: 0xCC }
  - { offsetInCU: 0xFCCC, offset: 0xFCCC, size: 0x8, addend: 0x0, symName: __ZNSt3__1neB8ue170006ERKNS_15__tree_iteratorIN16BinarySearchTreeIiNS_4lessIiEEE16Tree_grid_squareEPNS_11__tree_nodeIS5_PvEElEESC_, symObjAddr: 0xB2A8, symBinAddr: 0x10000DA90, symSize: 0x34 }
  - { offsetInCU: 0xFD09, offset: 0xFD09, size: 0x8, addend: 0x0, symName: __ZNSt3__1eqB8ue170006ERKNS_15__tree_iteratorIN16BinarySearchTreeIiNS_4lessIiEEE16Tree_grid_squareEPNS_11__tree_nodeIS5_PvEElEESC_, symObjAddr: 0xB38C, symBinAddr: 0x10000DB74, symSize: 0x30 }
  - { offsetInCU: 0xFD46, offset: 0xFD46, size: 0x8, addend: 0x0, symName: __ZNSt3__1eqB8ue170006ERKNS_21__tree_const_iteratorIN16BinarySearchTreeIiNS_4lessIiEEE16Tree_grid_squareEPNS_11__tree_nodeIS5_PvEElEESC_, symObjAddr: 0xB3D4, symBinAddr: 0x10000DBBC, symSize: 0x30 }
  - { offsetInCU: 0xFD83, offset: 0xFD83, size: 0x8, addend: 0x0, symName: __ZNSt3__113__tree_removeB8ue170006IPNS_16__tree_node_baseIPvEEEEvT_S5_, symObjAddr: 0xB5C8, symBinAddr: 0x10000DDB0, symSize: 0x6E0 }
  - { offsetInCU: 0xFE01, offset: 0xFE01, size: 0x8, addend: 0x0, symName: __ZNSt3__116__tree_next_iterB8ue170006IPNS_15__tree_end_nodeIPNS_16__tree_node_baseIPvEEEES5_EET_T0_, symObjAddr: 0xBCA8, symBinAddr: 0x10000E490, symSize: 0x80 }
  - { offsetInCU: 0xFE3F, offset: 0xFE3F, size: 0x8, addend: 0x0, symName: __ZNSt3__110__tree_minB8ue170006IPNS_16__tree_node_baseIPvEEEET_S5_, symObjAddr: 0xBD28, symBinAddr: 0x10000E510, symSize: 0x40 }
  - { offsetInCU: 0xFE74, offset: 0xFE74, size: 0x8, addend: 0x0, symName: __ZNSt3__111__tree_nextB8ue170006IPNS_16__tree_node_baseIPvEEEET_S5_, symObjAddr: 0xBD68, symBinAddr: 0x10000E550, symSize: 0x80 }
  - { offsetInCU: 0x10D3A, offset: 0x10D3A, size: 0x8, addend: 0x0, symName: __ZNSt3__112__to_addressB8ue170006IPN16BinarySearchTreeI4Duck14DuckWealthLessE4NodeEEEPT_S8_, symObjAddr: 0xDA6C, symBinAddr: 0x100010254, symSize: 0x14 }
  - { offsetInCU: 0x111C8, offset: 0x111C8, size: 0x8, addend: 0x0, symName: __ZNSt3__14swapB8ue170006IPPPN16BinarySearchTreeI4Duck14DuckWealthLessE4NodeEEENS_9enable_ifIXaasr21is_move_constructibleIT_EE5valuesr18is_move_assignableISA_EE5valueEvE4typeERSA_SD_, symObjAddr: 0xF0C8, symBinAddr: 0x1000118B0, symSize: 0x3C }
  - { offsetInCU: 0x11219, offset: 0x11219, size: 0x8, addend: 0x0, symName: __ZNSt3__14moveB8ue170006IPPPN16BinarySearchTreeI4Duck14DuckWealthLessE4NodeES8_EET0_T_SA_S9_, symObjAddr: 0xF1F8, symBinAddr: 0x1000119E0, symSize: 0x40 }
  - { offsetInCU: 0x11273, offset: 0x11273, size: 0x8, addend: 0x0, symName: __ZNSt3__112__to_addressB8ue170006IPPN16BinarySearchTreeI4Duck14DuckWealthLessE4NodeEEEPT_S9_, symObjAddr: 0xF300, symBinAddr: 0x100011AE8, symSize: 0x14 }
  - { offsetInCU: 0x112A8, offset: 0x112A8, size: 0x8, addend: 0x0, symName: __ZNSt3__16__moveB8ue170006INS_17_ClassicAlgPolicyEPPPN16BinarySearchTreeI4Duck14DuckWealthLessE4NodeES9_S9_EENS_4pairIT0_T2_EESB_T1_SC_, symObjAddr: 0xF314, symBinAddr: 0x100011AFC, symSize: 0x44 }
  - { offsetInCU: 0x11314, offset: 0x11314, size: 0x8, addend: 0x0, symName: __ZNSt3__123__dispatch_copy_or_moveB8ue170006INS_17_ClassicAlgPolicyENS_11__move_loopIS1_EENS_14__move_trivialEPPPN16BinarySearchTreeI4Duck14DuckWealthLessE4NodeESC_SC_EENS_4pairIT2_T4_EESE_T3_SF_, symObjAddr: 0xF358, symBinAddr: 0x100011B40, symSize: 0x44 }
  - { offsetInCU: 0x11392, offset: 0x11392, size: 0x8, addend: 0x0, symName: __ZNSt3__121__unwrap_and_dispatchB8ue170006INS_10__overloadINS_11__move_loopINS_17_ClassicAlgPolicyEEENS_14__move_trivialEEEPPPN16BinarySearchTreeI4Duck14DuckWealthLessE4NodeESE_SE_Li0EEENS_4pairIT0_T2_EESG_T1_SH_, symObjAddr: 0xF39C, symBinAddr: 0x100011B84, symSize: 0xB4 }
  - { offsetInCU: 0x11420, offset: 0x11420, size: 0x8, addend: 0x0, symName: __ZNSt3__114__unwrap_rangeB8ue170006IPPPN16BinarySearchTreeI4Duck14DuckWealthLessE4NodeES8_EENS_4pairIT0_SA_EET_SC_, symObjAddr: 0xF450, symBinAddr: 0x100011C38, symSize: 0x60 }
  - { offsetInCU: 0x1159E, offset: 0x1159E, size: 0x8, addend: 0x0, symName: __ZNSt3__113__unwrap_iterB8ue170006IPPPN16BinarySearchTreeI4Duck14DuckWealthLessE4NodeENS_18__unwrap_iter_implIS8_Lb1EEELi0EEEDTclsrT0_8__unwrapclsr3stdE7declvalIT_EEEESC_, symObjAddr: 0xF4F8, symBinAddr: 0x100011CE0, symSize: 0x24 }
  - { offsetInCU: 0x115E2, offset: 0x115E2, size: 0x8, addend: 0x0, symName: __ZNSt3__19make_pairB8ue170006IPPPN16BinarySearchTreeI4Duck14DuckWealthLessE4NodeES8_EENS_4pairINS_18__unwrap_ref_decayIT_E4typeENSA_IT0_E4typeEEEOSB_OSE_, symObjAddr: 0xF51C, symBinAddr: 0x100011D04, symSize: 0x38 }
  - { offsetInCU: 0x11631, offset: 0x11631, size: 0x8, addend: 0x0, symName: __ZNSt3__114__rewrap_rangeB8ue170006IPPPN16BinarySearchTreeI4Duck14DuckWealthLessE4NodeES8_EET_S9_T0_, symObjAddr: 0xF554, symBinAddr: 0x100011D3C, symSize: 0x2C }
  - { offsetInCU: 0x1167D, offset: 0x1167D, size: 0x8, addend: 0x0, symName: __ZNSt3__113__rewrap_iterB8ue170006IPPPN16BinarySearchTreeI4Duck14DuckWealthLessE4NodeES8_NS_18__unwrap_iter_implIS8_Lb1EEEEET_SB_T0_, symObjAddr: 0xF580, symBinAddr: 0x100011D68, symSize: 0x3C }
  - { offsetInCU: 0x116D2, offset: 0x116D2, size: 0x8, addend: 0x0, symName: __ZNSt3__119__copy_trivial_implB8ue170006IPPN16BinarySearchTreeI4Duck14DuckWealthLessE4NodeES7_EENS_4pairIPT_PT0_EESA_SA_SC_, symObjAddr: 0xF5BC, symBinAddr: 0x100011DA4, symSize: 0x80 }
  - { offsetInCU: 0x1173A, offset: 0x1173A, size: 0x8, addend: 0x0, symName: __ZNSt3__119__constexpr_memmoveB8ue170006IPPN16BinarySearchTreeI4Duck14DuckWealthLessE4NodeES7_Li0EEEPT_S9_PT0_NS_15__element_countE, symObjAddr: 0xF63C, symBinAddr: 0x100011E24, symSize: 0x64 }
  - { offsetInCU: 0x117A8, offset: 0x117A8, size: 0x8, addend: 0x0, symName: __ZNSt3__19make_pairB8ue170006IRPPPN16BinarySearchTreeI4Duck14DuckWealthLessE4NodeES8_EENS_4pairINS_18__unwrap_ref_decayIT_E4typeENSB_IT0_E4typeEEEOSC_OSF_, symObjAddr: 0xF6A0, symBinAddr: 0x100011E88, symSize: 0x38 }
  - { offsetInCU: 0x1184A, offset: 0x1184A, size: 0x8, addend: 0x0, symName: __ZNSt3__18distanceB8ue170006INS_13move_iteratorIPPPN16BinarySearchTreeI4Duck14DuckWealthLessE4NodeEEEEENS_15iterator_traitsIT_E15difference_typeESC_SC_, symObjAddr: 0xF908, symBinAddr: 0x1000120F0, symSize: 0x3C }
  - { offsetInCU: 0x1188D, offset: 0x1188D, size: 0x8, addend: 0x0, symName: __ZNSt3__110__distanceB8ue170006INS_13move_iteratorIPPPN16BinarySearchTreeI4Duck14DuckWealthLessE4NodeEEEEENS_15iterator_traitsIT_E15difference_typeESC_SC_NS_26random_access_iterator_tagE, symObjAddr: 0xFB0C, symBinAddr: 0x1000122F4, symSize: 0x30 }
  - { offsetInCU: 0x118DA, offset: 0x118DA, size: 0x8, addend: 0x0, symName: __ZNSt3__1miB8ue170006IPPPN16BinarySearchTreeI4Duck14DuckWealthLessE4NodeES8_EEDTmicldtfp_4baseEcldtfp0_4baseEERKNS_13move_iteratorIT_EERKNSA_IT0_EE, symObjAddr: 0xFB3C, symBinAddr: 0x100012324, symSize: 0x48 }
  - { offsetInCU: 0x11929, offset: 0x11929, size: 0x8, addend: 0x0, symName: __ZNSt3__113move_backwardB8ue170006IPPPN16BinarySearchTreeI4Duck14DuckWealthLessE4NodeES8_EET0_T_SA_S9_, symObjAddr: 0xFCD4, symBinAddr: 0x1000124BC, symSize: 0x40 }
  - { offsetInCU: 0x11983, offset: 0x11983, size: 0x8, addend: 0x0, symName: __ZNSt3__115__move_backwardB8ue170006INS_17_ClassicAlgPolicyEPPPN16BinarySearchTreeI4Duck14DuckWealthLessE4NodeES9_S9_EENS_4pairIT0_T2_EESB_T1_SC_, symObjAddr: 0xFD14, symBinAddr: 0x1000124FC, symSize: 0x44 }
  - { offsetInCU: 0x119EF, offset: 0x119EF, size: 0x8, addend: 0x0, symName: __ZNSt3__123__dispatch_copy_or_moveB8ue170006INS_17_ClassicAlgPolicyENS_20__move_backward_loopIS1_EENS_23__move_backward_trivialEPPPN16BinarySearchTreeI4Duck14DuckWealthLessE4NodeESC_SC_EENS_4pairIT2_T4_EESE_T3_SF_, symObjAddr: 0xFD58, symBinAddr: 0x100012540, symSize: 0x44 }
  - { offsetInCU: 0x11A6D, offset: 0x11A6D, size: 0x8, addend: 0x0, symName: __ZNSt3__121__unwrap_and_dispatchB8ue170006INS_10__overloadINS_20__move_backward_loopINS_17_ClassicAlgPolicyEEENS_23__move_backward_trivialEEEPPPN16BinarySearchTreeI4Duck14DuckWealthLessE4NodeESE_SE_Li0EEENS_4pairIT0_T2_EESG_T1_SH_, symObjAddr: 0xFD9C, symBinAddr: 0x100012584, symSize: 0xB4 }
  - { offsetInCU: 0x11AFB, offset: 0x11AFB, size: 0x8, addend: 0x0, symName: __ZNSt3__128__copy_backward_trivial_implB8ue170006IPPN16BinarySearchTreeI4Duck14DuckWealthLessE4NodeES7_EENS_4pairIPT_PT0_EESA_SA_SC_, symObjAddr: 0xFE98, symBinAddr: 0x100012680, symSize: 0x90 }
  - { offsetInCU: 0x11B63, offset: 0x11B63, size: 0x8, addend: 0x0, symName: __ZNSt3__19make_pairB8ue170006IRPPPN16BinarySearchTreeI4Duck14DuckWealthLessE4NodeES9_EENS_4pairINS_18__unwrap_ref_decayIT_E4typeENSB_IT0_E4typeEEEOSC_OSF_, symObjAddr: 0xFF28, symBinAddr: 0x100012710, symSize: 0x38 }
  - { offsetInCU: 0x11BB2, offset: 0x11BB2, size: 0x8, addend: 0x0, symName: __ZNSt3__119__allocate_at_leastB8ue170006INS_9allocatorIPPN16BinarySearchTreeI4Duck14DuckWealthLessE4NodeEEEEENS_19__allocation_resultINS_16allocator_traitsIT_E7pointerEEERSC_m, symObjAddr: 0x1015C, symBinAddr: 0x100012944, symSize: 0x40 }
  - { offsetInCU: 0x11BF5, offset: 0x11BF5, size: 0x8, addend: 0x0, symName: __ZNSt3__1neB8ue170006ERKNS_16__deque_iteratorIPN16BinarySearchTreeI4Duck14DuckWealthLessE4NodeEPS6_RS6_PS7_lLl512EEESC_, symObjAddr: 0x111C0, symBinAddr: 0x1000139A8, symSize: 0x34 }
  - { offsetInCU: 0x11C32, offset: 0x11C32, size: 0x8, addend: 0x0, symName: __ZNSt3__1eqB8ue170006ERKNS_16__deque_iteratorIPN16BinarySearchTreeI4Duck14DuckWealthLessE4NodeEPS6_RS6_PS7_lLl512EEESC_, symObjAddr: 0x11264, symBinAddr: 0x100013A4C, symSize: 0x30 }
  - { offsetInCU: 0x11C6F, offset: 0x11C6F, size: 0x8, addend: 0x0, symName: __ZNSt3__1neB8ue170006ERKNS_21__tree_const_iteratorIN16BinarySearchTreeI4Duck14DuckWealthLessE16Tree_grid_squareEPNS_11__tree_nodeIS5_PvEElEESC_, symObjAddr: 0x11C10, symBinAddr: 0x1000143F8, symSize: 0x34 }
  - { offsetInCU: 0x11CCA, offset: 0x11CCA, size: 0x8, addend: 0x0, symName: __ZNSt3__1neB8ue170006ERKNS_15__tree_iteratorIN16BinarySearchTreeI4Duck14DuckWealthLessE16Tree_grid_squareEPNS_11__tree_nodeIS5_PvEElEESC_, symObjAddr: 0x1306C, symBinAddr: 0x100015854, symSize: 0x34 }
  - { offsetInCU: 0x11D07, offset: 0x11D07, size: 0x8, addend: 0x0, symName: __ZNSt3__1eqB8ue170006ERKNS_15__tree_iteratorIN16BinarySearchTreeI4Duck14DuckWealthLessE16Tree_grid_squareEPNS_11__tree_nodeIS5_PvEElEESC_, symObjAddr: 0x13150, symBinAddr: 0x100015938, symSize: 0x30 }
  - { offsetInCU: 0x11D44, offset: 0x11D44, size: 0x8, addend: 0x0, symName: __ZNSt3__1eqB8ue170006ERKNS_21__tree_const_iteratorIN16BinarySearchTreeI4Duck14DuckWealthLessE16Tree_grid_squareEPNS_11__tree_nodeIS5_PvEElEESC_, symObjAddr: 0x13198, symBinAddr: 0x100015980, symSize: 0x30 }
  - { offsetInCU: 0x11D81, offset: 0x11D81, size: 0x8, addend: 0x0, symName: __ZNSt3__112__to_addressB8ue170006IKcEEPT_S3_, symObjAddr: 0x13CF0, symBinAddr: 0x1000164D8, symSize: 0x14 }
  - { offsetInCU: 0x1209F, offset: 0x1209F, size: 0x8, addend: 0x0, symName: __ZSt28__throw_bad_array_new_lengthB8ue170006v, symObjAddr: 0x751C, symBinAddr: 0x100009D04, symSize: 0x34 }
  - { offsetInCU: 0x13A51, offset: 0x13A51, size: 0x8, addend: 0x0, symName: __Z3powB8ue170006IiiENSt3__19enable_ifIXaasr3std13is_arithmeticIT_EE5valuesr3std13is_arithmeticIT0_EE5valueENS0_9__promoteIS2_S3_vEEE4type4typeES2_S3_, symObjAddr: 0xAFE4, symBinAddr: 0x10000D7CC, symSize: 0x44 }
  - { offsetInCU: 0x1614D, offset: 0x1614D, size: 0x8, addend: 0x0, symName: __ZlsRNSt3__113basic_ostreamIcNS_11char_traitsIcEEEERK4Duck, symObjAddr: 0x0, symBinAddr: 0x1000027E8, symSize: 0x48 }
  - { offsetInCU: 0x16188, offset: 0x16188, size: 0x8, addend: 0x0, symName: __ZNK4Duck9getWealthEv, symObjAddr: 0x90, symBinAddr: 0x100002878, symSize: 0x18 }
  - { offsetInCU: 0x161AE, offset: 0x161AE, size: 0x8, addend: 0x0, symName: _main, symObjAddr: 0xA8, symBinAddr: 0x100002890, symSize: 0x92C }
  - { offsetInCU: 0x162B6, offset: 0x162B6, size: 0x8, addend: 0x0, symName: __ZNSt3__113basic_ostreamIcNS_11char_traitsIcEEElsB8ue170006EPFRS3_S4_E, symObjAddr: 0x9D4, symBinAddr: 0x1000031BC, symSize: 0x2C }
  - { offsetInCU: 0x162EA, offset: 0x162EA, size: 0x8, addend: 0x0, symName: __ZN16BinarySearchTreeIiNSt3__14lessIiEEEC1Ev, symObjAddr: 0xA58, symBinAddr: 0x100003240, symSize: 0x2C }
  - { offsetInCU: 0x16314, offset: 0x16314, size: 0x8, addend: 0x0, symName: __ZN16BinarySearchTreeI4Duck14DuckWealthLessEC1Ev, symObjAddr: 0xA84, symBinAddr: 0x10000326C, symSize: 0x2C }
  - { offsetInCU: 0x1633E, offset: 0x1633E, size: 0x8, addend: 0x0, symName: __ZN16BinarySearchTreeIiNSt3__14lessIiEEE6insertERKi, symObjAddr: 0xAB0, symBinAddr: 0x100003298, symSize: 0xAC }
  - { offsetInCU: 0x16373, offset: 0x16373, size: 0x8, addend: 0x0, symName: __ZN16BinarySearchTreeI4Duck14DuckWealthLessE6insertERKS0_, symObjAddr: 0xB5C, symBinAddr: 0x100003344, symSize: 0xAC }
  - { offsetInCU: 0x163A8, offset: 0x163A8, size: 0x8, addend: 0x0, symName: __ZN4DuckC1Ei, symObjAddr: 0xC08, symBinAddr: 0x1000033F0, symSize: 0x34 }
  - { offsetInCU: 0x163E0, offset: 0x163E0, size: 0x8, addend: 0x0, symName: __ZNSt3__112basic_stringIcNS_11char_traitsIcEENS_9allocatorIcEEEC1B8ue170006Ev, symObjAddr: 0xC3C, symBinAddr: 0x100003424, symSize: 0x2C }
  - { offsetInCU: 0x1640A, offset: 0x1640A, size: 0x8, addend: 0x0, symName: __ZN16BinarySearchTreeIiNSt3__14lessIiEEE8IteratorC1Ev, symObjAddr: 0xC68, symBinAddr: 0x100003450, symSize: 0x2C }
  - { offsetInCU: 0x16434, offset: 0x16434, size: 0x8, addend: 0x0, symName: __ZN16BinarySearchTreeI4Duck14DuckWealthLessE8IteratorC1Ev, symObjAddr: 0xC94, symBinAddr: 0x10000347C, symSize: 0x2C }
  - { offsetInCU: 0x1645E, offset: 0x1645E, size: 0x8, addend: 0x0, symName: __ZN16BinarySearchTreeIiNSt3__14lessIiEEEC1ERKS3_, symObjAddr: 0xCC0, symBinAddr: 0x1000034A8, symSize: 0x34 }
  - { offsetInCU: 0x16496, offset: 0x16496, size: 0x8, addend: 0x0, symName: __ZN16BinarySearchTreeI4Duck14DuckWealthLessEC1ERKS2_, symObjAddr: 0xCF4, symBinAddr: 0x1000034DC, symSize: 0x34 }
  - { offsetInCU: 0x164CE, offset: 0x164CE, size: 0x8, addend: 0x0, symName: __ZN16BinarySearchTreeIiNSt3__14lessIiEEEaSERKS3_, symObjAddr: 0xD28, symBinAddr: 0x100003510, symSize: 0x74 }
  - { offsetInCU: 0x16502, offset: 0x16502, size: 0x8, addend: 0x0, symName: __ZN16BinarySearchTreeI4Duck14DuckWealthLessEaSERKS2_, symObjAddr: 0xD9C, symBinAddr: 0x100003584, symSize: 0x74 }
  - { offsetInCU: 0x16536, offset: 0x16536, size: 0x8, addend: 0x0, symName: __ZNK16BinarySearchTreeIiNSt3__14lessIiEEE5emptyEv, symObjAddr: 0xE10, symBinAddr: 0x1000035F8, symSize: 0x2C }
  - { offsetInCU: 0x1655C, offset: 0x1655C, size: 0x8, addend: 0x0, symName: __ZNK16BinarySearchTreeI4Duck14DuckWealthLessE5emptyEv, symObjAddr: 0xE3C, symBinAddr: 0x100003624, symSize: 0x2C }
  - { offsetInCU: 0x16582, offset: 0x16582, size: 0x8, addend: 0x0, symName: __ZNK16BinarySearchTreeIiNSt3__14lessIiEEE6heightEv, symObjAddr: 0xE68, symBinAddr: 0x100003650, symSize: 0x30 }
  - { offsetInCU: 0x165A8, offset: 0x165A8, size: 0x8, addend: 0x0, symName: __ZNK16BinarySearchTreeI4Duck14DuckWealthLessE6heightEv, symObjAddr: 0xE98, symBinAddr: 0x100003680, symSize: 0x30 }
  - { offsetInCU: 0x165CE, offset: 0x165CE, size: 0x8, addend: 0x0, symName: __ZNK16BinarySearchTreeIiNSt3__14lessIiEEE4sizeEv, symObjAddr: 0xEC8, symBinAddr: 0x1000036B0, symSize: 0x30 }
  - { offsetInCU: 0x165F4, offset: 0x165F4, size: 0x8, addend: 0x0, symName: __ZNK16BinarySearchTreeI4Duck14DuckWealthLessE4sizeEv, symObjAddr: 0xEF8, symBinAddr: 0x1000036E0, symSize: 0x30 }
  - { offsetInCU: 0x1661A, offset: 0x1661A, size: 0x8, addend: 0x0, symName: __ZNK16BinarySearchTreeIiNSt3__14lessIiEEE16traverse_inorderERNS0_13basic_ostreamIcNS0_11char_traitsIcEEEE, symObjAddr: 0xF28, symBinAddr: 0x100003710, symSize: 0x30 }
  - { offsetInCU: 0x1664E, offset: 0x1664E, size: 0x8, addend: 0x0, symName: __ZNK16BinarySearchTreeI4Duck14DuckWealthLessE16traverse_inorderERNSt3__113basic_ostreamIcNS3_11char_traitsIcEEEE, symObjAddr: 0xF58, symBinAddr: 0x100003740, symSize: 0x30 }
  - { offsetInCU: 0x16682, offset: 0x16682, size: 0x8, addend: 0x0, symName: __ZNK16BinarySearchTreeIiNSt3__14lessIiEEE17traverse_preorderERNS0_13basic_ostreamIcNS0_11char_traitsIcEEEE, symObjAddr: 0xF88, symBinAddr: 0x100003770, symSize: 0x30 }
  - { offsetInCU: 0x166B6, offset: 0x166B6, size: 0x8, addend: 0x0, symName: __ZNK16BinarySearchTreeI4Duck14DuckWealthLessE17traverse_preorderERNSt3__113basic_ostreamIcNS3_11char_traitsIcEEEE, symObjAddr: 0xFB8, symBinAddr: 0x1000037A0, symSize: 0x30 }
  - { offsetInCU: 0x166EA, offset: 0x166EA, size: 0x8, addend: 0x0, symName: __ZNK16BinarySearchTreeIiNSt3__14lessIiEEE23check_sorting_invariantEv, symObjAddr: 0xFE8, symBinAddr: 0x1000037D0, symSize: 0x2C }
  - { offsetInCU: 0x16710, offset: 0x16710, size: 0x8, addend: 0x0, symName: __ZNK16BinarySearchTreeI4Duck14DuckWealthLessE23check_sorting_invariantEv, symObjAddr: 0x1014, symBinAddr: 0x1000037FC, symSize: 0x2C }
  - { offsetInCU: 0x16736, offset: 0x16736, size: 0x8, addend: 0x0, symName: __ZNK16BinarySearchTreeIiNSt3__14lessIiEEE5beginEv, symObjAddr: 0x1040, symBinAddr: 0x100003828, symSize: 0x70 }
  - { offsetInCU: 0x1675C, offset: 0x1675C, size: 0x8, addend: 0x0, symName: __ZNK16BinarySearchTreeI4Duck14DuckWealthLessE5beginEv, symObjAddr: 0x10B0, symBinAddr: 0x100003898, symSize: 0x70 }
  - { offsetInCU: 0x16782, offset: 0x16782, size: 0x8, addend: 0x0, symName: __ZNK16BinarySearchTreeIiNSt3__14lessIiEEE3endEv, symObjAddr: 0x1120, symBinAddr: 0x100003908, symSize: 0x2C }
  - { offsetInCU: 0x167A8, offset: 0x167A8, size: 0x8, addend: 0x0, symName: __ZNK16BinarySearchTreeI4Duck14DuckWealthLessE3endEv, symObjAddr: 0x114C, symBinAddr: 0x100003934, symSize: 0x2C }
  - { offsetInCU: 0x167CE, offset: 0x167CE, size: 0x8, addend: 0x0, symName: __ZNK16BinarySearchTreeIiNSt3__14lessIiEEE11min_elementEv, symObjAddr: 0x1178, symBinAddr: 0x100003960, symSize: 0x44 }
  - { offsetInCU: 0x167F4, offset: 0x167F4, size: 0x8, addend: 0x0, symName: __ZNK16BinarySearchTreeI4Duck14DuckWealthLessE11min_elementEv, symObjAddr: 0x11BC, symBinAddr: 0x1000039A4, symSize: 0x44 }
  - { offsetInCU: 0x1681A, offset: 0x1681A, size: 0x8, addend: 0x0, symName: __ZNK16BinarySearchTreeIiNSt3__14lessIiEEE11max_elementEv, symObjAddr: 0x1200, symBinAddr: 0x1000039E8, symSize: 0x44 }
  - { offsetInCU: 0x16840, offset: 0x16840, size: 0x8, addend: 0x0, symName: __ZNK16BinarySearchTreeI4Duck14DuckWealthLessE11max_elementEv, symObjAddr: 0x1244, symBinAddr: 0x100003A2C, symSize: 0x44 }
  - { offsetInCU: 0x16866, offset: 0x16866, size: 0x8, addend: 0x0, symName: __ZNK16BinarySearchTreeIiNSt3__14lessIiEEE4findERKi, symObjAddr: 0x1288, symBinAddr: 0x100003A70, symSize: 0x4C }
  - { offsetInCU: 0x1689B, offset: 0x1689B, size: 0x8, addend: 0x0, symName: __ZNK16BinarySearchTreeI4Duck14DuckWealthLessE4findERKS0_, symObjAddr: 0x12D4, symBinAddr: 0x100003ABC, symSize: 0x4C }
  - { offsetInCU: 0x168D0, offset: 0x168D0, size: 0x8, addend: 0x0, symName: __ZN4DuckC1Ev, symObjAddr: 0x1320, symBinAddr: 0x100003B08, symSize: 0x2C }
  - { offsetInCU: 0x168FA, offset: 0x168FA, size: 0x8, addend: 0x0, symName: __ZNK16BinarySearchTreeIiNSt3__14lessIiEEE9to_stringEv, symObjAddr: 0x134C, symBinAddr: 0x100003B34, symSize: 0x520 }
  - { offsetInCU: 0x169BA, offset: 0x169BA, size: 0x8, addend: 0x0, symName: __ZNSt3__112basic_stringIcNS_11char_traitsIcEENS_9allocatorIcEEEaSB8ue170006EOS5_, symObjAddr: 0x186C, symBinAddr: 0x100004054, symSize: 0x34 }
  - { offsetInCU: 0x169EF, offset: 0x169EF, size: 0x8, addend: 0x0, symName: __ZNK16BinarySearchTreeI4Duck14DuckWealthLessE9to_stringEv, symObjAddr: 0x18A0, symBinAddr: 0x100004088, symSize: 0x514 }
  - { offsetInCU: 0x16AAF, offset: 0x16AAF, size: 0x8, addend: 0x0, symName: __ZNK16BinarySearchTreeIiNSt3__14lessIiEEE16min_greater_thanERKi, symObjAddr: 0x1DB4, symBinAddr: 0x10000459C, symSize: 0x4C }
  - { offsetInCU: 0x16AE4, offset: 0x16AE4, size: 0x8, addend: 0x0, symName: __ZNK16BinarySearchTreeI4Duck14DuckWealthLessE16min_greater_thanERKS0_, symObjAddr: 0x1E00, symBinAddr: 0x1000045E8, symSize: 0x4C }
  - { offsetInCU: 0x16B19, offset: 0x16B19, size: 0x8, addend: 0x0, symName: __ZNK16BinarySearchTreeIiNSt3__14lessIiEEE8IteratordeEv, symObjAddr: 0x1E4C, symBinAddr: 0x100004634, symSize: 0x18 }
  - { offsetInCU: 0x16B3F, offset: 0x16B3F, size: 0x8, addend: 0x0, symName: __ZNK16BinarySearchTreeI4Duck14DuckWealthLessE8IteratordeEv, symObjAddr: 0x1E64, symBinAddr: 0x10000464C, symSize: 0x18 }
  - { offsetInCU: 0x16B65, offset: 0x16B65, size: 0x8, addend: 0x0, symName: __ZN16BinarySearchTreeIiNSt3__14lessIiEEE8IteratorppEv, symObjAddr: 0x1E7C, symBinAddr: 0x100004664, symSize: 0x78 }
  - { offsetInCU: 0x16B8B, offset: 0x16B8B, size: 0x8, addend: 0x0, symName: __ZN16BinarySearchTreeI4Duck14DuckWealthLessE8IteratorppEv, symObjAddr: 0x1EF4, symBinAddr: 0x1000046DC, symSize: 0x78 }
  - { offsetInCU: 0x16BB1, offset: 0x16BB1, size: 0x8, addend: 0x0, symName: __ZN16BinarySearchTreeIiNSt3__14lessIiEEE8IteratorppEi, symObjAddr: 0x1F6C, symBinAddr: 0x100004754, symSize: 0x3C }
  - { offsetInCU: 0x16BF1, offset: 0x16BF1, size: 0x8, addend: 0x0, symName: __ZN16BinarySearchTreeI4Duck14DuckWealthLessE8IteratorppEi, symObjAddr: 0x1FA8, symBinAddr: 0x100004790, symSize: 0x3C }
  - { offsetInCU: 0x16C31, offset: 0x16C31, size: 0x8, addend: 0x0, symName: __ZNK16BinarySearchTreeIiNSt3__14lessIiEEE8IteratoreqERKS4_, symObjAddr: 0x1FE4, symBinAddr: 0x1000047CC, symSize: 0x30 }
  - { offsetInCU: 0x16C65, offset: 0x16C65, size: 0x8, addend: 0x0, symName: __ZNK16BinarySearchTreeI4Duck14DuckWealthLessE8IteratoreqERKS3_, symObjAddr: 0x2014, symBinAddr: 0x1000047FC, symSize: 0x30 }
  - { offsetInCU: 0x16C99, offset: 0x16C99, size: 0x8, addend: 0x0, symName: __ZNK16BinarySearchTreeIiNSt3__14lessIiEEE8IteratorneERKS4_, symObjAddr: 0x2044, symBinAddr: 0x10000482C, symSize: 0x30 }
  - { offsetInCU: 0x16CCD, offset: 0x16CCD, size: 0x8, addend: 0x0, symName: __ZNK16BinarySearchTreeI4Duck14DuckWealthLessE8IteratorneERKS3_, symObjAddr: 0x2074, symBinAddr: 0x10000485C, symSize: 0x30 }
  - { offsetInCU: 0x16D01, offset: 0x16D01, size: 0x8, addend: 0x0, symName: __ZN16BinarySearchTreeI4Duck14DuckWealthLessED1Ev, symObjAddr: 0x20F0, symBinAddr: 0x1000048D8, symSize: 0x2C }
  - { offsetInCU: 0x16D2B, offset: 0x16D2B, size: 0x8, addend: 0x0, symName: __ZN16BinarySearchTreeIiNSt3__14lessIiEEED1Ev, symObjAddr: 0x211C, symBinAddr: 0x100004904, symSize: 0x2C }
  - { offsetInCU: 0x16D55, offset: 0x16D55, size: 0x8, addend: 0x0, symName: __ZN4DuckC2Ei, symObjAddr: 0x2148, symBinAddr: 0x100004930, symSize: 0x20 }
  - { offsetInCU: 0x16D8D, offset: 0x16D8D, size: 0x8, addend: 0x0, symName: __ZN4DuckC2Ev, symObjAddr: 0x2168, symBinAddr: 0x100004950, symSize: 0x18 }
  - { offsetInCU: 0x16DB7, offset: 0x16DB7, size: 0x8, addend: 0x0, symName: __ZNSt3__111char_traitsIcE6lengthB8ue170006EPKc, symObjAddr: 0x236C, symBinAddr: 0x100004B54, symSize: 0x34 }
  - { offsetInCU: 0x16DF8, offset: 0x16DF8, size: 0x8, addend: 0x0, symName: __ZNKSt3__113basic_ostreamIcNS_11char_traitsIcEEE6sentrycvbB8ue170006Ev, symObjAddr: 0x23A0, symBinAddr: 0x100004B88, symSize: 0x1C }
  - { offsetInCU: 0x16E1E, offset: 0x16E1E, size: 0x8, addend: 0x0, symName: __ZNSt3__119ostreambuf_iteratorIcNS_11char_traitsIcEEEC1B8ue170006ERNS_13basic_ostreamIcS2_EE, symObjAddr: 0x25FC, symBinAddr: 0x100004DE4, symSize: 0x34 }
  - { offsetInCU: 0x16E56, offset: 0x16E56, size: 0x8, addend: 0x0, symName: __ZNKSt3__18ios_base5flagsB8ue170006Ev, symObjAddr: 0x2630, symBinAddr: 0x100004E18, symSize: 0x18 }
  - { offsetInCU: 0x16E7E, offset: 0x16E7E, size: 0x8, addend: 0x0, symName: __ZNKSt3__19basic_iosIcNS_11char_traitsIcEEE4fillB8ue170006Ev, symObjAddr: 0x2648, symBinAddr: 0x100004E30, symSize: 0x64 }
  - { offsetInCU: 0x16EA6, offset: 0x16EA6, size: 0x8, addend: 0x0, symName: __ZNKSt3__119ostreambuf_iteratorIcNS_11char_traitsIcEEE6failedB8ue170006Ev, symObjAddr: 0x26AC, symBinAddr: 0x100004E94, symSize: 0x24 }
  - { offsetInCU: 0x16ECC, offset: 0x16ECC, size: 0x8, addend: 0x0, symName: __ZNSt3__19basic_iosIcNS_11char_traitsIcEEE8setstateB8ue170006Ej, symObjAddr: 0x26D0, symBinAddr: 0x100004EB8, symSize: 0x2C }
  - { offsetInCU: 0x16F01, offset: 0x16F01, size: 0x8, addend: 0x0, symName: __ZNKSt3__18ios_base5widthB8ue170006Ev, symObjAddr: 0x2708, symBinAddr: 0x100004EF0, symSize: 0x18 }
  - { offsetInCU: 0x16F29, offset: 0x16F29, size: 0x8, addend: 0x0, symName: __ZNSt3__115basic_streambufIcNS_11char_traitsIcEEE5sputnB8ue170006EPKcl, symObjAddr: 0x2720, symBinAddr: 0x100004F08, symSize: 0x3C }
  - { offsetInCU: 0x16F6B, offset: 0x16F6B, size: 0x8, addend: 0x0, symName: __ZNSt3__112basic_stringIcNS_11char_traitsIcEENS_9allocatorIcEEEC1B8ue170006Emc, symObjAddr: 0x275C, symBinAddr: 0x100004F44, symSize: 0x3C }
  - { offsetInCU: 0x16FB3, offset: 0x16FB3, size: 0x8, addend: 0x0, symName: __ZNSt3__112basic_stringIcNS_11char_traitsIcEENS_9allocatorIcEEE4dataB8ue170006Ev, symObjAddr: 0x2798, symBinAddr: 0x100004F80, symSize: 0x28 }
  - { offsetInCU: 0x16FD9, offset: 0x16FD9, size: 0x8, addend: 0x0, symName: __ZNSt3__18ios_base5widthB8ue170006El, symObjAddr: 0x27C0, symBinAddr: 0x100004FA8, symSize: 0x2C }
  - { offsetInCU: 0x1701F, offset: 0x1701F, size: 0x8, addend: 0x0, symName: __ZNSt3__112basic_stringIcNS_11char_traitsIcEENS_9allocatorIcEEEC2B8ue170006Emc, symObjAddr: 0x27EC, symBinAddr: 0x100004FD4, symSize: 0x4C }
  - { offsetInCU: 0x1706D, offset: 0x1706D, size: 0x8, addend: 0x0, symName: __ZNSt3__117__compressed_pairINS_12basic_stringIcNS_11char_traitsIcEENS_9allocatorIcEEE5__repES5_EC1B8ue170006INS_18__default_init_tagESA_EEOT_OT0_, symObjAddr: 0x2838, symBinAddr: 0x100005020, symSize: 0x3C }
  - { offsetInCU: 0x170C5, offset: 0x170C5, size: 0x8, addend: 0x0, symName: __ZNSt3__117__compressed_pairINS_12basic_stringIcNS_11char_traitsIcEENS_9allocatorIcEEE5__repES5_EC2B8ue170006INS_18__default_init_tagESA_EEOT_OT0_, symObjAddr: 0x2874, symBinAddr: 0x10000505C, symSize: 0x3C }
  - { offsetInCU: 0x1711D, offset: 0x1711D, size: 0x8, addend: 0x0, symName: __ZNSt3__122__compressed_pair_elemINS_12basic_stringIcNS_11char_traitsIcEENS_9allocatorIcEEE5__repELi0ELb0EEC2B8ue170006ENS_18__default_init_tagE, symObjAddr: 0x28B0, symBinAddr: 0x100005098, symSize: 0x14 }
  - { offsetInCU: 0x17151, offset: 0x17151, size: 0x8, addend: 0x0, symName: __ZNSt3__122__compressed_pair_elemINS_9allocatorIcEELi1ELb1EEC2B8ue170006ENS_18__default_init_tagE, symObjAddr: 0x28C4, symBinAddr: 0x1000050AC, symSize: 0x2C }
  - { offsetInCU: 0x17185, offset: 0x17185, size: 0x8, addend: 0x0, symName: __ZNSt3__19allocatorIcEC2B8ue170006Ev, symObjAddr: 0x28F0, symBinAddr: 0x1000050D8, symSize: 0x2C }
  - { offsetInCU: 0x171AF, offset: 0x171AF, size: 0x8, addend: 0x0, symName: __ZNSt3__116__non_trivial_ifILb1ENS_9allocatorIcEEEC2B8ue170006Ev, symObjAddr: 0x291C, symBinAddr: 0x100005104, symSize: 0x14 }
  - { offsetInCU: 0x171D9, offset: 0x171D9, size: 0x8, addend: 0x0, symName: __ZNSt3__112basic_stringIcNS_11char_traitsIcEENS_9allocatorIcEEE13__get_pointerB8ue170006Ev, symObjAddr: 0x2944, symBinAddr: 0x10000512C, symSize: 0x54 }
  - { offsetInCU: 0x171FF, offset: 0x171FF, size: 0x8, addend: 0x0, symName: __ZNKSt3__112basic_stringIcNS_11char_traitsIcEENS_9allocatorIcEEE9__is_longB8ue170006Ev, symObjAddr: 0x2998, symBinAddr: 0x100005180, symSize: 0x38 }
  - { offsetInCU: 0x17225, offset: 0x17225, size: 0x8, addend: 0x0, symName: __ZNSt3__112basic_stringIcNS_11char_traitsIcEENS_9allocatorIcEEE18__get_long_pointerB8ue170006Ev, symObjAddr: 0x29D0, symBinAddr: 0x1000051B8, symSize: 0x28 }
  - { offsetInCU: 0x1724B, offset: 0x1724B, size: 0x8, addend: 0x0, symName: __ZNSt3__112basic_stringIcNS_11char_traitsIcEENS_9allocatorIcEEE19__get_short_pointerB8ue170006Ev, symObjAddr: 0x29F8, symBinAddr: 0x1000051E0, symSize: 0x28 }
  - { offsetInCU: 0x17271, offset: 0x17271, size: 0x8, addend: 0x0, symName: __ZNKSt3__117__compressed_pairINS_12basic_stringIcNS_11char_traitsIcEENS_9allocatorIcEEE5__repES5_E5firstB8ue170006Ev, symObjAddr: 0x2A20, symBinAddr: 0x100005208, symSize: 0x24 }
  - { offsetInCU: 0x17297, offset: 0x17297, size: 0x8, addend: 0x0, symName: __ZNKSt3__122__compressed_pair_elemINS_12basic_stringIcNS_11char_traitsIcEENS_9allocatorIcEEE5__repELi0ELb0EE5__getB8ue170006Ev, symObjAddr: 0x2A44, symBinAddr: 0x10000522C, symSize: 0x14 }
  - { offsetInCU: 0x172BD, offset: 0x172BD, size: 0x8, addend: 0x0, symName: __ZNSt3__117__compressed_pairINS_12basic_stringIcNS_11char_traitsIcEENS_9allocatorIcEEE5__repES5_E5firstB8ue170006Ev, symObjAddr: 0x2A58, symBinAddr: 0x100005240, symSize: 0x24 }
  - { offsetInCU: 0x172E3, offset: 0x172E3, size: 0x8, addend: 0x0, symName: __ZNSt3__122__compressed_pair_elemINS_12basic_stringIcNS_11char_traitsIcEENS_9allocatorIcEEE5__repELi0ELb0EE5__getB8ue170006Ev, symObjAddr: 0x2A7C, symBinAddr: 0x100005264, symSize: 0x14 }
  - { offsetInCU: 0x17309, offset: 0x17309, size: 0x8, addend: 0x0, symName: __ZNSt3__114pointer_traitsIPcE10pointer_toB8ue170006ERc, symObjAddr: 0x2A90, symBinAddr: 0x100005278, symSize: 0x14 }
  - { offsetInCU: 0x1732C, offset: 0x1732C, size: 0x8, addend: 0x0, symName: __ZNSt3__119ostreambuf_iteratorIcNS_11char_traitsIcEEEC2B8ue170006ERNS_13basic_ostreamIcS2_EE, symObjAddr: 0x2AA4, symBinAddr: 0x10000528C, symSize: 0x54 }
  - { offsetInCU: 0x17364, offset: 0x17364, size: 0x8, addend: 0x0, symName: __ZNKSt3__19basic_iosIcNS_11char_traitsIcEEE5rdbufB8ue170006Ev, symObjAddr: 0x2AF8, symBinAddr: 0x1000052E0, symSize: 0x24 }
  - { offsetInCU: 0x1738C, offset: 0x1738C, size: 0x8, addend: 0x0, symName: __ZNKSt3__18ios_base5rdbufB8ue170006Ev, symObjAddr: 0x2B1C, symBinAddr: 0x100005304, symSize: 0x18 }
  - { offsetInCU: 0x173B2, offset: 0x173B2, size: 0x8, addend: 0x0, symName: __ZNSt3__111char_traitsIcE11eq_int_typeB8ue170006Eii, symObjAddr: 0x2B34, symBinAddr: 0x10000531C, symSize: 0x28 }
  - { offsetInCU: 0x173E5, offset: 0x173E5, size: 0x8, addend: 0x0, symName: __ZNSt3__111char_traitsIcE3eofB8ue170006Ev, symObjAddr: 0x2B5C, symBinAddr: 0x100005344, symSize: 0x8 }
  - { offsetInCU: 0x173F9, offset: 0x173F9, size: 0x8, addend: 0x0, symName: __ZNKSt3__19basic_iosIcNS_11char_traitsIcEEE5widenB8ue170006Ec, symObjAddr: 0x2B64, symBinAddr: 0x10000534C, symSize: 0x84 }
  - { offsetInCU: 0x17462, offset: 0x17462, size: 0x8, addend: 0x0, symName: __ZNKSt3__15ctypeIcE5widenB8ue170006Ec, symObjAddr: 0x2C14, symBinAddr: 0x1000053FC, symSize: 0x38 }
  - { offsetInCU: 0x17497, offset: 0x17497, size: 0x8, addend: 0x0, symName: __ZNSt3__18ios_base8setstateB8ue170006Ej, symObjAddr: 0x2C4C, symBinAddr: 0x100005434, symSize: 0x34 }
  - { offsetInCU: 0x174CE, offset: 0x174CE, size: 0x8, addend: 0x0, symName: __ZN16BinarySearchTreeIiNSt3__14lessIiEEEC2Ev, symObjAddr: 0x2CA4, symBinAddr: 0x10000548C, symSize: 0x18 }
  - { offsetInCU: 0x174F8, offset: 0x174F8, size: 0x8, addend: 0x0, symName: __ZN16BinarySearchTreeIiNSt3__14lessIiEEED2Ev, symObjAddr: 0x2CBC, symBinAddr: 0x1000054A4, symSize: 0x38 }
  - { offsetInCU: 0x17522, offset: 0x17522, size: 0x8, addend: 0x0, symName: __ZN16BinarySearchTreeIiNSt3__14lessIiEEE18destroy_nodes_implEPNS3_4NodeE, symObjAddr: 0x2CF4, symBinAddr: 0x1000054DC, symSize: 0x70 }
  - { offsetInCU: 0x17546, offset: 0x17546, size: 0x8, addend: 0x0, symName: __ZN16BinarySearchTreeI4Duck14DuckWealthLessEC2Ev, symObjAddr: 0x2D64, symBinAddr: 0x10000554C, symSize: 0x18 }
  - { offsetInCU: 0x17570, offset: 0x17570, size: 0x8, addend: 0x0, symName: __ZN16BinarySearchTreeI4Duck14DuckWealthLessED2Ev, symObjAddr: 0x2D7C, symBinAddr: 0x100005564, symSize: 0x38 }
  - { offsetInCU: 0x1759A, offset: 0x1759A, size: 0x8, addend: 0x0, symName: __ZN16BinarySearchTreeI4Duck14DuckWealthLessE18destroy_nodes_implEPNS2_4NodeE, symObjAddr: 0x2DB4, symBinAddr: 0x10000559C, symSize: 0x70 }
  - { offsetInCU: 0x175BE, offset: 0x175BE, size: 0x8, addend: 0x0, symName: __ZN16BinarySearchTreeIiNSt3__14lessIiEEE11insert_implEPNS3_4NodeERKiS2_, symObjAddr: 0x2E24, symBinAddr: 0x10000560C, symSize: 0x13C }
  - { offsetInCU: 0x17615, offset: 0x17615, size: 0x8, addend: 0x0, symName: __ZN16BinarySearchTreeIiNSt3__14lessIiEEE4NodeC1Ev, symObjAddr: 0x2F60, symBinAddr: 0x100005748, symSize: 0x2C }
  - { offsetInCU: 0x1763F, offset: 0x1763F, size: 0x8, addend: 0x0, symName: __ZNKSt3__14lessIiEclB8ue170006ERKiS3_, symObjAddr: 0x2F8C, symBinAddr: 0x100005774, symSize: 0x34 }
  - { offsetInCU: 0x17683, offset: 0x17683, size: 0x8, addend: 0x0, symName: __ZN16BinarySearchTreeIiNSt3__14lessIiEEE4NodeC2Ev, symObjAddr: 0x2FC0, symBinAddr: 0x1000057A8, symSize: 0x14 }
  - { offsetInCU: 0x176AD, offset: 0x176AD, size: 0x8, addend: 0x0, symName: __ZN16BinarySearchTreeI4Duck14DuckWealthLessE11insert_implEPNS2_4NodeERKS0_S1_, symObjAddr: 0x2FD4, symBinAddr: 0x1000057BC, symSize: 0x13C }
  - { offsetInCU: 0x17704, offset: 0x17704, size: 0x8, addend: 0x0, symName: __ZN16BinarySearchTreeI4Duck14DuckWealthLessE4NodeC1Ev, symObjAddr: 0x3110, symBinAddr: 0x1000058F8, symSize: 0x2C }
  - { offsetInCU: 0x1772E, offset: 0x1772E, size: 0x8, addend: 0x0, symName: __ZNK14DuckWealthLessclERK4DuckS2_, symObjAddr: 0x313C, symBinAddr: 0x100005924, symSize: 0x4C }
  - { offsetInCU: 0x17770, offset: 0x17770, size: 0x8, addend: 0x0, symName: __ZN16BinarySearchTreeI4Duck14DuckWealthLessE4NodeC2Ev, symObjAddr: 0x3188, symBinAddr: 0x100005970, symSize: 0x2C }
  - { offsetInCU: 0x1779A, offset: 0x1779A, size: 0x8, addend: 0x0, symName: __ZNSt3__112basic_stringIcNS_11char_traitsIcEENS_9allocatorIcEEEC2B8ue170006Ev, symObjAddr: 0x31B4, symBinAddr: 0x10000599C, symSize: 0x48 }
  - { offsetInCU: 0x177C4, offset: 0x177C4, size: 0x8, addend: 0x0, symName: __ZNSt3__112basic_stringIcNS_11char_traitsIcEENS_9allocatorIcEEE14__default_initB8ue170006Ev, symObjAddr: 0x31FC, symBinAddr: 0x1000059E4, symSize: 0x40 }
  - { offsetInCU: 0x177EA, offset: 0x177EA, size: 0x8, addend: 0x0, symName: __ZN16BinarySearchTreeIiNSt3__14lessIiEEE8IteratorC2Ev, symObjAddr: 0x323C, symBinAddr: 0x100005A24, symSize: 0x1C }
  - { offsetInCU: 0x17814, offset: 0x17814, size: 0x8, addend: 0x0, symName: __ZN16BinarySearchTreeI4Duck14DuckWealthLessE8IteratorC2Ev, symObjAddr: 0x3258, symBinAddr: 0x100005A40, symSize: 0x1C }
  - { offsetInCU: 0x1783E, offset: 0x1783E, size: 0x8, addend: 0x0, symName: __ZN16BinarySearchTreeIiNSt3__14lessIiEEEC2ERKS3_, symObjAddr: 0x3274, symBinAddr: 0x100005A5C, symSize: 0x40 }
  - { offsetInCU: 0x17876, offset: 0x17876, size: 0x8, addend: 0x0, symName: __ZN16BinarySearchTreeIiNSt3__14lessIiEEE15copy_nodes_implEPNS3_4NodeE, symObjAddr: 0x32B4, symBinAddr: 0x100005A9C, symSize: 0xC0 }
  - { offsetInCU: 0x178A9, offset: 0x178A9, size: 0x8, addend: 0x0, symName: __ZN16BinarySearchTreeI4Duck14DuckWealthLessEC2ERKS2_, symObjAddr: 0x3374, symBinAddr: 0x100005B5C, symSize: 0x40 }
  - { offsetInCU: 0x178E1, offset: 0x178E1, size: 0x8, addend: 0x0, symName: __ZN16BinarySearchTreeI4Duck14DuckWealthLessE15copy_nodes_implEPNS2_4NodeE, symObjAddr: 0x33B4, symBinAddr: 0x100005B9C, symSize: 0xC0 }
  - { offsetInCU: 0x17914, offset: 0x17914, size: 0x8, addend: 0x0, symName: __ZN16BinarySearchTreeIiNSt3__14lessIiEEE10empty_implEPKNS3_4NodeE, symObjAddr: 0x3474, symBinAddr: 0x100005C5C, symSize: 0x54 }
  - { offsetInCU: 0x17938, offset: 0x17938, size: 0x8, addend: 0x0, symName: __ZN16BinarySearchTreeI4Duck14DuckWealthLessE10empty_implEPKNS2_4NodeE, symObjAddr: 0x34C8, symBinAddr: 0x100005CB0, symSize: 0x54 }
  - { offsetInCU: 0x1795C, offset: 0x1795C, size: 0x8, addend: 0x0, symName: __ZN16BinarySearchTreeIiNSt3__14lessIiEEE11height_implEPKNS3_4NodeE, symObjAddr: 0x351C, symBinAddr: 0x100005D04, symSize: 0x84 }
  - { offsetInCU: 0x1798A, offset: 0x1798A, size: 0x8, addend: 0x0, symName: __ZNKSt3__16__lessIvvEclB8ue170006IiiEEbRKT_RKT0_, symObjAddr: 0x3620, symBinAddr: 0x100005E08, symSize: 0x34 }
  - { offsetInCU: 0x179DE, offset: 0x179DE, size: 0x8, addend: 0x0, symName: __ZN16BinarySearchTreeI4Duck14DuckWealthLessE11height_implEPKNS2_4NodeE, symObjAddr: 0x3654, symBinAddr: 0x100005E3C, symSize: 0x84 }
  - { offsetInCU: 0x17A02, offset: 0x17A02, size: 0x8, addend: 0x0, symName: __ZN16BinarySearchTreeIiNSt3__14lessIiEEE9size_implEPKNS3_4NodeE, symObjAddr: 0x36D8, symBinAddr: 0x100005EC0, symSize: 0x6C }
  - { offsetInCU: 0x17A26, offset: 0x17A26, size: 0x8, addend: 0x0, symName: __ZN16BinarySearchTreeI4Duck14DuckWealthLessE9size_implEPKNS2_4NodeE, symObjAddr: 0x3744, symBinAddr: 0x100005F2C, symSize: 0x6C }
  - { offsetInCU: 0x17A4A, offset: 0x17A4A, size: 0x8, addend: 0x0, symName: __ZN16BinarySearchTreeIiNSt3__14lessIiEEE21traverse_inorder_implEPKNS3_4NodeERNS0_13basic_ostreamIcNS0_11char_traitsIcEEEE, symObjAddr: 0x37B0, symBinAddr: 0x100005F98, symSize: 0x78 }
  - { offsetInCU: 0x17A7D, offset: 0x17A7D, size: 0x8, addend: 0x0, symName: __ZN16BinarySearchTreeI4Duck14DuckWealthLessE21traverse_inorder_implEPKNS2_4NodeERNSt3__113basic_ostreamIcNS6_11char_traitsIcEEEE, symObjAddr: 0x3828, symBinAddr: 0x100006010, symSize: 0x74 }
  - { offsetInCU: 0x17AB0, offset: 0x17AB0, size: 0x8, addend: 0x0, symName: __ZN16BinarySearchTreeIiNSt3__14lessIiEEE22traverse_preorder_implEPKNS3_4NodeERNS0_13basic_ostreamIcNS0_11char_traitsIcEEEE, symObjAddr: 0x389C, symBinAddr: 0x100006084, symSize: 0x78 }
  - { offsetInCU: 0x17AE3, offset: 0x17AE3, size: 0x8, addend: 0x0, symName: __ZN16BinarySearchTreeI4Duck14DuckWealthLessE22traverse_preorder_implEPKNS2_4NodeERNSt3__113basic_ostreamIcNS6_11char_traitsIcEEEE, symObjAddr: 0x3914, symBinAddr: 0x1000060FC, symSize: 0x74 }
  - { offsetInCU: 0x17B16, offset: 0x17B16, size: 0x8, addend: 0x0, symName: __ZN16BinarySearchTreeIiNSt3__14lessIiEEE28check_sorting_invariant_implEPKNS3_4NodeES2_, symObjAddr: 0x3988, symBinAddr: 0x100006170, symSize: 0x128 }
  - { offsetInCU: 0x17B49, offset: 0x17B49, size: 0x8, addend: 0x0, symName: __ZN16BinarySearchTreeI4Duck14DuckWealthLessE28check_sorting_invariant_implEPKNS2_4NodeES1_, symObjAddr: 0x3AB0, symBinAddr: 0x100006298, symSize: 0x128 }
  - { offsetInCU: 0x17B7C, offset: 0x17B7C, size: 0x8, addend: 0x0, symName: __ZN16BinarySearchTreeIiNSt3__14lessIiEEE16min_element_implEPNS3_4NodeE, symObjAddr: 0x3BD8, symBinAddr: 0x1000063C0, symSize: 0x74 }
  - { offsetInCU: 0x17BA0, offset: 0x17BA0, size: 0x8, addend: 0x0, symName: __ZN16BinarySearchTreeIiNSt3__14lessIiEEE8IteratorC1EPNS3_4NodeES6_S2_, symObjAddr: 0x3C4C, symBinAddr: 0x100006434, symSize: 0x3C }
  - { offsetInCU: 0x17BF4, offset: 0x17BF4, size: 0x8, addend: 0x0, symName: __ZN16BinarySearchTreeIiNSt3__14lessIiEEE8IteratorC2EPNS3_4NodeES6_S2_, symObjAddr: 0x3C88, symBinAddr: 0x100006470, symSize: 0x2C }
  - { offsetInCU: 0x17C48, offset: 0x17C48, size: 0x8, addend: 0x0, symName: __ZN16BinarySearchTreeI4Duck14DuckWealthLessE16min_element_implEPNS2_4NodeE, symObjAddr: 0x3CB4, symBinAddr: 0x10000649C, symSize: 0x74 }
  - { offsetInCU: 0x17C6C, offset: 0x17C6C, size: 0x8, addend: 0x0, symName: __ZN16BinarySearchTreeI4Duck14DuckWealthLessE8IteratorC1EPNS2_4NodeES5_S1_, symObjAddr: 0x3D28, symBinAddr: 0x100006510, symSize: 0x3C }
  - { offsetInCU: 0x17CC0, offset: 0x17CC0, size: 0x8, addend: 0x0, symName: __ZN16BinarySearchTreeI4Duck14DuckWealthLessE8IteratorC2EPNS2_4NodeES5_S1_, symObjAddr: 0x3D64, symBinAddr: 0x10000654C, symSize: 0x2C }
  - { offsetInCU: 0x17D14, offset: 0x17D14, size: 0x8, addend: 0x0, symName: __ZN16BinarySearchTreeIiNSt3__14lessIiEEE16max_element_implEPNS3_4NodeE, symObjAddr: 0x3D90, symBinAddr: 0x100006578, symSize: 0x74 }
  - { offsetInCU: 0x17D38, offset: 0x17D38, size: 0x8, addend: 0x0, symName: __ZN16BinarySearchTreeI4Duck14DuckWealthLessE16max_element_implEPNS2_4NodeE, symObjAddr: 0x3E04, symBinAddr: 0x1000065EC, symSize: 0x74 }
  - { offsetInCU: 0x17D5C, offset: 0x17D5C, size: 0x8, addend: 0x0, symName: __ZN16BinarySearchTreeIiNSt3__14lessIiEEE9find_implEPNS3_4NodeERKiS2_, symObjAddr: 0x3E78, symBinAddr: 0x100006660, symSize: 0xC4 }
  - { offsetInCU: 0x17D9E, offset: 0x17D9E, size: 0x8, addend: 0x0, symName: __ZN16BinarySearchTreeI4Duck14DuckWealthLessE9find_implEPNS2_4NodeERKS0_S1_, symObjAddr: 0x3F3C, symBinAddr: 0x100006724, symSize: 0xC4 }
  - { offsetInCU: 0x17DE5, offset: 0x17DE5, size: 0x8, addend: 0x0, symName: __ZNSt3__112basic_stringIcNS_11char_traitsIcEENS_9allocatorIcEEEC1B8ue170006ILi0EEEPKc, symObjAddr: 0x4000, symBinAddr: 0x1000067E8, symSize: 0x34 }
  - { offsetInCU: 0x17E24, offset: 0x17E24, size: 0x8, addend: 0x0, symName: __ZNK16BinarySearchTreeIiNSt3__14lessIiEEE17get_max_elt_widthEv, symObjAddr: 0x4034, symBinAddr: 0x10000681C, symSize: 0x1B0 }
  - { offsetInCU: 0x17FD8, offset: 0x17FD8, size: 0x8, addend: 0x0, symName: __ZN16BinarySearchTreeIiNSt3__14lessIiEEE9Tree_gridC1ERKS3_, symObjAddr: 0x41E4, symBinAddr: 0x1000069CC, symSize: 0x34 }
  - { offsetInCU: 0x18062, offset: 0x18062, size: 0x8, addend: 0x0, symName: __ZNSt3__119basic_ostringstreamIcNS_11char_traitsIcEENS_9allocatorIcEEEC1B8ue170006Ev, symObjAddr: 0x4218, symBinAddr: 0x100006A00, symSize: 0xEC }
  - { offsetInCU: 0x1808C, offset: 0x1808C, size: 0x8, addend: 0x0, symName: __ZNK16BinarySearchTreeIiNSt3__14lessIiEEE9Tree_grid14get_leftmost_xEv, symObjAddr: 0x4304, symBinAddr: 0x100006AEC, symSize: 0x18 }
  - { offsetInCU: 0x180B2, offset: 0x180B2, size: 0x8, addend: 0x0, symName: __ZNK16BinarySearchTreeIiNSt3__14lessIiEEE9Tree_grid15get_rightmost_xEv, symObjAddr: 0x431C, symBinAddr: 0x100006B04, symSize: 0x18 }
  - { offsetInCU: 0x180D8, offset: 0x180D8, size: 0x8, addend: 0x0, symName: __ZNK16BinarySearchTreeIiNSt3__14lessIiEEE9Tree_grid14get_num_levelsEv, symObjAddr: 0x4334, symBinAddr: 0x100006B1C, symSize: 0x18 }
  - { offsetInCU: 0x180FE, offset: 0x180FE, size: 0x8, addend: 0x0, symName: __ZNK16BinarySearchTreeIiNSt3__14lessIiEEE9Tree_grid4findERKNS3_16Tree_grid_squareE, symObjAddr: 0x434C, symBinAddr: 0x100006B34, symSize: 0x80 }
  - { offsetInCU: 0x18140, offset: 0x18140, size: 0x8, addend: 0x0, symName: __ZN16BinarySearchTreeIiNSt3__14lessIiEEE16Tree_grid_squareC1Eii, symObjAddr: 0x43CC, symBinAddr: 0x100006BB4, symSize: 0x3C }
  - { offsetInCU: 0x18186, offset: 0x18186, size: 0x8, addend: 0x0, symName: __ZN16BinarySearchTreeIiNSt3__14lessIiEEE16Tree_grid_squareD1Ev, symObjAddr: 0x4408, symBinAddr: 0x100006BF0, symSize: 0x2C }
  - { offsetInCU: 0x181B3, offset: 0x181B3, size: 0x8, addend: 0x0, symName: __ZNK16BinarySearchTreeIiNSt3__14lessIiEEE16Tree_grid_square9get_valueEv, symObjAddr: 0x44E0, symBinAddr: 0x100006CC8, symSize: 0x3C }
  - { offsetInCU: 0x181D9, offset: 0x181D9, size: 0x8, addend: 0x0, symName: __ZNSt3__113basic_ostreamIcNS_11char_traitsIcEEElsB8ue170006EPFRNS_8ios_baseES5_E, symObjAddr: 0x451C, symBinAddr: 0x100006D04, symSize: 0x40 }
  - { offsetInCU: 0x1820D, offset: 0x1820D, size: 0x8, addend: 0x0, symName: __ZNKSt3__119basic_ostringstreamIcNS_11char_traitsIcEENS_9allocatorIcEEE3strB8ue170006Ev, symObjAddr: 0x465C, symBinAddr: 0x100006E44, symSize: 0x30 }
  - { offsetInCU: 0x18238, offset: 0x18238, size: 0x8, addend: 0x0, symName: __ZNSt3__119basic_ostringstreamIcNS_11char_traitsIcEENS_9allocatorIcEEED1Ev, symObjAddr: 0x468C, symBinAddr: 0x100006E74, symSize: 0x40 }
  - { offsetInCU: 0x18265, offset: 0x18265, size: 0x8, addend: 0x0, symName: __ZN16BinarySearchTreeIiNSt3__14lessIiEEE9Tree_gridD1Ev, symObjAddr: 0x46CC, symBinAddr: 0x100006EB4, symSize: 0x2C }
  - { offsetInCU: 0x18292, offset: 0x18292, size: 0x8, addend: 0x0, symName: __ZNSt3__112basic_stringIcNS_11char_traitsIcEENS_9allocatorIcEEEC2B8ue170006ILi0EEEPKc, symObjAddr: 0x46F8, symBinAddr: 0x100006EE0, symSize: 0x58 }
  - { offsetInCU: 0x18310, offset: 0x18310, size: 0x8, addend: 0x0, symName: __ZNSt3__15stackIPN16BinarySearchTreeIiNS_4lessIiEEE4NodeENS_5dequeIS6_NS_9allocatorIS6_EEEEEC1B8ue170006Ev, symObjAddr: 0x4750, symBinAddr: 0x100006F38, symSize: 0x2C }
  - { offsetInCU: 0x1833A, offset: 0x1833A, size: 0x8, addend: 0x0, symName: __ZNSt3__15stackIPN16BinarySearchTreeIiNS_4lessIiEEE4NodeENS_5dequeIS6_NS_9allocatorIS6_EEEEE4pushB8ue170006ERKS6_, symObjAddr: 0x477C, symBinAddr: 0x100006F64, symSize: 0x2C }
  - { offsetInCU: 0x1836F, offset: 0x1836F, size: 0x8, addend: 0x0, symName: __ZNKSt3__15stackIPN16BinarySearchTreeIiNS_4lessIiEEE4NodeENS_5dequeIS6_NS_9allocatorIS6_EEEEE5emptyB8ue170006Ev, symObjAddr: 0x47A8, symBinAddr: 0x100006F90, symSize: 0x28 }
  - { offsetInCU: 0x18395, offset: 0x18395, size: 0x8, addend: 0x0, symName: __ZNSt3__15stackIPN16BinarySearchTreeIiNS_4lessIiEEE4NodeENS_5dequeIS6_NS_9allocatorIS6_EEEEE3topB8ue170006Ev, symObjAddr: 0x47D0, symBinAddr: 0x100006FB8, symSize: 0x24 }
  - { offsetInCU: 0x183BB, offset: 0x183BB, size: 0x8, addend: 0x0, symName: __ZNSt3__15stackIPN16BinarySearchTreeIiNS_4lessIiEEE4NodeENS_5dequeIS6_NS_9allocatorIS6_EEEEE3popB8ue170006Ev, symObjAddr: 0x47F4, symBinAddr: 0x100006FDC, symSize: 0x24 }
  - { offsetInCU: 0x183E1, offset: 0x183E1, size: 0x8, addend: 0x0, symName: __ZNKSt3__112basic_stringIcNS_11char_traitsIcEENS_9allocatorIcEEE6lengthB8ue170006Ev, symObjAddr: 0x4818, symBinAddr: 0x100007000, symSize: 0x24 }
  - { offsetInCU: 0x18407, offset: 0x18407, size: 0x8, addend: 0x0, symName: __ZNSt3__15stackIPN16BinarySearchTreeIiNS_4lessIiEEE4NodeENS_5dequeIS6_NS_9allocatorIS6_EEEEED1Ev, symObjAddr: 0x483C, symBinAddr: 0x100007024, symSize: 0x2C }
  - { offsetInCU: 0x18433, offset: 0x18433, size: 0x8, addend: 0x0, symName: __ZNSt3__15stackIPN16BinarySearchTreeIiNS_4lessIiEEE4NodeENS_5dequeIS6_NS_9allocatorIS6_EEEEEC2B8ue170006Ev, symObjAddr: 0x4868, symBinAddr: 0x100007050, symSize: 0x2C }
  - { offsetInCU: 0x1845D, offset: 0x1845D, size: 0x8, addend: 0x0, symName: __ZNSt3__15dequeIPN16BinarySearchTreeIiNS_4lessIiEEE4NodeENS_9allocatorIS6_EEEC1B8ue170006Ev, symObjAddr: 0x4894, symBinAddr: 0x10000707C, symSize: 0x2C }
  - { offsetInCU: 0x18487, offset: 0x18487, size: 0x8, addend: 0x0, symName: __ZNSt3__15dequeIPN16BinarySearchTreeIiNS_4lessIiEEE4NodeENS_9allocatorIS6_EEEC2B8ue170006Ev, symObjAddr: 0x48C0, symBinAddr: 0x1000070A8, symSize: 0x5C }
  - { offsetInCU: 0x184B1, offset: 0x184B1, size: 0x8, addend: 0x0, symName: __ZNSt3__114__split_bufferIPPN16BinarySearchTreeIiNS_4lessIiEEE4NodeENS_9allocatorIS7_EEEC1B8ue170006Ev, symObjAddr: 0x491C, symBinAddr: 0x100007104, symSize: 0x2C }
  - { offsetInCU: 0x184E1, offset: 0x184E1, size: 0x8, addend: 0x0, symName: __ZNSt3__117__compressed_pairImNS_9allocatorIPN16BinarySearchTreeIiNS_4lessIiEEE4NodeEEEEC1B8ue170006IiNS_18__default_init_tagEEEOT_OT0_, symObjAddr: 0x4948, symBinAddr: 0x100007130, symSize: 0x3C }
  - { offsetInCU: 0x18539, offset: 0x18539, size: 0x8, addend: 0x0, symName: __ZNKSt3__15dequeIPN16BinarySearchTreeIiNS_4lessIiEEE4NodeENS_9allocatorIS6_EEE14__annotate_newB8ue170006Em, symObjAddr: 0x4984, symBinAddr: 0x10000716C, symSize: 0xC8 }
  - { offsetInCU: 0x1856E, offset: 0x1856E, size: 0x8, addend: 0x0, symName: __ZNSt3__114__split_bufferIPPN16BinarySearchTreeIiNS_4lessIiEEE4NodeENS_9allocatorIS7_EEEC2B8ue170006Ev, symObjAddr: 0x4A4C, symBinAddr: 0x100007234, symSize: 0x50 }
  - { offsetInCU: 0x1859E, offset: 0x1859E, size: 0x8, addend: 0x0, symName: __ZNSt3__117__compressed_pairIPPPN16BinarySearchTreeIiNS_4lessIiEEE4NodeENS_9allocatorIS7_EEEC1B8ue170006IDnNS_18__default_init_tagEEEOT_OT0_, symObjAddr: 0x4A9C, symBinAddr: 0x100007284, symSize: 0x3C }
  - { offsetInCU: 0x185F6, offset: 0x185F6, size: 0x8, addend: 0x0, symName: __ZNSt3__117__compressed_pairIPPPN16BinarySearchTreeIiNS_4lessIiEEE4NodeENS_9allocatorIS7_EEEC2B8ue170006IDnNS_18__default_init_tagEEEOT_OT0_, symObjAddr: 0x4AD8, symBinAddr: 0x1000072C0, symSize: 0x40 }
  - { offsetInCU: 0x1864E, offset: 0x1864E, size: 0x8, addend: 0x0, symName: __ZNSt3__122__compressed_pair_elemIPPPN16BinarySearchTreeIiNS_4lessIiEEE4NodeELi0ELb0EEC2B8ue170006IDnvEEOT_, symObjAddr: 0x4B18, symBinAddr: 0x100007300, symSize: 0x1C }
  - { offsetInCU: 0x18690, offset: 0x18690, size: 0x8, addend: 0x0, symName: __ZNSt3__122__compressed_pair_elemINS_9allocatorIPPN16BinarySearchTreeIiNS_4lessIiEEE4NodeEEELi1ELb1EEC2B8ue170006ENS_18__default_init_tagE, symObjAddr: 0x4B34, symBinAddr: 0x10000731C, symSize: 0x2C }
  - { offsetInCU: 0x186C4, offset: 0x186C4, size: 0x8, addend: 0x0, symName: __ZNSt3__19allocatorIPPN16BinarySearchTreeIiNS_4lessIiEEE4NodeEEC2B8ue170006Ev, symObjAddr: 0x4B60, symBinAddr: 0x100007348, symSize: 0x2C }
  - { offsetInCU: 0x186EE, offset: 0x186EE, size: 0x8, addend: 0x0, symName: __ZNSt3__116__non_trivial_ifILb1ENS_9allocatorIPPN16BinarySearchTreeIiNS_4lessIiEEE4NodeEEEEC2B8ue170006Ev, symObjAddr: 0x4B8C, symBinAddr: 0x100007374, symSize: 0x14 }
  - { offsetInCU: 0x18718, offset: 0x18718, size: 0x8, addend: 0x0, symName: __ZNSt3__117__compressed_pairImNS_9allocatorIPN16BinarySearchTreeIiNS_4lessIiEEE4NodeEEEEC2B8ue170006IiNS_18__default_init_tagEEEOT_OT0_, symObjAddr: 0x4BA0, symBinAddr: 0x100007388, symSize: 0x40 }
  - { offsetInCU: 0x18770, offset: 0x18770, size: 0x8, addend: 0x0, symName: __ZNSt3__122__compressed_pair_elemImLi0ELb0EEC2B8ue170006IivEEOT_, symObjAddr: 0x4BE0, symBinAddr: 0x1000073C8, symSize: 0x24 }
  - { offsetInCU: 0x187B2, offset: 0x187B2, size: 0x8, addend: 0x0, symName: __ZNSt3__122__compressed_pair_elemINS_9allocatorIPN16BinarySearchTreeIiNS_4lessIiEEE4NodeEEELi1ELb1EEC2B8ue170006ENS_18__default_init_tagE, symObjAddr: 0x4C04, symBinAddr: 0x1000073EC, symSize: 0x2C }
  - { offsetInCU: 0x187E6, offset: 0x187E6, size: 0x8, addend: 0x0, symName: __ZNSt3__19allocatorIPN16BinarySearchTreeIiNS_4lessIiEEE4NodeEEC2B8ue170006Ev, symObjAddr: 0x4C30, symBinAddr: 0x100007418, symSize: 0x2C }
  - { offsetInCU: 0x18810, offset: 0x18810, size: 0x8, addend: 0x0, symName: __ZNSt3__116__non_trivial_ifILb1ENS_9allocatorIPN16BinarySearchTreeIiNS_4lessIiEEE4NodeEEEEC2B8ue170006Ev, symObjAddr: 0x4C5C, symBinAddr: 0x100007444, symSize: 0x14 }
  - { offsetInCU: 0x1883A, offset: 0x1883A, size: 0x8, addend: 0x0, symName: __ZNKSt3__15dequeIPN16BinarySearchTreeIiNS_4lessIiEEE4NodeENS_9allocatorIS6_EEE18__annotate_from_toB8ue170006EmmNS9_22__asan_annotation_typeENS9_23__asan_annotation_placeE, symObjAddr: 0x4C70, symBinAddr: 0x100007458, symSize: 0x580 }
  - { offsetInCU: 0x189F6, offset: 0x189F6, size: 0x8, addend: 0x0, symName: __ZNKSt3__114__split_bufferIPPN16BinarySearchTreeIiNS_4lessIiEEE4NodeENS_9allocatorIS7_EEE4sizeB8ue170006Ev, symObjAddr: 0x51F0, symBinAddr: 0x1000079D8, symSize: 0x28 }
  - { offsetInCU: 0x18A1C, offset: 0x18A1C, size: 0x8, addend: 0x0, symName: __ZNKSt3__114__split_bufferIPPN16BinarySearchTreeIiNS_4lessIiEEE4NodeENS_9allocatorIS7_EEE5beginB8ue170006Ev, symObjAddr: 0x5218, symBinAddr: 0x100007A00, symSize: 0x18 }
  - { offsetInCU: 0x18A42, offset: 0x18A42, size: 0x8, addend: 0x0, symName: __ZNKSt3__15dequeIPN16BinarySearchTreeIiNS_4lessIiEEE4NodeENS_9allocatorIS6_EEE4sizeB8ue170006Ev, symObjAddr: 0x5230, symBinAddr: 0x100007A18, symSize: 0x28 }
  - { offsetInCU: 0x18A68, offset: 0x18A68, size: 0x8, addend: 0x0, symName: __ZNKSt3__15dequeIPN16BinarySearchTreeIiNS_4lessIiEEE4NodeENS_9allocatorIS6_EEE5emptyB8ue170006Ev, symObjAddr: 0x5258, symBinAddr: 0x100007A40, symSize: 0x30 }
  - { offsetInCU: 0x18A8E, offset: 0x18A8E, size: 0x8, addend: 0x0, symName: __ZNKSt3__15dequeIPN16BinarySearchTreeIiNS_4lessIiEEE4NodeENS_9allocatorIS6_EEE44__annotate_double_ended_contiguous_containerB8ue170006EPKvSB_SB_SB_SB_SB_, symObjAddr: 0x529C, symBinAddr: 0x100007A84, symSize: 0x28 }
  - { offsetInCU: 0x18AFC, offset: 0x18AFC, size: 0x8, addend: 0x0, symName: __ZNKSt3__15dequeIPN16BinarySearchTreeIiNS_4lessIiEEE4NodeENS_9allocatorIS6_EEE6__sizeB8ue170006Ev, symObjAddr: 0x52C4, symBinAddr: 0x100007AAC, symSize: 0x28 }
  - { offsetInCU: 0x18B22, offset: 0x18B22, size: 0x8, addend: 0x0, symName: __ZNKSt3__117__compressed_pairImNS_9allocatorIPN16BinarySearchTreeIiNS_4lessIiEEE4NodeEEEE5firstB8ue170006Ev, symObjAddr: 0x52EC, symBinAddr: 0x100007AD4, symSize: 0x24 }
  - { offsetInCU: 0x18B48, offset: 0x18B48, size: 0x8, addend: 0x0, symName: __ZNKSt3__122__compressed_pair_elemImLi0ELb0EE5__getB8ue170006Ev, symObjAddr: 0x5310, symBinAddr: 0x100007AF8, symSize: 0x14 }
  - { offsetInCU: 0x18B6E, offset: 0x18B6E, size: 0x8, addend: 0x0, symName: __ZNSt3__15dequeIPN16BinarySearchTreeIiNS_4lessIiEEE4NodeENS_9allocatorIS6_EEE9push_backERKS6_, symObjAddr: 0x5324, symBinAddr: 0x100007B0C, symSize: 0xAC }
  - { offsetInCU: 0x18BB4, offset: 0x18BB4, size: 0x8, addend: 0x0, symName: __ZNSt3__15dequeIPN16BinarySearchTreeIiNS_4lessIiEEE4NodeENS_9allocatorIS6_EEE7__allocB8ue170006Ev, symObjAddr: 0x53D0, symBinAddr: 0x100007BB8, symSize: 0x28 }
  - { offsetInCU: 0x18BDA, offset: 0x18BDA, size: 0x8, addend: 0x0, symName: __ZNKSt3__15dequeIPN16BinarySearchTreeIiNS_4lessIiEEE4NodeENS_9allocatorIS6_EEE12__back_spareB8ue170006Ev, symObjAddr: 0x53F8, symBinAddr: 0x100007BE0, symSize: 0x54 }
  - { offsetInCU: 0x18C00, offset: 0x18C00, size: 0x8, addend: 0x0, symName: __ZNSt3__15dequeIPN16BinarySearchTreeIiNS_4lessIiEEE4NodeENS_9allocatorIS6_EEE19__add_back_capacityEv, symObjAddr: 0x544C, symBinAddr: 0x100007C34, symSize: 0x34C }
  - { offsetInCU: 0x18CB5, offset: 0x18CB5, size: 0x8, addend: 0x0, symName: __ZNKSt3__15dequeIPN16BinarySearchTreeIiNS_4lessIiEEE4NodeENS_9allocatorIS6_EEE24__annotate_increase_backB8ue170006Em, symObjAddr: 0x5798, symBinAddr: 0x100007F80, symSize: 0x7C }
  - { offsetInCU: 0x18CEA, offset: 0x18CEA, size: 0x8, addend: 0x0, symName: __ZNSt3__116allocator_traitsINS_9allocatorIPN16BinarySearchTreeIiNS_4lessIiEEE4NodeEEEE9constructB8ue170006IS7_JRKS7_EvEEvRS8_PT_DpOT0_, symObjAddr: 0x5814, symBinAddr: 0x100007FFC, symSize: 0x34 }
  - { offsetInCU: 0x18D41, offset: 0x18D41, size: 0x8, addend: 0x0, symName: __ZNSt3__15dequeIPN16BinarySearchTreeIiNS_4lessIiEEE4NodeENS_9allocatorIS6_EEE3endB8ue170006Ev, symObjAddr: 0x5848, symBinAddr: 0x100008030, symSize: 0xCC }
  - { offsetInCU: 0x18D85, offset: 0x18D85, size: 0x8, addend: 0x0, symName: __ZNKSt3__116__deque_iteratorIPN16BinarySearchTreeIiNS_4lessIiEEE4NodeEPS6_RS6_PS7_lLl512EEdeB8ue170006Ev, symObjAddr: 0x5914, symBinAddr: 0x1000080FC, symSize: 0x18 }
  - { offsetInCU: 0x18DAB, offset: 0x18DAB, size: 0x8, addend: 0x0, symName: __ZNSt3__15dequeIPN16BinarySearchTreeIiNS_4lessIiEEE4NodeENS_9allocatorIS6_EEE6__sizeB8ue170006Ev, symObjAddr: 0x592C, symBinAddr: 0x100008114, symSize: 0x28 }
  - { offsetInCU: 0x18DD1, offset: 0x18DD1, size: 0x8, addend: 0x0, symName: __ZNSt3__117__compressed_pairImNS_9allocatorIPN16BinarySearchTreeIiNS_4lessIiEEE4NodeEEEE6secondB8ue170006Ev, symObjAddr: 0x5954, symBinAddr: 0x10000813C, symSize: 0x24 }
  - { offsetInCU: 0x18DF7, offset: 0x18DF7, size: 0x8, addend: 0x0, symName: __ZNSt3__122__compressed_pair_elemINS_9allocatorIPN16BinarySearchTreeIiNS_4lessIiEEE4NodeEEELi1ELb1EE5__getB8ue170006Ev, symObjAddr: 0x5978, symBinAddr: 0x100008160, symSize: 0x14 }
  - { offsetInCU: 0x18E1D, offset: 0x18E1D, size: 0x8, addend: 0x0, symName: __ZNKSt3__15dequeIPN16BinarySearchTreeIiNS_4lessIiEEE4NodeENS_9allocatorIS6_EEE10__capacityB8ue170006Ev, symObjAddr: 0x598C, symBinAddr: 0x100008174, symSize: 0x60 }
  - { offsetInCU: 0x18E43, offset: 0x18E43, size: 0x8, addend: 0x0, symName: __ZNKSt3__15dequeIPN16BinarySearchTreeIiNS_4lessIiEEE4NodeENS_9allocatorIS6_EEE13__front_spareB8ue170006Ev, symObjAddr: 0x59EC, symBinAddr: 0x1000081D4, symSize: 0x18 }
  - { offsetInCU: 0x18E69, offset: 0x18E69, size: 0x8, addend: 0x0, symName: __ZNSt3__114__split_bufferIPPN16BinarySearchTreeIiNS_4lessIiEEE4NodeENS_9allocatorIS7_EEE5frontB8ue170006Ev, symObjAddr: 0x5A04, symBinAddr: 0x1000081EC, symSize: 0x18 }
  - { offsetInCU: 0x18E8F, offset: 0x18E8F, size: 0x8, addend: 0x0, symName: __ZNSt3__114__split_bufferIPPN16BinarySearchTreeIiNS_4lessIiEEE4NodeENS_9allocatorIS7_EEE9pop_frontB8ue170006Ev, symObjAddr: 0x5A1C, symBinAddr: 0x100008204, symSize: 0x2C }
  - { offsetInCU: 0x18EB5, offset: 0x18EB5, size: 0x8, addend: 0x0, symName: __ZNSt3__114__split_bufferIPPN16BinarySearchTreeIiNS_4lessIiEEE4NodeENS_9allocatorIS7_EEE9push_backB8ue170006ERKS7_, symObjAddr: 0x5A48, symBinAddr: 0x100008230, symSize: 0x260 }
  - { offsetInCU: 0x18F2D, offset: 0x18F2D, size: 0x8, addend: 0x0, symName: __ZNKSt3__114__split_bufferIPPN16BinarySearchTreeIiNS_4lessIiEEE4NodeENS_9allocatorIS7_EEE8capacityB8ue170006Ev, symObjAddr: 0x5CA8, symBinAddr: 0x100008490, symSize: 0x40 }
  - { offsetInCU: 0x18F53, offset: 0x18F53, size: 0x8, addend: 0x0, symName: __ZNKSt3__114__split_bufferIPPN16BinarySearchTreeIiNS_4lessIiEEE4NodeENS_9allocatorIS7_EEE12__back_spareB8ue170006Ev, symObjAddr: 0x5CE8, symBinAddr: 0x1000084D0, symSize: 0x40 }
  - { offsetInCU: 0x18F79, offset: 0x18F79, size: 0x8, addend: 0x0, symName: __ZNSt3__114__split_bufferIPPN16BinarySearchTreeIiNS_4lessIiEEE4NodeENS_9allocatorIS7_EEE9push_backEOS7_, symObjAddr: 0x5D28, symBinAddr: 0x100008510, symSize: 0x260 }
  - { offsetInCU: 0x18FF1, offset: 0x18FF1, size: 0x8, addend: 0x0, symName: __ZNSt3__116allocator_traitsINS_9allocatorIPN16BinarySearchTreeIiNS_4lessIiEEE4NodeEEEE8allocateB8ue170006ERS8_m, symObjAddr: 0x5F88, symBinAddr: 0x100008770, symSize: 0x2C }
  - { offsetInCU: 0x19024, offset: 0x19024, size: 0x8, addend: 0x0, symName: __ZNSt3__114__split_bufferIPPN16BinarySearchTreeIiNS_4lessIiEEE4NodeENS_9allocatorIS7_EEE10push_frontEOS7_, symObjAddr: 0x5FB4, symBinAddr: 0x10000879C, symSize: 0x25C }
  - { offsetInCU: 0x1909C, offset: 0x1909C, size: 0x8, addend: 0x0, symName: __ZNKSt3__15dequeIPN16BinarySearchTreeIiNS_4lessIiEEE4NodeENS_9allocatorIS6_EEE22__annotate_whole_blockB8ue170006EmNS9_22__asan_annotation_typeE, symObjAddr: 0x6210, symBinAddr: 0x1000089F8, symSize: 0xAC }
  - { offsetInCU: 0x1910D, offset: 0x1910D, size: 0x8, addend: 0x0, symName: __ZNSt3__114__split_bufferIPPN16BinarySearchTreeIiNS_4lessIiEEE4NodeENS_9allocatorIS7_EEE7__allocB8ue170006Ev, symObjAddr: 0x62E8, symBinAddr: 0x100008AD0, symSize: 0x28 }
  - { offsetInCU: 0x19133, offset: 0x19133, size: 0x8, addend: 0x0, symName: __ZNSt3__114__split_bufferIPPN16BinarySearchTreeIiNS_4lessIiEEE4NodeERNS_9allocatorIS7_EEEC1EmmSA_, symObjAddr: 0x6310, symBinAddr: 0x100008AF8, symSize: 0x44 }
  - { offsetInCU: 0x1918E, offset: 0x1918E, size: 0x8, addend: 0x0, symName: __ZNSt3__122__allocator_destructorINS_9allocatorIPN16BinarySearchTreeIiNS_4lessIiEEE4NodeEEEEC1B8ue170006ERS8_m, symObjAddr: 0x6354, symBinAddr: 0x100008B3C, symSize: 0x3C }
  - { offsetInCU: 0x19253, offset: 0x19253, size: 0x8, addend: 0x0, symName: __ZNSt3__110unique_ptrIPPN16BinarySearchTreeIiNS_4lessIiEEE4NodeENS_22__allocator_destructorINS_9allocatorIS6_EEEEEC1B8ue170006ILb1EvEES7_NS_16__dependent_typeINS_27__unique_ptr_deleter_sfinaeISB_EEXT_EE20__good_rval_ref_typeE, symObjAddr: 0x6390, symBinAddr: 0x100008B78, symSize: 0x3C }
  - { offsetInCU: 0x192A4, offset: 0x192A4, size: 0x8, addend: 0x0, symName: __ZNSt3__114__split_bufferIPPN16BinarySearchTreeIiNS_4lessIiEEE4NodeERNS_9allocatorIS7_EEE9push_backEOS7_, symObjAddr: 0x63CC, symBinAddr: 0x100008BB4, symSize: 0x260 }
  - { offsetInCU: 0x1931C, offset: 0x1931C, size: 0x8, addend: 0x0, symName: __ZNKSt3__110unique_ptrIPPN16BinarySearchTreeIiNS_4lessIiEEE4NodeENS_22__allocator_destructorINS_9allocatorIS6_EEEEE3getB8ue170006Ev, symObjAddr: 0x662C, symBinAddr: 0x100008E14, symSize: 0x28 }
  - { offsetInCU: 0x19342, offset: 0x19342, size: 0x8, addend: 0x0, symName: __ZNSt3__110unique_ptrIPPN16BinarySearchTreeIiNS_4lessIiEEE4NodeENS_22__allocator_destructorINS_9allocatorIS6_EEEEE7releaseB8ue170006Ev, symObjAddr: 0x6654, symBinAddr: 0x100008E3C, symSize: 0x44 }
  - { offsetInCU: 0x19377, offset: 0x19377, size: 0x8, addend: 0x0, symName: __ZNSt3__114__split_bufferIPPN16BinarySearchTreeIiNS_4lessIiEEE4NodeENS_9allocatorIS7_EEE3endB8ue170006Ev, symObjAddr: 0x6698, symBinAddr: 0x100008E80, symSize: 0x18 }
  - { offsetInCU: 0x1939D, offset: 0x1939D, size: 0x8, addend: 0x0, symName: __ZNSt3__114__split_bufferIPPN16BinarySearchTreeIiNS_4lessIiEEE4NodeENS_9allocatorIS7_EEE5beginB8ue170006Ev, symObjAddr: 0x66B0, symBinAddr: 0x100008E98, symSize: 0x18 }
  - { offsetInCU: 0x193C3, offset: 0x193C3, size: 0x8, addend: 0x0, symName: __ZNSt3__114__split_bufferIPPN16BinarySearchTreeIiNS_4lessIiEEE4NodeERNS_9allocatorIS7_EEE10push_frontERKS7_, symObjAddr: 0x66C8, symBinAddr: 0x100008EB0, symSize: 0x25C }
  - { offsetInCU: 0x1943B, offset: 0x1943B, size: 0x8, addend: 0x0, symName: __ZNSt3__114__split_bufferIPPN16BinarySearchTreeIiNS_4lessIiEEE4NodeENS_9allocatorIS7_EEE9__end_capB8ue170006Ev, symObjAddr: 0x6960, symBinAddr: 0x100009148, symSize: 0x28 }
  - { offsetInCU: 0x19461, offset: 0x19461, size: 0x8, addend: 0x0, symName: __ZNSt3__114__split_bufferIPPN16BinarySearchTreeIiNS_4lessIiEEE4NodeERNS_9allocatorIS7_EEE9__end_capB8ue170006Ev, symObjAddr: 0x6988, symBinAddr: 0x100009170, symSize: 0x28 }
  - { offsetInCU: 0x19487, offset: 0x19487, size: 0x8, addend: 0x0, symName: __ZNSt3__110unique_ptrIPPN16BinarySearchTreeIiNS_4lessIiEEE4NodeENS_22__allocator_destructorINS_9allocatorIS6_EEEEED1B8ue170006Ev, symObjAddr: 0x69B0, symBinAddr: 0x100009198, symSize: 0x2C }
  - { offsetInCU: 0x194B1, offset: 0x194B1, size: 0x8, addend: 0x0, symName: __ZNSt3__114__split_bufferIPPN16BinarySearchTreeIiNS_4lessIiEEE4NodeERNS_9allocatorIS7_EEED1Ev, symObjAddr: 0x69DC, symBinAddr: 0x1000091C4, symSize: 0x2C }
  - { offsetInCU: 0x194DD, offset: 0x194DD, size: 0x8, addend: 0x0, symName: __ZNSt3__114__split_bufferIPPN16BinarySearchTreeIiNS_4lessIiEEE4NodeENS_9allocatorIS7_EEE19__destruct_at_beginB8ue170006EPS7_, symObjAddr: 0x6A08, symBinAddr: 0x1000091F0, symSize: 0x2C }
  - { offsetInCU: 0x19511, offset: 0x19511, size: 0x8, addend: 0x0, symName: __ZNSt3__114__split_bufferIPPN16BinarySearchTreeIiNS_4lessIiEEE4NodeENS_9allocatorIS7_EEE19__destruct_at_beginEPS7_NS_17integral_constantIbLb1EEE, symObjAddr: 0x6A34, symBinAddr: 0x10000921C, symSize: 0x20 }
  - { offsetInCU: 0x19551, offset: 0x19551, size: 0x8, addend: 0x0, symName: __ZNSt3__114__split_bufferIPPN16BinarySearchTreeIiNS_4lessIiEEE4NodeERNS_9allocatorIS7_EEE18__construct_at_endINS_13move_iteratorIPS7_EEEENS_9enable_ifIXsr31__has_forward_iterator_categoryIT_EE5valueEvE4typeESH_SH_, symObjAddr: 0x6A94, symBinAddr: 0x10000927C, symSize: 0x60 }
  - { offsetInCU: 0x1959E, offset: 0x1959E, size: 0x8, addend: 0x0, symName: __ZNSt3__113move_iteratorIPPPN16BinarySearchTreeIiNS_4lessIiEEE4NodeEEC1B8ue170006ES8_, symObjAddr: 0x6AF4, symBinAddr: 0x1000092DC, symSize: 0x34 }
  - { offsetInCU: 0x195D6, offset: 0x195D6, size: 0x8, addend: 0x0, symName: __ZNSt3__116allocator_traitsINS_9allocatorIPPN16BinarySearchTreeIiNS_4lessIiEEE4NodeEEEE9constructB8ue170006IS8_JRKS8_EvEEvRS9_PT_DpOT0_, symObjAddr: 0x6B28, symBinAddr: 0x100009310, symSize: 0x34 }
  - { offsetInCU: 0x19651, offset: 0x19651, size: 0x8, addend: 0x0, symName: __ZNKSt3__114__move_trivialclB8ue170006IPPN16BinarySearchTreeIiNS_4lessIiEEE4NodeES8_Li0EEENS_4pairIPT_PT0_EESB_SB_SD_, symObjAddr: 0x6D0C, symBinAddr: 0x1000094F4, symSize: 0x48 }
  - { offsetInCU: 0x196BF, offset: 0x196BF, size: 0x8, addend: 0x0, symName: __ZNSt3__14pairIPPPN16BinarySearchTreeIiNS_4lessIiEEE4NodeES8_EC1B8ue170006IRS8_S8_LPv0EEEOT_OT0_, symObjAddr: 0x6F34, symBinAddr: 0x10000971C, symSize: 0x3C }
  - { offsetInCU: 0x1971D, offset: 0x1971D, size: 0x8, addend: 0x0, symName: __ZNSt3__14pairIPPPN16BinarySearchTreeIiNS_4lessIiEEE4NodeES8_EC2B8ue170006IRS8_S8_LPv0EEEOT_OT0_, symObjAddr: 0x6F70, symBinAddr: 0x100009758, symSize: 0x34 }
  - { offsetInCU: 0x1977B, offset: 0x1977B, size: 0x8, addend: 0x0, symName: __ZNSt3__118__unwrap_iter_implIPPPN16BinarySearchTreeIiNS_4lessIiEEE4NodeELb1EE8__unwrapB8ue170006ES8_, symObjAddr: 0x6FA4, symBinAddr: 0x10000978C, symSize: 0x24 }
  - { offsetInCU: 0x1979E, offset: 0x1979E, size: 0x8, addend: 0x0, symName: __ZNSt3__14pairIPPPN16BinarySearchTreeIiNS_4lessIiEEE4NodeES8_EC1B8ue170006IS8_S8_LPv0EEEOT_OT0_, symObjAddr: 0x6FC8, symBinAddr: 0x1000097B0, symSize: 0x3C }
  - { offsetInCU: 0x197FC, offset: 0x197FC, size: 0x8, addend: 0x0, symName: __ZNSt3__14pairIPPPN16BinarySearchTreeIiNS_4lessIiEEE4NodeES8_EC2B8ue170006IS8_S8_LPv0EEEOT_OT0_, symObjAddr: 0x7004, symBinAddr: 0x1000097EC, symSize: 0x34 }
  - { offsetInCU: 0x1985A, offset: 0x1985A, size: 0x8, addend: 0x0, symName: __ZNSt3__118__unwrap_iter_implIPPPN16BinarySearchTreeIiNS_4lessIiEEE4NodeELb1EE8__rewrapB8ue170006ES8_S8_, symObjAddr: 0x7038, symBinAddr: 0x100009820, symSize: 0x50 }
  - { offsetInCU: 0x1988B, offset: 0x1988B, size: 0x8, addend: 0x0, symName: __ZNSt3__114__split_bufferIPPN16BinarySearchTreeIiNS_4lessIiEEE4NodeERNS_9allocatorIS7_EEE28__construct_at_end_with_sizeINS_13move_iteratorIPS7_EEEEvT_m, symObjAddr: 0x7088, symBinAddr: 0x100009870, symSize: 0xDC }
  - { offsetInCU: 0x198F1, offset: 0x198F1, size: 0x8, addend: 0x0, symName: __ZNSt3__114__split_bufferIPPN16BinarySearchTreeIiNS_4lessIiEEE4NodeERNS_9allocatorIS7_EEE21_ConstructTransactionC1B8ue170006EPPS7_m, symObjAddr: 0x71A0, symBinAddr: 0x100009988, symSize: 0x3C }
  - { offsetInCU: 0x19937, offset: 0x19937, size: 0x8, addend: 0x0, symName: __ZNSt3__116allocator_traitsINS_9allocatorIPPN16BinarySearchTreeIiNS_4lessIiEEE4NodeEEEE9constructB8ue170006IS8_JS8_EvEEvRS9_PT_DpOT0_, symObjAddr: 0x71DC, symBinAddr: 0x1000099C4, symSize: 0x34 }
  - { offsetInCU: 0x1998E, offset: 0x1998E, size: 0x8, addend: 0x0, symName: __ZNSt3__114__split_bufferIPPN16BinarySearchTreeIiNS_4lessIiEEE4NodeERNS_9allocatorIS7_EEE7__allocB8ue170006Ev, symObjAddr: 0x7210, symBinAddr: 0x1000099F8, symSize: 0x28 }
  - { offsetInCU: 0x199B4, offset: 0x199B4, size: 0x8, addend: 0x0, symName: __ZNKSt3__113move_iteratorIPPPN16BinarySearchTreeIiNS_4lessIiEEE4NodeEEdeB8ue170006Ev, symObjAddr: 0x7238, symBinAddr: 0x100009A20, symSize: 0x18 }
  - { offsetInCU: 0x199DA, offset: 0x199DA, size: 0x8, addend: 0x0, symName: __ZNSt3__113move_iteratorIPPPN16BinarySearchTreeIiNS_4lessIiEEE4NodeEEppB8ue170006Ev, symObjAddr: 0x7250, symBinAddr: 0x100009A38, symSize: 0x20 }
  - { offsetInCU: 0x19A00, offset: 0x19A00, size: 0x8, addend: 0x0, symName: __ZNSt3__114__split_bufferIPPN16BinarySearchTreeIiNS_4lessIiEEE4NodeERNS_9allocatorIS7_EEE21_ConstructTransactionD1B8ue170006Ev, symObjAddr: 0x7270, symBinAddr: 0x100009A58, symSize: 0x2C }
  - { offsetInCU: 0x19A2A, offset: 0x19A2A, size: 0x8, addend: 0x0, symName: __ZNSt3__114__split_bufferIPPN16BinarySearchTreeIiNS_4lessIiEEE4NodeERNS_9allocatorIS7_EEE21_ConstructTransactionC2B8ue170006EPPS7_m, symObjAddr: 0x729C, symBinAddr: 0x100009A84, symSize: 0x44 }
  - { offsetInCU: 0x19A70, offset: 0x19A70, size: 0x8, addend: 0x0, symName: __ZNSt3__19allocatorIPPN16BinarySearchTreeIiNS_4lessIiEEE4NodeEE9constructB8ue170006IS7_JS7_EEEvPT_DpOT0_, symObjAddr: 0x72E0, symBinAddr: 0x100009AC8, symSize: 0x28 }
  - { offsetInCU: 0x19AC6, offset: 0x19AC6, size: 0x8, addend: 0x0, symName: __ZNSt3__117__compressed_pairIPPPN16BinarySearchTreeIiNS_4lessIiEEE4NodeERNS_9allocatorIS7_EEE6secondB8ue170006Ev, symObjAddr: 0x7308, symBinAddr: 0x100009AF0, symSize: 0x28 }
  - { offsetInCU: 0x19AEC, offset: 0x19AEC, size: 0x8, addend: 0x0, symName: __ZNSt3__122__compressed_pair_elemIRNS_9allocatorIPPN16BinarySearchTreeIiNS_4lessIiEEE4NodeEEELi1ELb0EE5__getB8ue170006Ev, symObjAddr: 0x7330, symBinAddr: 0x100009B18, symSize: 0x18 }
  - { offsetInCU: 0x19B12, offset: 0x19B12, size: 0x8, addend: 0x0, symName: __ZNSt3__114__split_bufferIPPN16BinarySearchTreeIiNS_4lessIiEEE4NodeERNS_9allocatorIS7_EEE21_ConstructTransactionD2B8ue170006Ev, symObjAddr: 0x7348, symBinAddr: 0x100009B30, symSize: 0x20 }
  - { offsetInCU: 0x19B3C, offset: 0x19B3C, size: 0x8, addend: 0x0, symName: __ZNKSt3__113move_iteratorIPPPN16BinarySearchTreeIiNS_4lessIiEEE4NodeEE4baseB8ue170006Ev, symObjAddr: 0x73E0, symBinAddr: 0x100009BC8, symSize: 0x18 }
  - { offsetInCU: 0x19B62, offset: 0x19B62, size: 0x8, addend: 0x0, symName: __ZNSt3__113move_iteratorIPPPN16BinarySearchTreeIiNS_4lessIiEEE4NodeEEC2B8ue170006ES8_, symObjAddr: 0x73F8, symBinAddr: 0x100009BE0, symSize: 0x20 }
  - { offsetInCU: 0x19B9A, offset: 0x19B9A, size: 0x8, addend: 0x0, symName: __ZNSt3__19allocatorIPPN16BinarySearchTreeIiNS_4lessIiEEE4NodeEE9constructB8ue170006IS7_JRKS7_EEEvPT_DpOT0_, symObjAddr: 0x7418, symBinAddr: 0x100009C00, symSize: 0x28 }
  - { offsetInCU: 0x19BF0, offset: 0x19BF0, size: 0x8, addend: 0x0, symName: __ZNKSt3__114__split_bufferIPPN16BinarySearchTreeIiNS_4lessIiEEE4NodeENS_9allocatorIS7_EEE9__end_capB8ue170006Ev, symObjAddr: 0x7440, symBinAddr: 0x100009C28, symSize: 0x28 }
  - { offsetInCU: 0x19C16, offset: 0x19C16, size: 0x8, addend: 0x0, symName: __ZNKSt3__117__compressed_pairIPPPN16BinarySearchTreeIiNS_4lessIiEEE4NodeENS_9allocatorIS7_EEE5firstB8ue170006Ev, symObjAddr: 0x7468, symBinAddr: 0x100009C50, symSize: 0x24 }
  - { offsetInCU: 0x19C3C, offset: 0x19C3C, size: 0x8, addend: 0x0, symName: __ZNKSt3__122__compressed_pair_elemIPPPN16BinarySearchTreeIiNS_4lessIiEEE4NodeELi0ELb0EE5__getB8ue170006Ev, symObjAddr: 0x748C, symBinAddr: 0x100009C74, symSize: 0x14 }
  - { offsetInCU: 0x19C62, offset: 0x19C62, size: 0x8, addend: 0x0, symName: __ZNSt3__19allocatorIPN16BinarySearchTreeIiNS_4lessIiEEE4NodeEE8allocateB8ue170006Em, symObjAddr: 0x74A0, symBinAddr: 0x100009C88, symSize: 0x58 }
  - { offsetInCU: 0x19CA0, offset: 0x19CA0, size: 0x8, addend: 0x0, symName: __ZNSt3__116allocator_traitsINS_9allocatorIPN16BinarySearchTreeIiNS_4lessIiEEE4NodeEEEE8max_sizeB8ue170006IS8_vEEmRKS8_, symObjAddr: 0x74F8, symBinAddr: 0x100009CE0, symSize: 0x24 }
  - { offsetInCU: 0x19CCE, offset: 0x19CCE, size: 0x8, addend: 0x0, symName: __ZNKSt3__19allocatorIPN16BinarySearchTreeIiNS_4lessIiEEE4NodeEE8max_sizeB8ue170006Ev, symObjAddr: 0x75B0, symBinAddr: 0x100009D98, symSize: 0x14 }
  - { offsetInCU: 0x19CFE, offset: 0x19CFE, size: 0x8, addend: 0x0, symName: __ZNKSt3__123__move_backward_trivialclB8ue170006IPPN16BinarySearchTreeIiNS_4lessIiEEE4NodeES8_Li0EEENS_4pairIPT_PT0_EESB_SB_SD_, symObjAddr: 0x77B0, symBinAddr: 0x100009F98, symSize: 0x48 }
  - { offsetInCU: 0x19D66, offset: 0x19D66, size: 0x8, addend: 0x0, symName: __ZNSt3__14pairIPPPN16BinarySearchTreeIiNS_4lessIiEEE4NodeES8_EC1B8ue170006IRS8_SB_LPv0EEEOT_OT0_, symObjAddr: 0x78C0, symBinAddr: 0x10000A0A8, symSize: 0x3C }
  - { offsetInCU: 0x19DC4, offset: 0x19DC4, size: 0x8, addend: 0x0, symName: __ZNSt3__14pairIPPPN16BinarySearchTreeIiNS_4lessIiEEE4NodeES8_EC2B8ue170006IRS8_SB_LPv0EEEOT_OT0_, symObjAddr: 0x78FC, symBinAddr: 0x10000A0E4, symSize: 0x34 }
  - { offsetInCU: 0x19E22, offset: 0x19E22, size: 0x8, addend: 0x0, symName: __ZNKSt3__15dequeIPN16BinarySearchTreeIiNS_4lessIiEEE4NodeENS_9allocatorIS6_EEE23__annotate_poison_blockB8ue170006EPKvSB_, symObjAddr: 0x7930, symBinAddr: 0x10000A118, symSize: 0x44 }
  - { offsetInCU: 0x19E66, offset: 0x19E66, size: 0x8, addend: 0x0, symName: __ZNKSt3__16__lessIvvEclB8ue170006ImmEEbRKT_RKT0_, symObjAddr: 0x79C8, symBinAddr: 0x10000A1B0, symSize: 0x34 }
  - { offsetInCU: 0x19EBA, offset: 0x19EBA, size: 0x8, addend: 0x0, symName: __ZNSt3__117__compressed_pairIPPPN16BinarySearchTreeIiNS_4lessIiEEE4NodeENS_9allocatorIS7_EEE6secondB8ue170006Ev, symObjAddr: 0x79FC, symBinAddr: 0x10000A1E4, symSize: 0x24 }
  - { offsetInCU: 0x19EE0, offset: 0x19EE0, size: 0x8, addend: 0x0, symName: __ZNSt3__122__compressed_pair_elemINS_9allocatorIPPN16BinarySearchTreeIiNS_4lessIiEEE4NodeEEELi1ELb1EE5__getB8ue170006Ev, symObjAddr: 0x7A20, symBinAddr: 0x10000A208, symSize: 0x14 }
  - { offsetInCU: 0x19F06, offset: 0x19F06, size: 0x8, addend: 0x0, symName: __ZNSt3__114__split_bufferIPPN16BinarySearchTreeIiNS_4lessIiEEE4NodeERNS_9allocatorIS7_EEEC2EmmSA_, symObjAddr: 0x7A34, symBinAddr: 0x10000A21C, symSize: 0xD4 }
  - { offsetInCU: 0x19F79, offset: 0x19F79, size: 0x8, addend: 0x0, symName: __ZNSt3__117__compressed_pairIPPPN16BinarySearchTreeIiNS_4lessIiEEE4NodeERNS_9allocatorIS7_EEEC1B8ue170006IDnSB_EEOT_OT0_, symObjAddr: 0x7B08, symBinAddr: 0x10000A2F0, symSize: 0x3C }
  - { offsetInCU: 0x19FD1, offset: 0x19FD1, size: 0x8, addend: 0x0, symName: __ZNSt3__117__compressed_pairIPPPN16BinarySearchTreeIiNS_4lessIiEEE4NodeERNS_9allocatorIS7_EEEC2B8ue170006IDnSB_EEOT_OT0_, symObjAddr: 0x7B84, symBinAddr: 0x10000A36C, symSize: 0x48 }
  - { offsetInCU: 0x1A029, offset: 0x1A029, size: 0x8, addend: 0x0, symName: __ZNSt3__122__compressed_pair_elemIRNS_9allocatorIPPN16BinarySearchTreeIiNS_4lessIiEEE4NodeEEELi1ELb0EEC2B8ue170006ISA_vEEOT_, symObjAddr: 0x7BCC, symBinAddr: 0x10000A3B4, symSize: 0x20 }
  - { offsetInCU: 0x1A06B, offset: 0x1A06B, size: 0x8, addend: 0x0, symName: __ZNSt3__19allocatorIPPN16BinarySearchTreeIiNS_4lessIiEEE4NodeEE8allocateB8ue170006Em, symObjAddr: 0x7BEC, symBinAddr: 0x10000A3D4, symSize: 0x58 }
  - { offsetInCU: 0x1A0A9, offset: 0x1A0A9, size: 0x8, addend: 0x0, symName: __ZNSt3__116allocator_traitsINS_9allocatorIPPN16BinarySearchTreeIiNS_4lessIiEEE4NodeEEEE8max_sizeB8ue170006IS9_vEEmRKS9_, symObjAddr: 0x7C44, symBinAddr: 0x10000A42C, symSize: 0x24 }
  - { offsetInCU: 0x1A0D7, offset: 0x1A0D7, size: 0x8, addend: 0x0, symName: __ZNKSt3__19allocatorIPPN16BinarySearchTreeIiNS_4lessIiEEE4NodeEE8max_sizeB8ue170006Ev, symObjAddr: 0x7C68, symBinAddr: 0x10000A450, symSize: 0x14 }
  - { offsetInCU: 0x1A0FD, offset: 0x1A0FD, size: 0x8, addend: 0x0, symName: __ZNSt3__122__allocator_destructorINS_9allocatorIPN16BinarySearchTreeIiNS_4lessIiEEE4NodeEEEEC2B8ue170006ERS8_m, symObjAddr: 0x7C7C, symBinAddr: 0x10000A464, symSize: 0x2C }
  - { offsetInCU: 0x1A143, offset: 0x1A143, size: 0x8, addend: 0x0, symName: __ZNSt3__110unique_ptrIPPN16BinarySearchTreeIiNS_4lessIiEEE4NodeENS_22__allocator_destructorINS_9allocatorIS6_EEEEEC2B8ue170006ILb1EvEES7_NS_16__dependent_typeINS_27__unique_ptr_deleter_sfinaeISB_EEXT_EE20__good_rval_ref_typeE, symObjAddr: 0x7CA8, symBinAddr: 0x10000A490, symSize: 0x48 }
  - { offsetInCU: 0x1A194, offset: 0x1A194, size: 0x8, addend: 0x0, symName: __ZNSt3__117__compressed_pairIPPN16BinarySearchTreeIiNS_4lessIiEEE4NodeENS_22__allocator_destructorINS_9allocatorIS6_EEEEEC1B8ue170006IRS7_SB_EEOT_OT0_, symObjAddr: 0x7CF0, symBinAddr: 0x10000A4D8, symSize: 0x3C }
  - { offsetInCU: 0x1A1EC, offset: 0x1A1EC, size: 0x8, addend: 0x0, symName: __ZNSt3__117__compressed_pairIPPN16BinarySearchTreeIiNS_4lessIiEEE4NodeENS_22__allocator_destructorINS_9allocatorIS6_EEEEEC2B8ue170006IRS7_SB_EEOT_OT0_, symObjAddr: 0x7D2C, symBinAddr: 0x10000A514, symSize: 0x48 }
  - { offsetInCU: 0x1A244, offset: 0x1A244, size: 0x8, addend: 0x0, symName: __ZNSt3__122__compressed_pair_elemIPPN16BinarySearchTreeIiNS_4lessIiEEE4NodeELi0ELb0EEC2B8ue170006IRS7_vEEOT_, symObjAddr: 0x7D74, symBinAddr: 0x10000A55C, symSize: 0x24 }
  - { offsetInCU: 0x1A286, offset: 0x1A286, size: 0x8, addend: 0x0, symName: __ZNSt3__122__compressed_pair_elemINS_22__allocator_destructorINS_9allocatorIPN16BinarySearchTreeIiNS_4lessIiEEE4NodeEEEEELi1ELb0EEC2B8ue170006ISA_vEEOT_, symObjAddr: 0x7D98, symBinAddr: 0x10000A580, symSize: 0x24 }
  - { offsetInCU: 0x1A2C8, offset: 0x1A2C8, size: 0x8, addend: 0x0, symName: __ZNKSt3__117__compressed_pairIPPN16BinarySearchTreeIiNS_4lessIiEEE4NodeENS_22__allocator_destructorINS_9allocatorIS6_EEEEE5firstB8ue170006Ev, symObjAddr: 0x7DBC, symBinAddr: 0x10000A5A4, symSize: 0x24 }
  - { offsetInCU: 0x1A2EE, offset: 0x1A2EE, size: 0x8, addend: 0x0, symName: __ZNKSt3__122__compressed_pair_elemIPPN16BinarySearchTreeIiNS_4lessIiEEE4NodeELi0ELb0EE5__getB8ue170006Ev, symObjAddr: 0x7DE0, symBinAddr: 0x10000A5C8, symSize: 0x14 }
  - { offsetInCU: 0x1A314, offset: 0x1A314, size: 0x8, addend: 0x0, symName: __ZNSt3__117__compressed_pairIPPN16BinarySearchTreeIiNS_4lessIiEEE4NodeENS_22__allocator_destructorINS_9allocatorIS6_EEEEE5firstB8ue170006Ev, symObjAddr: 0x7DF4, symBinAddr: 0x10000A5DC, symSize: 0x24 }
  - { offsetInCU: 0x1A33A, offset: 0x1A33A, size: 0x8, addend: 0x0, symName: __ZNSt3__122__compressed_pair_elemIPPN16BinarySearchTreeIiNS_4lessIiEEE4NodeELi0ELb0EE5__getB8ue170006Ev, symObjAddr: 0x7E18, symBinAddr: 0x10000A600, symSize: 0x14 }
  - { offsetInCU: 0x1A360, offset: 0x1A360, size: 0x8, addend: 0x0, symName: __ZNSt3__117__compressed_pairIPPPN16BinarySearchTreeIiNS_4lessIiEEE4NodeENS_9allocatorIS7_EEE5firstB8ue170006Ev, symObjAddr: 0x7E2C, symBinAddr: 0x10000A614, symSize: 0x24 }
  - { offsetInCU: 0x1A386, offset: 0x1A386, size: 0x8, addend: 0x0, symName: __ZNSt3__122__compressed_pair_elemIPPPN16BinarySearchTreeIiNS_4lessIiEEE4NodeELi0ELb0EE5__getB8ue170006Ev, symObjAddr: 0x7E50, symBinAddr: 0x10000A638, symSize: 0x14 }
  - { offsetInCU: 0x1A3AC, offset: 0x1A3AC, size: 0x8, addend: 0x0, symName: __ZNSt3__117__compressed_pairIPPPN16BinarySearchTreeIiNS_4lessIiEEE4NodeERNS_9allocatorIS7_EEE5firstB8ue170006Ev, symObjAddr: 0x7E64, symBinAddr: 0x10000A64C, symSize: 0x24 }
  - { offsetInCU: 0x1A3D2, offset: 0x1A3D2, size: 0x8, addend: 0x0, symName: __ZNSt3__110unique_ptrIPPN16BinarySearchTreeIiNS_4lessIiEEE4NodeENS_22__allocator_destructorINS_9allocatorIS6_EEEEED2B8ue170006Ev, symObjAddr: 0x7E88, symBinAddr: 0x10000A670, symSize: 0x30 }
  - { offsetInCU: 0x1A3FC, offset: 0x1A3FC, size: 0x8, addend: 0x0, symName: __ZNSt3__110unique_ptrIPPN16BinarySearchTreeIiNS_4lessIiEEE4NodeENS_22__allocator_destructorINS_9allocatorIS6_EEEEE5resetB8ue170006ES7_, symObjAddr: 0x7EB8, symBinAddr: 0x10000A6A0, symSize: 0x78 }
  - { offsetInCU: 0x1A440, offset: 0x1A440, size: 0x8, addend: 0x0, symName: __ZNSt3__117__compressed_pairIPPN16BinarySearchTreeIiNS_4lessIiEEE4NodeENS_22__allocator_destructorINS_9allocatorIS6_EEEEE6secondB8ue170006Ev, symObjAddr: 0x7F30, symBinAddr: 0x10000A718, symSize: 0x28 }
  - { offsetInCU: 0x1A466, offset: 0x1A466, size: 0x8, addend: 0x0, symName: __ZNSt3__122__allocator_destructorINS_9allocatorIPN16BinarySearchTreeIiNS_4lessIiEEE4NodeEEEEclB8ue170006EPS7_, symObjAddr: 0x7F58, symBinAddr: 0x10000A740, symSize: 0x34 }
  - { offsetInCU: 0x1A49A, offset: 0x1A49A, size: 0x8, addend: 0x0, symName: __ZNSt3__122__compressed_pair_elemINS_22__allocator_destructorINS_9allocatorIPN16BinarySearchTreeIiNS_4lessIiEEE4NodeEEEEELi1ELb0EE5__getB8ue170006Ev, symObjAddr: 0x7F8C, symBinAddr: 0x10000A774, symSize: 0x14 }
  - { offsetInCU: 0x1A4C0, offset: 0x1A4C0, size: 0x8, addend: 0x0, symName: __ZNSt3__116allocator_traitsINS_9allocatorIPN16BinarySearchTreeIiNS_4lessIiEEE4NodeEEEE10deallocateB8ue170006ERS8_PS7_m, symObjAddr: 0x7FA0, symBinAddr: 0x10000A788, symSize: 0x34 }
  - { offsetInCU: 0x1A502, offset: 0x1A502, size: 0x8, addend: 0x0, symName: __ZNSt3__19allocatorIPN16BinarySearchTreeIiNS_4lessIiEEE4NodeEE10deallocateB8ue170006EPS6_m, symObjAddr: 0x7FD4, symBinAddr: 0x10000A7BC, symSize: 0x40 }
  - { offsetInCU: 0x1A544, offset: 0x1A544, size: 0x8, addend: 0x0, symName: __ZNSt3__114__split_bufferIPPN16BinarySearchTreeIiNS_4lessIiEEE4NodeERNS_9allocatorIS7_EEED2Ev, symObjAddr: 0x811C, symBinAddr: 0x10000A904, symSize: 0x8C }
  - { offsetInCU: 0x1A570, offset: 0x1A570, size: 0x8, addend: 0x0, symName: __ZNSt3__114__split_bufferIPPN16BinarySearchTreeIiNS_4lessIiEEE4NodeERNS_9allocatorIS7_EEE5clearB8ue170006Ev, symObjAddr: 0x81A8, symBinAddr: 0x10000A990, symSize: 0x28 }
  - { offsetInCU: 0x1A596, offset: 0x1A596, size: 0x8, addend: 0x0, symName: __ZNSt3__116allocator_traitsINS_9allocatorIPPN16BinarySearchTreeIiNS_4lessIiEEE4NodeEEEE10deallocateB8ue170006ERS9_PS8_m, symObjAddr: 0x81D0, symBinAddr: 0x10000A9B8, symSize: 0x34 }
  - { offsetInCU: 0x1A5D8, offset: 0x1A5D8, size: 0x8, addend: 0x0, symName: __ZNKSt3__114__split_bufferIPPN16BinarySearchTreeIiNS_4lessIiEEE4NodeERNS_9allocatorIS7_EEE8capacityB8ue170006Ev, symObjAddr: 0x8204, symBinAddr: 0x10000A9EC, symSize: 0x40 }
  - { offsetInCU: 0x1A5FE, offset: 0x1A5FE, size: 0x8, addend: 0x0, symName: __ZNSt3__114__split_bufferIPPN16BinarySearchTreeIiNS_4lessIiEEE4NodeERNS_9allocatorIS7_EEE17__destruct_at_endB8ue170006EPS7_, symObjAddr: 0x8244, symBinAddr: 0x10000AA2C, symSize: 0x2C }
  - { offsetInCU: 0x1A632, offset: 0x1A632, size: 0x8, addend: 0x0, symName: __ZNSt3__114__split_bufferIPPN16BinarySearchTreeIiNS_4lessIiEEE4NodeERNS_9allocatorIS7_EEE17__destruct_at_endB8ue170006EPS7_NS_17integral_constantIbLb0EEE, symObjAddr: 0x8270, symBinAddr: 0x10000AA58, symSize: 0x80 }
  - { offsetInCU: 0x1A672, offset: 0x1A672, size: 0x8, addend: 0x0, symName: __ZNSt3__116allocator_traitsINS_9allocatorIPPN16BinarySearchTreeIiNS_4lessIiEEE4NodeEEEE7destroyB8ue170006IS8_vEEvRS9_PT_, symObjAddr: 0x82F0, symBinAddr: 0x10000AAD8, symSize: 0x2C }
  - { offsetInCU: 0x1A6AF, offset: 0x1A6AF, size: 0x8, addend: 0x0, symName: __ZNSt3__19allocatorIPPN16BinarySearchTreeIiNS_4lessIiEEE4NodeEE7destroyB8ue170006EPS7_, symObjAddr: 0x831C, symBinAddr: 0x10000AB04, symSize: 0x14 }
  - { offsetInCU: 0x1A6E3, offset: 0x1A6E3, size: 0x8, addend: 0x0, symName: __ZNSt3__19allocatorIPPN16BinarySearchTreeIiNS_4lessIiEEE4NodeEE10deallocateB8ue170006EPS7_m, symObjAddr: 0x8330, symBinAddr: 0x10000AB18, symSize: 0x40 }
  - { offsetInCU: 0x1A725, offset: 0x1A725, size: 0x8, addend: 0x0, symName: __ZNKSt3__114__split_bufferIPPN16BinarySearchTreeIiNS_4lessIiEEE4NodeERNS_9allocatorIS7_EEE9__end_capB8ue170006Ev, symObjAddr: 0x8370, symBinAddr: 0x10000AB58, symSize: 0x28 }
  - { offsetInCU: 0x1A74B, offset: 0x1A74B, size: 0x8, addend: 0x0, symName: __ZNKSt3__117__compressed_pairIPPPN16BinarySearchTreeIiNS_4lessIiEEE4NodeERNS_9allocatorIS7_EEE5firstB8ue170006Ev, symObjAddr: 0x8398, symBinAddr: 0x10000AB80, symSize: 0x24 }
  - { offsetInCU: 0x1A771, offset: 0x1A771, size: 0x8, addend: 0x0, symName: __ZNSt3__19allocatorIPN16BinarySearchTreeIiNS_4lessIiEEE4NodeEE9constructB8ue170006IS6_JRKS6_EEEvPT_DpOT0_, symObjAddr: 0x83BC, symBinAddr: 0x10000ABA4, symSize: 0x28 }
  - { offsetInCU: 0x1A7C7, offset: 0x1A7C7, size: 0x8, addend: 0x0, symName: __ZNKSt3__114__split_bufferIPPN16BinarySearchTreeIiNS_4lessIiEEE4NodeENS_9allocatorIS7_EEE5emptyB8ue170006Ev, symObjAddr: 0x83E4, symBinAddr: 0x10000ABCC, symSize: 0x28 }
  - { offsetInCU: 0x1A7ED, offset: 0x1A7ED, size: 0x8, addend: 0x0, symName: __ZNSt3__116__deque_iteratorIPN16BinarySearchTreeIiNS_4lessIiEEE4NodeEPS6_RS6_PS7_lLl512EEC1B8ue170006ES9_S7_, symObjAddr: 0x840C, symBinAddr: 0x10000ABF4, symSize: 0x3C }
  - { offsetInCU: 0x1A835, offset: 0x1A835, size: 0x8, addend: 0x0, symName: __ZNSt3__116__deque_iteratorIPN16BinarySearchTreeIiNS_4lessIiEEE4NodeEPS6_RS6_PS7_lLl512EEC2B8ue170006ES9_S7_, symObjAddr: 0x8448, symBinAddr: 0x10000AC30, symSize: 0x2C }
  - { offsetInCU: 0x1A87D, offset: 0x1A87D, size: 0x8, addend: 0x0, symName: __ZNSt3__117__compressed_pairImNS_9allocatorIPN16BinarySearchTreeIiNS_4lessIiEEE4NodeEEEE5firstB8ue170006Ev, symObjAddr: 0x8474, symBinAddr: 0x10000AC5C, symSize: 0x24 }
  - { offsetInCU: 0x1A8A3, offset: 0x1A8A3, size: 0x8, addend: 0x0, symName: __ZNSt3__122__compressed_pair_elemImLi0ELb0EE5__getB8ue170006Ev, symObjAddr: 0x8498, symBinAddr: 0x10000AC80, symSize: 0x14 }
  - { offsetInCU: 0x1A8C9, offset: 0x1A8C9, size: 0x8, addend: 0x0, symName: __ZNSt3__15dequeIPN16BinarySearchTreeIiNS_4lessIiEEE4NodeENS_9allocatorIS6_EEE4backEv, symObjAddr: 0x84AC, symBinAddr: 0x10000AC94, symSize: 0x68 }
  - { offsetInCU: 0x1A900, offset: 0x1A900, size: 0x8, addend: 0x0, symName: __ZNSt3__15dequeIPN16BinarySearchTreeIiNS_4lessIiEEE4NodeENS_9allocatorIS6_EEE8pop_backEv, symObjAddr: 0x8514, symBinAddr: 0x10000ACFC, symSize: 0xE0 }
  - { offsetInCU: 0x1A964, offset: 0x1A964, size: 0x8, addend: 0x0, symName: __ZNSt3__116allocator_traitsINS_9allocatorIPN16BinarySearchTreeIiNS_4lessIiEEE4NodeEEEE7destroyB8ue170006IS7_vEEvRS8_PT_, symObjAddr: 0x85F4, symBinAddr: 0x10000ADDC, symSize: 0x2C }
  - { offsetInCU: 0x1A9A1, offset: 0x1A9A1, size: 0x8, addend: 0x0, symName: __ZNKSt3__15dequeIPN16BinarySearchTreeIiNS_4lessIiEEE4NodeENS_9allocatorIS6_EEE22__annotate_shrink_backB8ue170006Emm, symObjAddr: 0x8620, symBinAddr: 0x10000AE08, symSize: 0x60 }
  - { offsetInCU: 0x1A9E5, offset: 0x1A9E5, size: 0x8, addend: 0x0, symName: __ZNSt3__15dequeIPN16BinarySearchTreeIiNS_4lessIiEEE4NodeENS_9allocatorIS6_EEE25__maybe_remove_back_spareB8ue170006Eb, symObjAddr: 0x8680, symBinAddr: 0x10000AE68, symSize: 0xE8 }
  - { offsetInCU: 0x1AA1A, offset: 0x1AA1A, size: 0x8, addend: 0x0, symName: __ZNSt3__19allocatorIPN16BinarySearchTreeIiNS_4lessIiEEE4NodeEE7destroyB8ue170006EPS6_, symObjAddr: 0x8768, symBinAddr: 0x10000AF50, symSize: 0x14 }
  - { offsetInCU: 0x1AA4E, offset: 0x1AA4E, size: 0x8, addend: 0x0, symName: __ZNKSt3__15dequeIPN16BinarySearchTreeIiNS_4lessIiEEE4NodeENS_9allocatorIS6_EEE19__back_spare_blocksB8ue170006Ev, symObjAddr: 0x877C, symBinAddr: 0x10000AF64, symSize: 0x2C }
  - { offsetInCU: 0x1AA74, offset: 0x1AA74, size: 0x8, addend: 0x0, symName: __ZNSt3__114__split_bufferIPPN16BinarySearchTreeIiNS_4lessIiEEE4NodeENS_9allocatorIS7_EEE4backB8ue170006Ev, symObjAddr: 0x87A8, symBinAddr: 0x10000AF90, symSize: 0x1C }
  - { offsetInCU: 0x1AA9A, offset: 0x1AA9A, size: 0x8, addend: 0x0, symName: __ZNSt3__114__split_bufferIPPN16BinarySearchTreeIiNS_4lessIiEEE4NodeENS_9allocatorIS7_EEE8pop_backB8ue170006Ev, symObjAddr: 0x87C4, symBinAddr: 0x10000AFAC, symSize: 0x2C }
  - { offsetInCU: 0x1AAC0, offset: 0x1AAC0, size: 0x8, addend: 0x0, symName: __ZNSt3__114__split_bufferIPPN16BinarySearchTreeIiNS_4lessIiEEE4NodeENS_9allocatorIS7_EEE17__destruct_at_endB8ue170006EPS7_, symObjAddr: 0x87F0, symBinAddr: 0x10000AFD8, symSize: 0x2C }
  - { offsetInCU: 0x1AAF4, offset: 0x1AAF4, size: 0x8, addend: 0x0, symName: __ZNSt3__114__split_bufferIPPN16BinarySearchTreeIiNS_4lessIiEEE4NodeENS_9allocatorIS7_EEE17__destruct_at_endB8ue170006EPS7_NS_17integral_constantIbLb0EEE, symObjAddr: 0x881C, symBinAddr: 0x10000B004, symSize: 0x80 }
  - { offsetInCU: 0x1AB34, offset: 0x1AB34, size: 0x8, addend: 0x0, symName: __ZNKSt3__112basic_stringIcNS_11char_traitsIcEENS_9allocatorIcEEE4sizeB8ue170006Ev, symObjAddr: 0x889C, symBinAddr: 0x10000B084, symSize: 0x54 }
  - { offsetInCU: 0x1AB5A, offset: 0x1AB5A, size: 0x8, addend: 0x0, symName: __ZNKSt3__112basic_stringIcNS_11char_traitsIcEENS_9allocatorIcEEE15__get_long_sizeB8ue170006Ev, symObjAddr: 0x88F0, symBinAddr: 0x10000B0D8, symSize: 0x28 }
  - { offsetInCU: 0x1AB80, offset: 0x1AB80, size: 0x8, addend: 0x0, symName: __ZNKSt3__112basic_stringIcNS_11char_traitsIcEENS_9allocatorIcEEE16__get_short_sizeB8ue170006Ev, symObjAddr: 0x8918, symBinAddr: 0x10000B100, symSize: 0x34 }
  - { offsetInCU: 0x1ABA6, offset: 0x1ABA6, size: 0x8, addend: 0x0, symName: __ZNSt3__15stackIPN16BinarySearchTreeIiNS_4lessIiEEE4NodeENS_5dequeIS6_NS_9allocatorIS6_EEEEED2Ev, symObjAddr: 0x894C, symBinAddr: 0x10000B134, symSize: 0x2C }
  - { offsetInCU: 0x1ABD2, offset: 0x1ABD2, size: 0x8, addend: 0x0, symName: __ZNSt3__15dequeIPN16BinarySearchTreeIiNS_4lessIiEEE4NodeENS_9allocatorIS6_EEED1B8ue170006Ev, symObjAddr: 0x8978, symBinAddr: 0x10000B160, symSize: 0x2C }
  - { offsetInCU: 0x1ABFC, offset: 0x1ABFC, size: 0x8, addend: 0x0, symName: __ZNSt3__15dequeIPN16BinarySearchTreeIiNS_4lessIiEEE4NodeENS_9allocatorIS6_EEED2B8ue170006Ev, symObjAddr: 0x89A4, symBinAddr: 0x10000B18C, symSize: 0xA4 }
  - { offsetInCU: 0x1AC52, offset: 0x1AC52, size: 0x8, addend: 0x0, symName: __ZNSt3__15dequeIPN16BinarySearchTreeIiNS_4lessIiEEE4NodeENS_9allocatorIS6_EEE5clearEv, symObjAddr: 0x8A48, symBinAddr: 0x10000B230, symSize: 0x170 }
  - { offsetInCU: 0x1ACAD, offset: 0x1ACAD, size: 0x8, addend: 0x0, symName: __ZNKSt3__15dequeIPN16BinarySearchTreeIiNS_4lessIiEEE4NodeENS_9allocatorIS6_EEE17__annotate_deleteB8ue170006Ev, symObjAddr: 0x8BB8, symBinAddr: 0x10000B3A0, symSize: 0xE8 }
  - { offsetInCU: 0x1ACF0, offset: 0x1ACF0, size: 0x8, addend: 0x0, symName: __ZNSt3__114__split_bufferIPPN16BinarySearchTreeIiNS_4lessIiEEE4NodeENS_9allocatorIS7_EEED1Ev, symObjAddr: 0x8CA0, symBinAddr: 0x10000B488, symSize: 0x2C }
  - { offsetInCU: 0x1AD1C, offset: 0x1AD1C, size: 0x8, addend: 0x0, symName: __ZNSt3__15dequeIPN16BinarySearchTreeIiNS_4lessIiEEE4NodeENS_9allocatorIS6_EEE5beginB8ue170006Ev, symObjAddr: 0x8CCC, symBinAddr: 0x10000B4B4, symSize: 0xA8 }
  - { offsetInCU: 0x1AD51, offset: 0x1AD51, size: 0x8, addend: 0x0, symName: __ZNSt3__116__deque_iteratorIPN16BinarySearchTreeIiNS_4lessIiEEE4NodeEPS6_RS6_PS7_lLl512EEppB8ue170006Ev, symObjAddr: 0x8DA8, symBinAddr: 0x10000B590, symSize: 0x70 }
  - { offsetInCU: 0x1AD77, offset: 0x1AD77, size: 0x8, addend: 0x0, symName: __ZNSt3__114__split_bufferIPPN16BinarySearchTreeIiNS_4lessIiEEE4NodeENS_9allocatorIS7_EEED2Ev, symObjAddr: 0x8E48, symBinAddr: 0x10000B630, symSize: 0x80 }
  - { offsetInCU: 0x1ADA3, offset: 0x1ADA3, size: 0x8, addend: 0x0, symName: __ZNSt3__114__split_bufferIPPN16BinarySearchTreeIiNS_4lessIiEEE4NodeENS_9allocatorIS7_EEE5clearB8ue170006Ev, symObjAddr: 0x8EC8, symBinAddr: 0x10000B6B0, symSize: 0x28 }
  - { offsetInCU: 0x1ADC9, offset: 0x1ADC9, size: 0x8, addend: 0x0, symName: __ZN16BinarySearchTreeIiNSt3__14lessIiEEE9Tree_gridC2ERKS3_, symObjAddr: 0x8EF0, symBinAddr: 0x10000B6D8, symSize: 0x90 }
  - { offsetInCU: 0x1AE01, offset: 0x1AE01, size: 0x8, addend: 0x0, symName: __ZNSt3__13setIN16BinarySearchTreeIiNS_4lessIiEEE16Tree_grid_squareENS2_IS5_EENS_9allocatorIS5_EEEC1B8ue170006Ev, symObjAddr: 0x8F80, symBinAddr: 0x10000B768, symSize: 0x2C }
  - { offsetInCU: 0x1AE2B, offset: 0x1AE2B, size: 0x8, addend: 0x0, symName: __ZN16BinarySearchTreeIiNSt3__14lessIiEEE9Tree_grid5buildEPKNS3_4NodeEii, symObjAddr: 0x8FAC, symBinAddr: 0x10000B794, symSize: 0x3C8 }
  - { offsetInCU: 0x1AF02, offset: 0x1AF02, size: 0x8, addend: 0x0, symName: __ZNSt3__13setIN16BinarySearchTreeIiNS_4lessIiEEE16Tree_grid_squareENS2_IS5_EENS_9allocatorIS5_EEED1B8ue170006Ev, symObjAddr: 0x9374, symBinAddr: 0x10000BB5C, symSize: 0x2C }
  - { offsetInCU: 0x1AF2C, offset: 0x1AF2C, size: 0x8, addend: 0x0, symName: __ZNSt3__13setIN16BinarySearchTreeIiNS_4lessIiEEE16Tree_grid_squareENS2_IS5_EENS_9allocatorIS5_EEEC2B8ue170006Ev, symObjAddr: 0x93A0, symBinAddr: 0x10000BB88, symSize: 0x30 }
  - { offsetInCU: 0x1AF56, offset: 0x1AF56, size: 0x8, addend: 0x0, symName: __ZNSt3__16__treeIN16BinarySearchTreeIiNS_4lessIiEEE16Tree_grid_squareENS2_IS5_EENS_9allocatorIS5_EEEC1ERKS6_, symObjAddr: 0x93D0, symBinAddr: 0x10000BBB8, symSize: 0x34 }
  - { offsetInCU: 0x1AF91, offset: 0x1AF91, size: 0x8, addend: 0x0, symName: __ZNSt3__16__treeIN16BinarySearchTreeIiNS_4lessIiEEE16Tree_grid_squareENS2_IS5_EENS_9allocatorIS5_EEEC2ERKS6_, symObjAddr: 0x9404, symBinAddr: 0x10000BBEC, symSize: 0x7C }
  - { offsetInCU: 0x1AFCC, offset: 0x1AFCC, size: 0x8, addend: 0x0, symName: __ZNSt3__117__compressed_pairINS_15__tree_end_nodeIPNS_16__tree_node_baseIPvEEEENS_9allocatorINS_11__tree_nodeIN16BinarySearchTreeIiNS_4lessIiEEE16Tree_grid_squareES3_EEEEEC1B8ue170006ILb1EvEEv, symObjAddr: 0x9480, symBinAddr: 0x10000BC68, symSize: 0x2C }
  - { offsetInCU: 0x1B001, offset: 0x1B001, size: 0x8, addend: 0x0, symName: __ZNSt3__117__compressed_pairImNS_4lessIN16BinarySearchTreeIiNS1_IiEEE16Tree_grid_squareEEEEC1B8ue170006IiRKS6_EEOT_OT0_, symObjAddr: 0x94AC, symBinAddr: 0x10000BC94, symSize: 0x3C }
  - { offsetInCU: 0x1B059, offset: 0x1B059, size: 0x8, addend: 0x0, symName: __ZNSt3__16__treeIN16BinarySearchTreeIiNS_4lessIiEEE16Tree_grid_squareENS2_IS5_EENS_9allocatorIS5_EEE10__end_nodeB8ue170006Ev, symObjAddr: 0x94E8, symBinAddr: 0x10000BCD0, symSize: 0x2C }
  - { offsetInCU: 0x1B07F, offset: 0x1B07F, size: 0x8, addend: 0x0, symName: __ZNSt3__16__treeIN16BinarySearchTreeIiNS_4lessIiEEE16Tree_grid_squareENS2_IS5_EENS_9allocatorIS5_EEE12__begin_nodeB8ue170006Ev, symObjAddr: 0x9514, symBinAddr: 0x10000BCFC, symSize: 0x14 }
  - { offsetInCU: 0x1B0A5, offset: 0x1B0A5, size: 0x8, addend: 0x0, symName: __ZNSt3__117__compressed_pairINS_15__tree_end_nodeIPNS_16__tree_node_baseIPvEEEENS_9allocatorINS_11__tree_nodeIN16BinarySearchTreeIiNS_4lessIiEEE16Tree_grid_squareES3_EEEEEC2B8ue170006ILb1EvEEv, symObjAddr: 0x9528, symBinAddr: 0x10000BD10, symSize: 0x34 }
  - { offsetInCU: 0x1B0DA, offset: 0x1B0DA, size: 0x8, addend: 0x0, symName: __ZNSt3__122__compressed_pair_elemINS_15__tree_end_nodeIPNS_16__tree_node_baseIPvEEEELi0ELb0EEC2B8ue170006ENS_16__value_init_tagE, symObjAddr: 0x955C, symBinAddr: 0x10000BD44, symSize: 0x2C }
  - { offsetInCU: 0x1B10E, offset: 0x1B10E, size: 0x8, addend: 0x0, symName: __ZNSt3__122__compressed_pair_elemINS_9allocatorINS_11__tree_nodeIN16BinarySearchTreeIiNS_4lessIiEEE16Tree_grid_squareEPvEEEELi1ELb1EEC2B8ue170006ENS_16__value_init_tagE, symObjAddr: 0x9588, symBinAddr: 0x10000BD70, symSize: 0x2C }
  - { offsetInCU: 0x1B142, offset: 0x1B142, size: 0x8, addend: 0x0, symName: __ZNSt3__115__tree_end_nodeIPNS_16__tree_node_baseIPvEEEC1B8ue170006Ev, symObjAddr: 0x95B4, symBinAddr: 0x10000BD9C, symSize: 0x2C }
  - { offsetInCU: 0x1B16C, offset: 0x1B16C, size: 0x8, addend: 0x0, symName: __ZNSt3__115__tree_end_nodeIPNS_16__tree_node_baseIPvEEEC2B8ue170006Ev, symObjAddr: 0x95E0, symBinAddr: 0x10000BDC8, symSize: 0x18 }
  - { offsetInCU: 0x1B196, offset: 0x1B196, size: 0x8, addend: 0x0, symName: __ZNSt3__19allocatorINS_11__tree_nodeIN16BinarySearchTreeIiNS_4lessIiEEE16Tree_grid_squareEPvEEEC2B8ue170006Ev, symObjAddr: 0x95F8, symBinAddr: 0x10000BDE0, symSize: 0x2C }
  - { offsetInCU: 0x1B1C0, offset: 0x1B1C0, size: 0x8, addend: 0x0, symName: __ZNSt3__116__non_trivial_ifILb1ENS_9allocatorINS_11__tree_nodeIN16BinarySearchTreeIiNS_4lessIiEEE16Tree_grid_squareEPvEEEEEC2B8ue170006Ev, symObjAddr: 0x9624, symBinAddr: 0x10000BE0C, symSize: 0x14 }
  - { offsetInCU: 0x1B1EA, offset: 0x1B1EA, size: 0x8, addend: 0x0, symName: __ZNSt3__117__compressed_pairImNS_4lessIN16BinarySearchTreeIiNS1_IiEEE16Tree_grid_squareEEEEC2B8ue170006IiRKS6_EEOT_OT0_, symObjAddr: 0x9638, symBinAddr: 0x10000BE20, symSize: 0x44 }
  - { offsetInCU: 0x1B242, offset: 0x1B242, size: 0x8, addend: 0x0, symName: __ZNSt3__122__compressed_pair_elemINS_4lessIN16BinarySearchTreeIiNS1_IiEEE16Tree_grid_squareEEELi1ELb1EEC2B8ue170006IRKS6_vEEOT_, symObjAddr: 0x967C, symBinAddr: 0x10000BE64, symSize: 0x18 }
  - { offsetInCU: 0x1B284, offset: 0x1B284, size: 0x8, addend: 0x0, symName: __ZNSt3__114pointer_traitsIPNS_15__tree_end_nodeIPNS_16__tree_node_baseIPvEEEEE10pointer_toB8ue170006ERS6_, symObjAddr: 0x9694, symBinAddr: 0x10000BE7C, symSize: 0x14 }
  - { offsetInCU: 0x1B2A7, offset: 0x1B2A7, size: 0x8, addend: 0x0, symName: __ZNSt3__117__compressed_pairINS_15__tree_end_nodeIPNS_16__tree_node_baseIPvEEEENS_9allocatorINS_11__tree_nodeIN16BinarySearchTreeIiNS_4lessIiEEE16Tree_grid_squareES3_EEEEE5firstB8ue170006Ev, symObjAddr: 0x96A8, symBinAddr: 0x10000BE90, symSize: 0x24 }
  - { offsetInCU: 0x1B2CD, offset: 0x1B2CD, size: 0x8, addend: 0x0, symName: __ZNSt3__122__compressed_pair_elemINS_15__tree_end_nodeIPNS_16__tree_node_baseIPvEEEELi0ELb0EE5__getB8ue170006Ev, symObjAddr: 0x96CC, symBinAddr: 0x10000BEB4, symSize: 0x14 }
  - { offsetInCU: 0x1B2F3, offset: 0x1B2F3, size: 0x8, addend: 0x0, symName: __ZNSt3__13setIN16BinarySearchTreeIiNS_4lessIiEEE16Tree_grid_squareENS2_IS5_EENS_9allocatorIS5_EEE6insertB8ue170006EOS5_, symObjAddr: 0x96E0, symBinAddr: 0x10000BEC8, symSize: 0x4C }
  - { offsetInCU: 0x1B328, offset: 0x1B328, size: 0x8, addend: 0x0, symName: __ZN16BinarySearchTreeIiNSt3__14lessIiEEE16Tree_grid_squareC1IiEEiiT_, symObjAddr: 0x972C, symBinAddr: 0x10000BF14, symSize: 0x44 }
  - { offsetInCU: 0x1B385, offset: 0x1B385, size: 0x8, addend: 0x0, symName: __ZN16BinarySearchTreeIiNSt3__14lessIiEEE9Tree_grid18calculate_x_offsetEii, symObjAddr: 0x9770, symBinAddr: 0x10000BF58, symSize: 0x54 }
  - { offsetInCU: 0x1B3B6, offset: 0x1B3B6, size: 0x8, addend: 0x0, symName: __ZN16BinarySearchTreeIiNSt3__14lessIiEEE16Tree_grid_squareC1IPKcEEiiT_, symObjAddr: 0x97C4, symBinAddr: 0x10000BFAC, symSize: 0x44 }
  - { offsetInCU: 0x1B413, offset: 0x1B413, size: 0x8, addend: 0x0, symName: __ZNSt3__13setIN16BinarySearchTreeIiNS_4lessIiEEE16Tree_grid_squareENS2_IS5_EENS_9allocatorIS5_EEE4findB8ue170006ERKS5_, symObjAddr: 0x9808, symBinAddr: 0x10000BFF0, symSize: 0x40 }
  - { offsetInCU: 0x1B448, offset: 0x1B448, size: 0x8, addend: 0x0, symName: __ZNSt3__13setIN16BinarySearchTreeIiNS_4lessIiEEE16Tree_grid_squareENS2_IS5_EENS_9allocatorIS5_EEE3endB8ue170006Ev, symObjAddr: 0x987C, symBinAddr: 0x10000C064, symSize: 0x38 }
  - { offsetInCU: 0x1B46E, offset: 0x1B46E, size: 0x8, addend: 0x0, symName: __ZNSt3__13setIN16BinarySearchTreeIiNS_4lessIiEEE16Tree_grid_squareENS2_IS5_EENS_9allocatorIS5_EEE5eraseB8ue170006ENS_21__tree_const_iteratorIS5_PNS_11__tree_nodeIS5_PvEElEE, symObjAddr: 0x98B4, symBinAddr: 0x10000C09C, symSize: 0x48 }
  - { offsetInCU: 0x1B4A3, offset: 0x1B4A3, size: 0x8, addend: 0x0, symName: __ZNK16BinarySearchTreeIiNSt3__14lessIiEEE16Tree_grid_square5get_xEv, symObjAddr: 0x98FC, symBinAddr: 0x10000C0E4, symSize: 0x18 }
  - { offsetInCU: 0x1B4C9, offset: 0x1B4C9, size: 0x8, addend: 0x0, symName: __ZNK16BinarySearchTreeIiNSt3__14lessIiEEE16Tree_grid_square5get_yEv, symObjAddr: 0x9914, symBinAddr: 0x10000C0FC, symSize: 0x18 }
  - { offsetInCU: 0x1B4EF, offset: 0x1B4EF, size: 0x8, addend: 0x0, symName: __ZNSt3__13setIN16BinarySearchTreeIiNS_4lessIiEEE16Tree_grid_squareENS2_IS5_EENS_9allocatorIS5_EEE6insertB8ue170006ERKS5_, symObjAddr: 0x992C, symBinAddr: 0x10000C114, symSize: 0x4C }
  - { offsetInCU: 0x1B524, offset: 0x1B524, size: 0x8, addend: 0x0, symName: __ZNSt3__16__treeIN16BinarySearchTreeIiNS_4lessIiEEE16Tree_grid_squareENS2_IS5_EENS_9allocatorIS5_EEE15__insert_uniqueB8ue170006EOS5_, symObjAddr: 0x9978, symBinAddr: 0x10000C160, symSize: 0x50 }
  - { offsetInCU: 0x1B559, offset: 0x1B559, size: 0x8, addend: 0x0, symName: __ZNSt3__14pairINS_21__tree_const_iteratorIN16BinarySearchTreeIiNS_4lessIiEEE16Tree_grid_squareEPNS_11__tree_nodeIS6_PvEElEEbEC1B8ue170006INS_15__tree_iteratorIS6_SA_lEEbLS8_0EEEONS0_IT_T0_EE, symObjAddr: 0x99C8, symBinAddr: 0x10000C1B0, symSize: 0x34 }
  - { offsetInCU: 0x1B5B0, offset: 0x1B5B0, size: 0x8, addend: 0x0, symName: __ZNSt3__16__treeIN16BinarySearchTreeIiNS_4lessIiEEE16Tree_grid_squareENS2_IS5_EENS_9allocatorIS5_EEE25__emplace_unique_key_argsIS5_JS5_EEENS_4pairINS_15__tree_iteratorIS5_PNS_11__tree_nodeIS5_PvEElEEbEERKT_DpOT0_, symObjAddr: 0x99FC, symBinAddr: 0x10000C1E4, symSize: 0xF0 }
  - { offsetInCU: 0x1B65C, offset: 0x1B65C, size: 0x8, addend: 0x0, symName: __ZNSt3__122__tree_key_value_typesIN16BinarySearchTreeIiNS_4lessIiEEE16Tree_grid_squareEE9__get_keyB8ue170006ERKS5_, symObjAddr: 0x9AEC, symBinAddr: 0x10000C2D4, symSize: 0x14 }
  - { offsetInCU: 0x1B680, offset: 0x1B680, size: 0x8, addend: 0x0, symName: __ZNSt3__16__treeIN16BinarySearchTreeIiNS_4lessIiEEE16Tree_grid_squareENS2_IS5_EENS_9allocatorIS5_EEE12__find_equalIS5_EERPNS_16__tree_node_baseIPvEERPNS_15__tree_end_nodeISE_EERKT_, symObjAddr: 0x9B00, symBinAddr: 0x10000C2E8, symSize: 0x184 }
  - { offsetInCU: 0x1B6ED, offset: 0x1B6ED, size: 0x8, addend: 0x0, symName: __ZNSt3__16__treeIN16BinarySearchTreeIiNS_4lessIiEEE16Tree_grid_squareENS2_IS5_EENS_9allocatorIS5_EEE16__construct_nodeIJS5_EEENS_10unique_ptrINS_11__tree_nodeIS5_PvEENS_22__tree_node_destructorINS7_ISE_EEEEEEDpOT_, symObjAddr: 0x9C84, symBinAddr: 0x10000C46C, symSize: 0x110 }
  - { offsetInCU: 0x1B74E, offset: 0x1B74E, size: 0x8, addend: 0x0, symName: __ZNSt3__16__treeIN16BinarySearchTreeIiNS_4lessIiEEE16Tree_grid_squareENS2_IS5_EENS_9allocatorIS5_EEE16__insert_node_atEPNS_15__tree_end_nodeIPNS_16__tree_node_baseIPvEEEERSE_SE_, symObjAddr: 0x9D94, symBinAddr: 0x10000C57C, symSize: 0xCC }
  - { offsetInCU: 0x1B7A3, offset: 0x1B7A3, size: 0x8, addend: 0x0, symName: __ZNKSt3__110unique_ptrINS_11__tree_nodeIN16BinarySearchTreeIiNS_4lessIiEEE16Tree_grid_squareEPvEENS_22__tree_node_destructorINS_9allocatorIS8_EEEEE3getB8ue170006Ev, symObjAddr: 0x9E60, symBinAddr: 0x10000C648, symSize: 0x28 }
  - { offsetInCU: 0x1B7C9, offset: 0x1B7C9, size: 0x8, addend: 0x0, symName: __ZNSt3__110unique_ptrINS_11__tree_nodeIN16BinarySearchTreeIiNS_4lessIiEEE16Tree_grid_squareEPvEENS_22__tree_node_destructorINS_9allocatorIS8_EEEEE7releaseB8ue170006Ev, symObjAddr: 0x9E88, symBinAddr: 0x10000C670, symSize: 0x44 }
  - { offsetInCU: 0x1B7FE, offset: 0x1B7FE, size: 0x8, addend: 0x0, symName: __ZNSt3__110unique_ptrINS_11__tree_nodeIN16BinarySearchTreeIiNS_4lessIiEEE16Tree_grid_squareEPvEENS_22__tree_node_destructorINS_9allocatorIS8_EEEEED1B8ue170006Ev, symObjAddr: 0x9ECC, symBinAddr: 0x10000C6B4, symSize: 0x2C }
  - { offsetInCU: 0x1B828, offset: 0x1B828, size: 0x8, addend: 0x0, symName: __ZNSt3__115__tree_iteratorIN16BinarySearchTreeIiNS_4lessIiEEE16Tree_grid_squareEPNS_11__tree_nodeIS5_PvEElEC1B8ue170006ES9_, symObjAddr: 0x9EF8, symBinAddr: 0x10000C6E0, symSize: 0x34 }
  - { offsetInCU: 0x1B86C, offset: 0x1B86C, size: 0x8, addend: 0x0, symName: __ZNSt3__14pairINS_15__tree_iteratorIN16BinarySearchTreeIiNS_4lessIiEEE16Tree_grid_squareEPNS_11__tree_nodeIS6_PvEElEEbEC1B8ue170006ISB_RbLS8_0EEEOT_OT0_, symObjAddr: 0x9F2C, symBinAddr: 0x10000C714, symSize: 0x3C }
  - { offsetInCU: 0x1B8CA, offset: 0x1B8CA, size: 0x8, addend: 0x0, symName: __ZNKSt3__16__treeIN16BinarySearchTreeIiNS_4lessIiEEE16Tree_grid_squareENS2_IS5_EENS_9allocatorIS5_EEE6__rootB8ue170006Ev, symObjAddr: 0x9F68, symBinAddr: 0x10000C750, symSize: 0x28 }
  - { offsetInCU: 0x1B8F0, offset: 0x1B8F0, size: 0x8, addend: 0x0, symName: __ZNKSt3__16__treeIN16BinarySearchTreeIiNS_4lessIiEEE16Tree_grid_squareENS2_IS5_EENS_9allocatorIS5_EEE10__root_ptrB8ue170006Ev, symObjAddr: 0x9F90, symBinAddr: 0x10000C778, symSize: 0x24 }
  - { offsetInCU: 0x1B916, offset: 0x1B916, size: 0x8, addend: 0x0, symName: __ZNSt3__16__treeIN16BinarySearchTreeIiNS_4lessIiEEE16Tree_grid_squareENS2_IS5_EENS_9allocatorIS5_EEE10value_compB8ue170006Ev, symObjAddr: 0x9FB4, symBinAddr: 0x10000C79C, symSize: 0x28 }
  - { offsetInCU: 0x1B93C, offset: 0x1B93C, size: 0x8, addend: 0x0, symName: __ZNKSt3__14lessIN16BinarySearchTreeIiNS0_IiEEE16Tree_grid_squareEEclB8ue170006ERKS4_S7_, symObjAddr: 0x9FDC, symBinAddr: 0x10000C7C4, symSize: 0x34 }
  - { offsetInCU: 0x1B980, offset: 0x1B980, size: 0x8, addend: 0x0, symName: __ZNKSt3__16__treeIN16BinarySearchTreeIiNS_4lessIiEEE16Tree_grid_squareENS2_IS5_EENS_9allocatorIS5_EEE10__end_nodeB8ue170006Ev, symObjAddr: 0xA010, symBinAddr: 0x10000C7F8, symSize: 0x2C }
  - { offsetInCU: 0x1B9A6, offset: 0x1B9A6, size: 0x8, addend: 0x0, symName: __ZNKSt3__117__compressed_pairINS_15__tree_end_nodeIPNS_16__tree_node_baseIPvEEEENS_9allocatorINS_11__tree_nodeIN16BinarySearchTreeIiNS_4lessIiEEE16Tree_grid_squareES3_EEEEE5firstB8ue170006Ev, symObjAddr: 0xA03C, symBinAddr: 0x10000C824, symSize: 0x24 }
  - { offsetInCU: 0x1B9CC, offset: 0x1B9CC, size: 0x8, addend: 0x0, symName: __ZNKSt3__122__compressed_pair_elemINS_15__tree_end_nodeIPNS_16__tree_node_baseIPvEEEELi0ELb0EE5__getB8ue170006Ev, symObjAddr: 0xA060, symBinAddr: 0x10000C848, symSize: 0x14 }
  - { offsetInCU: 0x1B9F2, offset: 0x1B9F2, size: 0x8, addend: 0x0, symName: __ZNSt3__117__compressed_pairImNS_4lessIN16BinarySearchTreeIiNS1_IiEEE16Tree_grid_squareEEEE6secondB8ue170006Ev, symObjAddr: 0xA074, symBinAddr: 0x10000C85C, symSize: 0x24 }
  - { offsetInCU: 0x1BA18, offset: 0x1BA18, size: 0x8, addend: 0x0, symName: __ZNSt3__122__compressed_pair_elemINS_4lessIN16BinarySearchTreeIiNS1_IiEEE16Tree_grid_squareEEELi1ELb1EE5__getB8ue170006Ev, symObjAddr: 0xA098, symBinAddr: 0x10000C880, symSize: 0x14 }
  - { offsetInCU: 0x1BA3E, offset: 0x1BA3E, size: 0x8, addend: 0x0, symName: __ZNK16BinarySearchTreeIiNSt3__14lessIiEEE16Tree_grid_squareltERKS4_, symObjAddr: 0xA0AC, symBinAddr: 0x10000C894, symSize: 0xB0 }
  - { offsetInCU: 0x1BA72, offset: 0x1BA72, size: 0x8, addend: 0x0, symName: __ZNSt3__16__treeIN16BinarySearchTreeIiNS_4lessIiEEE16Tree_grid_squareENS2_IS5_EENS_9allocatorIS5_EEE12__node_allocB8ue170006Ev, symObjAddr: 0xA15C, symBinAddr: 0x10000C944, symSize: 0x28 }
  - { offsetInCU: 0x1BA98, offset: 0x1BA98, size: 0x8, addend: 0x0, symName: __ZNSt3__116allocator_traitsINS_9allocatorINS_11__tree_nodeIN16BinarySearchTreeIiNS_4lessIiEEE16Tree_grid_squareEPvEEEEE8allocateB8ue170006ERSA_m, symObjAddr: 0xA184, symBinAddr: 0x10000C96C, symSize: 0x2C }
  - { offsetInCU: 0x1BACB, offset: 0x1BACB, size: 0x8, addend: 0x0, symName: __ZNSt3__122__tree_node_destructorINS_9allocatorINS_11__tree_nodeIN16BinarySearchTreeIiNS_4lessIiEEE16Tree_grid_squareEPvEEEEEC1B8ue170006ERSA_b, symObjAddr: 0xA1B0, symBinAddr: 0x10000C998, symSize: 0x48 }
  - { offsetInCU: 0x1BB19, offset: 0x1BB19, size: 0x8, addend: 0x0, symName: __ZNSt3__110unique_ptrINS_11__tree_nodeIN16BinarySearchTreeIiNS_4lessIiEEE16Tree_grid_squareEPvEENS_22__tree_node_destructorINS_9allocatorIS8_EEEEEC1B8ue170006ILb1EvEEPS8_NS_16__dependent_typeINS_27__unique_ptr_deleter_sfinaeISC_EEXT_EE20__good_rval_ref_typeE, symObjAddr: 0xA1F8, symBinAddr: 0x10000C9E0, symSize: 0x3C }
  - { offsetInCU: 0x1BB6A, offset: 0x1BB6A, size: 0x8, addend: 0x0, symName: __ZNSt3__116allocator_traitsINS_9allocatorINS_11__tree_nodeIN16BinarySearchTreeIiNS_4lessIiEEE16Tree_grid_squareEPvEEEEE9constructB8ue170006IS7_JS7_EvEEvRSA_PT_DpOT0_, symObjAddr: 0xA234, symBinAddr: 0x10000CA1C, symSize: 0x34 }
  - { offsetInCU: 0x1BBC1, offset: 0x1BBC1, size: 0x8, addend: 0x0, symName: __ZNSt3__122__tree_key_value_typesIN16BinarySearchTreeIiNS_4lessIiEEE16Tree_grid_squareEE9__get_ptrB8ue170006ERS5_, symObjAddr: 0xA268, symBinAddr: 0x10000CA50, symSize: 0x14 }
  - { offsetInCU: 0x1BBE5, offset: 0x1BBE5, size: 0x8, addend: 0x0, symName: __ZNKSt3__110unique_ptrINS_11__tree_nodeIN16BinarySearchTreeIiNS_4lessIiEEE16Tree_grid_squareEPvEENS_22__tree_node_destructorINS_9allocatorIS8_EEEEEptB8ue170006Ev, symObjAddr: 0xA27C, symBinAddr: 0x10000CA64, symSize: 0x28 }
  - { offsetInCU: 0x1BC0B, offset: 0x1BC0B, size: 0x8, addend: 0x0, symName: __ZNSt3__110unique_ptrINS_11__tree_nodeIN16BinarySearchTreeIiNS_4lessIiEEE16Tree_grid_squareEPvEENS_22__tree_node_destructorINS_9allocatorIS8_EEEEE11get_deleterB8ue170006Ev, symObjAddr: 0xA2A4, symBinAddr: 0x10000CA8C, symSize: 0x24 }
  - { offsetInCU: 0x1BC31, offset: 0x1BC31, size: 0x8, addend: 0x0, symName: __ZNSt3__117__compressed_pairINS_15__tree_end_nodeIPNS_16__tree_node_baseIPvEEEENS_9allocatorINS_11__tree_nodeIN16BinarySearchTreeIiNS_4lessIiEEE16Tree_grid_squareES3_EEEEE6secondB8ue170006Ev, symObjAddr: 0xA2C8, symBinAddr: 0x10000CAB0, symSize: 0x24 }
  - { offsetInCU: 0x1BC57, offset: 0x1BC57, size: 0x8, addend: 0x0, symName: __ZNSt3__122__compressed_pair_elemINS_9allocatorINS_11__tree_nodeIN16BinarySearchTreeIiNS_4lessIiEEE16Tree_grid_squareEPvEEEELi1ELb1EE5__getB8ue170006Ev, symObjAddr: 0xA2EC, symBinAddr: 0x10000CAD4, symSize: 0x14 }
  - { offsetInCU: 0x1BC7D, offset: 0x1BC7D, size: 0x8, addend: 0x0, symName: __ZNSt3__19allocatorINS_11__tree_nodeIN16BinarySearchTreeIiNS_4lessIiEEE16Tree_grid_squareEPvEEE8allocateB8ue170006Em, symObjAddr: 0xA300, symBinAddr: 0x10000CAE8, symSize: 0x58 }
  - { offsetInCU: 0x1BCBB, offset: 0x1BCBB, size: 0x8, addend: 0x0, symName: __ZNSt3__116allocator_traitsINS_9allocatorINS_11__tree_nodeIN16BinarySearchTreeIiNS_4lessIiEEE16Tree_grid_squareEPvEEEEE8max_sizeB8ue170006ISA_vEEmRKSA_, symObjAddr: 0xA358, symBinAddr: 0x10000CB40, symSize: 0x24 }
  - { offsetInCU: 0x1BCE9, offset: 0x1BCE9, size: 0x8, addend: 0x0, symName: __ZNKSt3__19allocatorINS_11__tree_nodeIN16BinarySearchTreeIiNS_4lessIiEEE16Tree_grid_squareEPvEEE8max_sizeB8ue170006Ev, symObjAddr: 0xA37C, symBinAddr: 0x10000CB64, symSize: 0x14 }
  - { offsetInCU: 0x1BD0F, offset: 0x1BD0F, size: 0x8, addend: 0x0, symName: __ZNSt3__122__tree_node_destructorINS_9allocatorINS_11__tree_nodeIN16BinarySearchTreeIiNS_4lessIiEEE16Tree_grid_squareEPvEEEEEC2B8ue170006ERSA_b, symObjAddr: 0xA390, symBinAddr: 0x10000CB78, symSize: 0x38 }
  - { offsetInCU: 0x1BD57, offset: 0x1BD57, size: 0x8, addend: 0x0, symName: __ZNSt3__110unique_ptrINS_11__tree_nodeIN16BinarySearchTreeIiNS_4lessIiEEE16Tree_grid_squareEPvEENS_22__tree_node_destructorINS_9allocatorIS8_EEEEEC2B8ue170006ILb1EvEEPS8_NS_16__dependent_typeINS_27__unique_ptr_deleter_sfinaeISC_EEXT_EE20__good_rval_ref_typeE, symObjAddr: 0xA3C8, symBinAddr: 0x10000CBB0, symSize: 0x48 }
  - { offsetInCU: 0x1BDA8, offset: 0x1BDA8, size: 0x8, addend: 0x0, symName: __ZNSt3__117__compressed_pairIPNS_11__tree_nodeIN16BinarySearchTreeIiNS_4lessIiEEE16Tree_grid_squareEPvEENS_22__tree_node_destructorINS_9allocatorIS8_EEEEEC1B8ue170006IRS9_SD_EEOT_OT0_, symObjAddr: 0xA410, symBinAddr: 0x10000CBF8, symSize: 0x3C }
  - { offsetInCU: 0x1BE00, offset: 0x1BE00, size: 0x8, addend: 0x0, symName: __ZNSt3__117__compressed_pairIPNS_11__tree_nodeIN16BinarySearchTreeIiNS_4lessIiEEE16Tree_grid_squareEPvEENS_22__tree_node_destructorINS_9allocatorIS8_EEEEEC2B8ue170006IRS9_SD_EEOT_OT0_, symObjAddr: 0xA44C, symBinAddr: 0x10000CC34, symSize: 0x48 }
  - { offsetInCU: 0x1BE58, offset: 0x1BE58, size: 0x8, addend: 0x0, symName: __ZNSt3__122__compressed_pair_elemIPNS_11__tree_nodeIN16BinarySearchTreeIiNS_4lessIiEEE16Tree_grid_squareEPvEELi0ELb0EEC2B8ue170006IRS9_vEEOT_, symObjAddr: 0xA494, symBinAddr: 0x10000CC7C, symSize: 0x24 }
  - { offsetInCU: 0x1BE9A, offset: 0x1BE9A, size: 0x8, addend: 0x0, symName: __ZNSt3__122__compressed_pair_elemINS_22__tree_node_destructorINS_9allocatorINS_11__tree_nodeIN16BinarySearchTreeIiNS_4lessIiEEE16Tree_grid_squareEPvEEEEEELi1ELb0EEC2B8ue170006ISC_vEEOT_, symObjAddr: 0xA4B8, symBinAddr: 0x10000CCA0, symSize: 0x24 }
  - { offsetInCU: 0x1BEDC, offset: 0x1BEDC, size: 0x8, addend: 0x0, symName: __ZNSt3__19allocatorINS_11__tree_nodeIN16BinarySearchTreeIiNS_4lessIiEEE16Tree_grid_squareEPvEEE9constructB8ue170006IS6_JS6_EEEvPT_DpOT0_, symObjAddr: 0xA4DC, symBinAddr: 0x10000CCC4, symSize: 0x30 }
  - { offsetInCU: 0x1BF32, offset: 0x1BF32, size: 0x8, addend: 0x0, symName: __ZN16BinarySearchTreeIiNSt3__14lessIiEEE16Tree_grid_squareC1EOS4_, symObjAddr: 0xA50C, symBinAddr: 0x10000CCF4, symSize: 0x34 }
  - { offsetInCU: 0x1BF68, offset: 0x1BF68, size: 0x8, addend: 0x0, symName: __ZN16BinarySearchTreeIiNSt3__14lessIiEEE16Tree_grid_squareC2EOS4_, symObjAddr: 0xA540, symBinAddr: 0x10000CD28, symSize: 0x48 }
  - { offsetInCU: 0x1BF9E, offset: 0x1BF9E, size: 0x8, addend: 0x0, symName: __ZNSt3__112basic_stringIcNS_11char_traitsIcEENS_9allocatorIcEEEC1B8ue170006EOS5_, symObjAddr: 0xA588, symBinAddr: 0x10000CD70, symSize: 0x34 }
  - { offsetInCU: 0x1BFD7, offset: 0x1BFD7, size: 0x8, addend: 0x0, symName: __ZNSt3__112basic_stringIcNS_11char_traitsIcEENS_9allocatorIcEEEC2B8ue170006EOS5_, symObjAddr: 0xA5BC, symBinAddr: 0x10000CDA4, symSize: 0x48 }
  - { offsetInCU: 0x1C010, offset: 0x1C010, size: 0x8, addend: 0x0, symName: __ZNKSt3__117__compressed_pairIPNS_11__tree_nodeIN16BinarySearchTreeIiNS_4lessIiEEE16Tree_grid_squareEPvEENS_22__tree_node_destructorINS_9allocatorIS8_EEEEE5firstB8ue170006Ev, symObjAddr: 0xA604, symBinAddr: 0x10000CDEC, symSize: 0x24 }
  - { offsetInCU: 0x1C036, offset: 0x1C036, size: 0x8, addend: 0x0, symName: __ZNKSt3__122__compressed_pair_elemIPNS_11__tree_nodeIN16BinarySearchTreeIiNS_4lessIiEEE16Tree_grid_squareEPvEELi0ELb0EE5__getB8ue170006Ev, symObjAddr: 0xA628, symBinAddr: 0x10000CE10, symSize: 0x14 }
  - { offsetInCU: 0x1C05C, offset: 0x1C05C, size: 0x8, addend: 0x0, symName: __ZNSt3__117__compressed_pairIPNS_11__tree_nodeIN16BinarySearchTreeIiNS_4lessIiEEE16Tree_grid_squareEPvEENS_22__tree_node_destructorINS_9allocatorIS8_EEEEE6secondB8ue170006Ev, symObjAddr: 0xA63C, symBinAddr: 0x10000CE24, symSize: 0x28 }
  - { offsetInCU: 0x1C082, offset: 0x1C082, size: 0x8, addend: 0x0, symName: __ZNSt3__122__compressed_pair_elemINS_22__tree_node_destructorINS_9allocatorINS_11__tree_nodeIN16BinarySearchTreeIiNS_4lessIiEEE16Tree_grid_squareEPvEEEEEELi1ELb0EE5__getB8ue170006Ev, symObjAddr: 0xA664, symBinAddr: 0x10000CE4C, symSize: 0x14 }
  - { offsetInCU: 0x1C0A8, offset: 0x1C0A8, size: 0x8, addend: 0x0, symName: __ZNSt3__16__treeIN16BinarySearchTreeIiNS_4lessIiEEE16Tree_grid_squareENS2_IS5_EENS_9allocatorIS5_EEE4sizeB8ue170006Ev, symObjAddr: 0xA9A4, symBinAddr: 0x10000D18C, symSize: 0x28 }
  - { offsetInCU: 0x1C0CE, offset: 0x1C0CE, size: 0x8, addend: 0x0, symName: __ZNKSt3__116__tree_node_baseIPvE15__parent_unsafeB8ue170006Ev, symObjAddr: 0xA9CC, symBinAddr: 0x10000D1B4, symSize: 0x18 }
  - { offsetInCU: 0x1C0F4, offset: 0x1C0F4, size: 0x8, addend: 0x0, symName: __ZNSt3__116__tree_node_baseIPvE12__set_parentB8ue170006EPS2_, symObjAddr: 0xABB4, symBinAddr: 0x10000D39C, symSize: 0x20 }
  - { offsetInCU: 0x1C129, offset: 0x1C129, size: 0x8, addend: 0x0, symName: __ZNSt3__117__compressed_pairImNS_4lessIN16BinarySearchTreeIiNS1_IiEEE16Tree_grid_squareEEEE5firstB8ue170006Ev, symObjAddr: 0xABD4, symBinAddr: 0x10000D3BC, symSize: 0x24 }
  - { offsetInCU: 0x1C14F, offset: 0x1C14F, size: 0x8, addend: 0x0, symName: __ZNSt3__117__compressed_pairIPNS_11__tree_nodeIN16BinarySearchTreeIiNS_4lessIiEEE16Tree_grid_squareEPvEENS_22__tree_node_destructorINS_9allocatorIS8_EEEEE5firstB8ue170006Ev, symObjAddr: 0xABF8, symBinAddr: 0x10000D3E0, symSize: 0x24 }
  - { offsetInCU: 0x1C175, offset: 0x1C175, size: 0x8, addend: 0x0, symName: __ZNSt3__122__compressed_pair_elemIPNS_11__tree_nodeIN16BinarySearchTreeIiNS_4lessIiEEE16Tree_grid_squareEPvEELi0ELb0EE5__getB8ue170006Ev, symObjAddr: 0xAC1C, symBinAddr: 0x10000D404, symSize: 0x14 }
  - { offsetInCU: 0x1C19B, offset: 0x1C19B, size: 0x8, addend: 0x0, symName: __ZNSt3__110unique_ptrINS_11__tree_nodeIN16BinarySearchTreeIiNS_4lessIiEEE16Tree_grid_squareEPvEENS_22__tree_node_destructorINS_9allocatorIS8_EEEEED2B8ue170006Ev, symObjAddr: 0xAC30, symBinAddr: 0x10000D418, symSize: 0x30 }
  - { offsetInCU: 0x1C1C5, offset: 0x1C1C5, size: 0x8, addend: 0x0, symName: __ZNSt3__110unique_ptrINS_11__tree_nodeIN16BinarySearchTreeIiNS_4lessIiEEE16Tree_grid_squareEPvEENS_22__tree_node_destructorINS_9allocatorIS8_EEEEE5resetB8ue170006EPS8_, symObjAddr: 0xAC60, symBinAddr: 0x10000D448, symSize: 0x78 }
  - { offsetInCU: 0x1C209, offset: 0x1C209, size: 0x8, addend: 0x0, symName: __ZNSt3__122__tree_node_destructorINS_9allocatorINS_11__tree_nodeIN16BinarySearchTreeIiNS_4lessIiEEE16Tree_grid_squareEPvEEEEEclB8ue170006EPS9_, symObjAddr: 0xACD8, symBinAddr: 0x10000D4C0, symSize: 0x90 }
  - { offsetInCU: 0x1C23E, offset: 0x1C23E, size: 0x8, addend: 0x0, symName: __ZNSt3__116allocator_traitsINS_9allocatorINS_11__tree_nodeIN16BinarySearchTreeIiNS_4lessIiEEE16Tree_grid_squareEPvEEEEE7destroyB8ue170006IS7_vvEEvRSA_PT_, symObjAddr: 0xAD68, symBinAddr: 0x10000D550, symSize: 0x28 }
  - { offsetInCU: 0x1C279, offset: 0x1C279, size: 0x8, addend: 0x0, symName: __ZNSt3__116allocator_traitsINS_9allocatorINS_11__tree_nodeIN16BinarySearchTreeIiNS_4lessIiEEE16Tree_grid_squareEPvEEEEE10deallocateB8ue170006ERSA_PS9_m, symObjAddr: 0xAD90, symBinAddr: 0x10000D578, symSize: 0x34 }
  - { offsetInCU: 0x1C2BB, offset: 0x1C2BB, size: 0x8, addend: 0x0, symName: __ZNSt3__19allocatorINS_11__tree_nodeIN16BinarySearchTreeIiNS_4lessIiEEE16Tree_grid_squareEPvEEE10deallocateB8ue170006EPS8_m, symObjAddr: 0xADC4, symBinAddr: 0x10000D5AC, symSize: 0x40 }
  - { offsetInCU: 0x1C2FD, offset: 0x1C2FD, size: 0x8, addend: 0x0, symName: __ZNSt3__115__tree_iteratorIN16BinarySearchTreeIiNS_4lessIiEEE16Tree_grid_squareEPNS_11__tree_nodeIS5_PvEElEC2B8ue170006ES9_, symObjAddr: 0xAE04, symBinAddr: 0x10000D5EC, symSize: 0x20 }
  - { offsetInCU: 0x1C336, offset: 0x1C336, size: 0x8, addend: 0x0, symName: __ZNSt3__14pairINS_15__tree_iteratorIN16BinarySearchTreeIiNS_4lessIiEEE16Tree_grid_squareEPNS_11__tree_nodeIS6_PvEElEEbEC2B8ue170006ISB_RbLS8_0EEEOT_OT0_, symObjAddr: 0xAE24, symBinAddr: 0x10000D60C, symSize: 0x38 }
  - { offsetInCU: 0x1C394, offset: 0x1C394, size: 0x8, addend: 0x0, symName: __ZNSt3__14pairINS_21__tree_const_iteratorIN16BinarySearchTreeIiNS_4lessIiEEE16Tree_grid_squareEPNS_11__tree_nodeIS6_PvEElEEbEC2B8ue170006INS_15__tree_iteratorIS6_SA_lEEbLS8_0EEEONS0_IT_T0_EE, symObjAddr: 0xAE5C, symBinAddr: 0x10000D644, symSize: 0x50 }
  - { offsetInCU: 0x1C3E5, offset: 0x1C3E5, size: 0x8, addend: 0x0, symName: __ZNSt3__121__tree_const_iteratorIN16BinarySearchTreeIiNS_4lessIiEEE16Tree_grid_squareEPNS_11__tree_nodeIS5_PvEElEC1B8ue170006ENS_15__tree_iteratorIS5_S9_lEE, symObjAddr: 0xAEAC, symBinAddr: 0x10000D694, symSize: 0x34 }
  - { offsetInCU: 0x1C41E, offset: 0x1C41E, size: 0x8, addend: 0x0, symName: __ZNSt3__121__tree_const_iteratorIN16BinarySearchTreeIiNS_4lessIiEEE16Tree_grid_squareEPNS_11__tree_nodeIS5_PvEElEC2B8ue170006ENS_15__tree_iteratorIS5_S9_lEE, symObjAddr: 0xAEE0, symBinAddr: 0x10000D6C8, symSize: 0x20 }
  - { offsetInCU: 0x1C457, offset: 0x1C457, size: 0x8, addend: 0x0, symName: __ZN16BinarySearchTreeIiNSt3__14lessIiEEE16Tree_grid_squareC2IiEEiiT_, symObjAddr: 0xAF00, symBinAddr: 0x10000D6E8, symSize: 0xE4 }
  - { offsetInCU: 0x1C4C9, offset: 0x1C4C9, size: 0x8, addend: 0x0, symName: __ZN16BinarySearchTreeIiNSt3__14lessIiEEE16Tree_grid_squareC2IPKcEEiiT_, symObjAddr: 0xB028, symBinAddr: 0x10000D810, symSize: 0xE4 }
  - { offsetInCU: 0x1C53B, offset: 0x1C53B, size: 0x8, addend: 0x0, symName: __ZNSt3__16__treeIN16BinarySearchTreeIiNS_4lessIiEEE16Tree_grid_squareENS2_IS5_EENS_9allocatorIS5_EEE4findIS5_EENS_15__tree_iteratorIS5_PNS_11__tree_nodeIS5_PvEElEERKT_, symObjAddr: 0xB10C, symBinAddr: 0x10000D8F4, symSize: 0xF8 }
  - { offsetInCU: 0x1C58A, offset: 0x1C58A, size: 0x8, addend: 0x0, symName: __ZNSt3__16__treeIN16BinarySearchTreeIiNS_4lessIiEEE16Tree_grid_squareENS2_IS5_EENS_9allocatorIS5_EEE13__lower_boundIS5_EENS_15__tree_iteratorIS5_PNS_11__tree_nodeIS5_PvEElEERKT_SF_PNS_15__tree_end_nodeIPNS_16__tree_node_baseISD_EEEE, symObjAddr: 0xB204, symBinAddr: 0x10000D9EC, symSize: 0xA4 }
  - { offsetInCU: 0x1C5E8, offset: 0x1C5E8, size: 0x8, addend: 0x0, symName: __ZNSt3__16__treeIN16BinarySearchTreeIiNS_4lessIiEEE16Tree_grid_squareENS2_IS5_EENS_9allocatorIS5_EEE3endB8ue170006Ev, symObjAddr: 0xB2DC, symBinAddr: 0x10000DAC4, symSize: 0x34 }
  - { offsetInCU: 0x1C60E, offset: 0x1C60E, size: 0x8, addend: 0x0, symName: __ZNKSt3__115__tree_iteratorIN16BinarySearchTreeIiNS_4lessIiEEE16Tree_grid_squareEPNS_11__tree_nodeIS5_PvEElEdeB8ue170006Ev, symObjAddr: 0xB310, symBinAddr: 0x10000DAF8, symSize: 0x28 }
  - { offsetInCU: 0x1C634, offset: 0x1C634, size: 0x8, addend: 0x0, symName: __ZNSt3__115__tree_iteratorIN16BinarySearchTreeIiNS_4lessIiEEE16Tree_grid_squareEPNS_11__tree_nodeIS5_PvEElEC1B8ue170006EPNS_15__tree_end_nodeIPNS_16__tree_node_baseIS7_EEEE, symObjAddr: 0xB338, symBinAddr: 0x10000DB20, symSize: 0x34 }
  - { offsetInCU: 0x1C66D, offset: 0x1C66D, size: 0x8, addend: 0x0, symName: __ZNSt3__115__tree_iteratorIN16BinarySearchTreeIiNS_4lessIiEEE16Tree_grid_squareEPNS_11__tree_nodeIS5_PvEElEC2B8ue170006EPNS_15__tree_end_nodeIPNS_16__tree_node_baseIS7_EEEE, symObjAddr: 0xB36C, symBinAddr: 0x10000DB54, symSize: 0x20 }
  - { offsetInCU: 0x1C6A6, offset: 0x1C6A6, size: 0x8, addend: 0x0, symName: __ZNKSt3__115__tree_iteratorIN16BinarySearchTreeIiNS_4lessIiEEE16Tree_grid_squareEPNS_11__tree_nodeIS5_PvEElE8__get_npB8ue170006Ev, symObjAddr: 0xB3BC, symBinAddr: 0x10000DBA4, symSize: 0x18 }
  - { offsetInCU: 0x1C6CC, offset: 0x1C6CC, size: 0x8, addend: 0x0, symName: __ZNSt3__16__treeIN16BinarySearchTreeIiNS_4lessIiEEE16Tree_grid_squareENS2_IS5_EENS_9allocatorIS5_EEE5eraseENS_21__tree_const_iteratorIS5_PNS_11__tree_nodeIS5_PvEElEE, symObjAddr: 0xB404, symBinAddr: 0x10000DBEC, symSize: 0x98 }
  - { offsetInCU: 0x1C730, offset: 0x1C730, size: 0x8, addend: 0x0, symName: __ZNKSt3__121__tree_const_iteratorIN16BinarySearchTreeIiNS_4lessIiEEE16Tree_grid_squareEPNS_11__tree_nodeIS5_PvEElE8__get_npB8ue170006Ev, symObjAddr: 0xB49C, symBinAddr: 0x10000DC84, symSize: 0x18 }
  - { offsetInCU: 0x1C756, offset: 0x1C756, size: 0x8, addend: 0x0, symName: __ZNSt3__16__treeIN16BinarySearchTreeIiNS_4lessIiEEE16Tree_grid_squareENS2_IS5_EENS_9allocatorIS5_EEE21__remove_node_pointerEPNS_11__tree_nodeIS5_PvEE, symObjAddr: 0xB4B4, symBinAddr: 0x10000DC9C, symSize: 0xB4 }
  - { offsetInCU: 0x1C79C, offset: 0x1C79C, size: 0x8, addend: 0x0, symName: __ZNKSt3__121__tree_const_iteratorIN16BinarySearchTreeIiNS_4lessIiEEE16Tree_grid_squareEPNS_11__tree_nodeIS5_PvEElEdeB8ue170006Ev, symObjAddr: 0xB568, symBinAddr: 0x10000DD50, symSize: 0x28 }
  - { offsetInCU: 0x1C7C2, offset: 0x1C7C2, size: 0x8, addend: 0x0, symName: __ZNSt3__115__tree_iteratorIN16BinarySearchTreeIiNS_4lessIiEEE16Tree_grid_squareEPNS_11__tree_nodeIS5_PvEElEppB8ue170006Ev, symObjAddr: 0xB590, symBinAddr: 0x10000DD78, symSize: 0x38 }
  - { offsetInCU: 0x1C7E8, offset: 0x1C7E8, size: 0x8, addend: 0x0, symName: __ZNSt3__16__treeIN16BinarySearchTreeIiNS_4lessIiEEE16Tree_grid_squareENS2_IS5_EENS_9allocatorIS5_EEE15__insert_uniqueB8ue170006ERKS5_, symObjAddr: 0xBDE8, symBinAddr: 0x10000E5D0, symSize: 0x50 }
  - { offsetInCU: 0x1C81D, offset: 0x1C81D, size: 0x8, addend: 0x0, symName: __ZNSt3__16__treeIN16BinarySearchTreeIiNS_4lessIiEEE16Tree_grid_squareENS2_IS5_EENS_9allocatorIS5_EEE25__emplace_unique_key_argsIS5_JRKS5_EEENS_4pairINS_15__tree_iteratorIS5_PNS_11__tree_nodeIS5_PvEElEEbEERKT_DpOT0_, symObjAddr: 0xBE38, symBinAddr: 0x10000E620, symSize: 0xF0 }
  - { offsetInCU: 0x1C8C9, offset: 0x1C8C9, size: 0x8, addend: 0x0, symName: __ZNSt3__16__treeIN16BinarySearchTreeIiNS_4lessIiEEE16Tree_grid_squareENS2_IS5_EENS_9allocatorIS5_EEE16__construct_nodeIJRKS5_EEENS_10unique_ptrINS_11__tree_nodeIS5_PvEENS_22__tree_node_destructorINS7_ISG_EEEEEEDpOT_, symObjAddr: 0xBF28, symBinAddr: 0x10000E710, symSize: 0x108 }
  - { offsetInCU: 0x1C92A, offset: 0x1C92A, size: 0x8, addend: 0x0, symName: __ZNSt3__116allocator_traitsINS_9allocatorINS_11__tree_nodeIN16BinarySearchTreeIiNS_4lessIiEEE16Tree_grid_squareEPvEEEEE9constructB8ue170006IS7_JRKS7_EvEEvRSA_PT_DpOT0_, symObjAddr: 0xC030, symBinAddr: 0x10000E818, symSize: 0x34 }
  - { offsetInCU: 0x1C981, offset: 0x1C981, size: 0x8, addend: 0x0, symName: __ZNSt3__19allocatorINS_11__tree_nodeIN16BinarySearchTreeIiNS_4lessIiEEE16Tree_grid_squareEPvEEE9constructB8ue170006IS6_JRKS6_EEEvPT_DpOT0_, symObjAddr: 0xC064, symBinAddr: 0x10000E84C, symSize: 0x30 }
  - { offsetInCU: 0x1C9D7, offset: 0x1C9D7, size: 0x8, addend: 0x0, symName: __ZN16BinarySearchTreeIiNSt3__14lessIiEEE16Tree_grid_squareC1ERKS4_, symObjAddr: 0xC094, symBinAddr: 0x10000E87C, symSize: 0x34 }
  - { offsetInCU: 0x1CA0D, offset: 0x1CA0D, size: 0x8, addend: 0x0, symName: __ZN16BinarySearchTreeIiNSt3__14lessIiEEE16Tree_grid_squareC2ERKS4_, symObjAddr: 0xC0C8, symBinAddr: 0x10000E8B0, symSize: 0x48 }
  - { offsetInCU: 0x1CA43, offset: 0x1CA43, size: 0x8, addend: 0x0, symName: __ZNSt3__13setIN16BinarySearchTreeIiNS_4lessIiEEE16Tree_grid_squareENS2_IS5_EENS_9allocatorIS5_EEED2B8ue170006Ev, symObjAddr: 0xC110, symBinAddr: 0x10000E8F8, symSize: 0x2C }
  - { offsetInCU: 0x1CA6D, offset: 0x1CA6D, size: 0x8, addend: 0x0, symName: __ZNSt3__16__treeIN16BinarySearchTreeIiNS_4lessIiEEE16Tree_grid_squareENS2_IS5_EENS_9allocatorIS5_EEED1Ev, symObjAddr: 0xC13C, symBinAddr: 0x10000E924, symSize: 0x2C }
  - { offsetInCU: 0x1CA99, offset: 0x1CA99, size: 0x8, addend: 0x0, symName: __ZNSt3__16__treeIN16BinarySearchTreeIiNS_4lessIiEEE16Tree_grid_squareENS2_IS5_EENS_9allocatorIS5_EEED2Ev, symObjAddr: 0xC168, symBinAddr: 0x10000E950, symSize: 0x38 }
  - { offsetInCU: 0x1CAC5, offset: 0x1CAC5, size: 0x8, addend: 0x0, symName: __ZNSt3__16__treeIN16BinarySearchTreeIiNS_4lessIiEEE16Tree_grid_squareENS2_IS5_EENS_9allocatorIS5_EEE7destroyEPNS_11__tree_nodeIS5_PvEE, symObjAddr: 0xC1A0, symBinAddr: 0x10000E988, symSize: 0x9C }
  - { offsetInCU: 0x1CB19, offset: 0x1CB19, size: 0x8, addend: 0x0, symName: __ZNSt3__19basic_iosIcNS_11char_traitsIcEEEC2B8ue170006Ev, symObjAddr: 0xC23C, symBinAddr: 0x10000EA24, symSize: 0x44 }
  - { offsetInCU: 0x1CB43, offset: 0x1CB43, size: 0x8, addend: 0x0, symName: __ZNSt3__113basic_ostreamIcNS_11char_traitsIcEEEC2B8ue170006EPNS_15basic_streambufIcS2_EE, symObjAddr: 0xC280, symBinAddr: 0x10000EA68, symSize: 0x60 }
  - { offsetInCU: 0x1CB88, offset: 0x1CB88, size: 0x8, addend: 0x0, symName: __ZNSt3__115basic_stringbufIcNS_11char_traitsIcEENS_9allocatorIcEEEC1B8ue170006Ej, symObjAddr: 0xC2E0, symBinAddr: 0x10000EAC8, symSize: 0x34 }
  - { offsetInCU: 0x1CBC1, offset: 0x1CBC1, size: 0x8, addend: 0x0, symName: __ZNSt3__18ios_baseC2B8ue170006Ev, symObjAddr: 0xC314, symBinAddr: 0x10000EAFC, symSize: 0x24 }
  - { offsetInCU: 0x1CBEB, offset: 0x1CBEB, size: 0x8, addend: 0x0, symName: __ZNSt3__19basic_iosIcNS_11char_traitsIcEEE4initB8ue170006EPNS_15basic_streambufIcS2_EE, symObjAddr: 0xC338, symBinAddr: 0x10000EB20, symSize: 0x44 }
  - { offsetInCU: 0x1CC22, offset: 0x1CC22, size: 0x8, addend: 0x0, symName: __ZNSt3__115basic_stringbufIcNS_11char_traitsIcEENS_9allocatorIcEEEC2B8ue170006Ej, symObjAddr: 0xC37C, symBinAddr: 0x10000EB64, symSize: 0x60 }
  - { offsetInCU: 0x1CC5B, offset: 0x1CC5B, size: 0x8, addend: 0x0, symName: __ZNKSt3__13setIN16BinarySearchTreeIiNS_4lessIiEEE16Tree_grid_squareENS2_IS5_EENS_9allocatorIS5_EEE4findB8ue170006ERKS5_, symObjAddr: 0xC3DC, symBinAddr: 0x10000EBC4, symSize: 0x34 }
  - { offsetInCU: 0x1CC90, offset: 0x1CC90, size: 0x8, addend: 0x0, symName: __ZNKSt3__13setIN16BinarySearchTreeIiNS_4lessIiEEE16Tree_grid_squareENS2_IS5_EENS_9allocatorIS5_EEE3endB8ue170006Ev, symObjAddr: 0xC410, symBinAddr: 0x10000EBF8, symSize: 0x2C }
  - { offsetInCU: 0x1CCB6, offset: 0x1CCB6, size: 0x8, addend: 0x0, symName: __ZNKSt3__16__treeIN16BinarySearchTreeIiNS_4lessIiEEE16Tree_grid_squareENS2_IS5_EENS_9allocatorIS5_EEE4findIS5_EENS_21__tree_const_iteratorIS5_PNS_11__tree_nodeIS5_PvEElEERKT_, symObjAddr: 0xC43C, symBinAddr: 0x10000EC24, symSize: 0xF8 }
  - { offsetInCU: 0x1CD05, offset: 0x1CD05, size: 0x8, addend: 0x0, symName: __ZNKSt3__16__treeIN16BinarySearchTreeIiNS_4lessIiEEE16Tree_grid_squareENS2_IS5_EENS_9allocatorIS5_EEE13__lower_boundIS5_EENS_21__tree_const_iteratorIS5_PNS_11__tree_nodeIS5_PvEElEERKT_SF_PNS_15__tree_end_nodeIPNS_16__tree_node_baseISD_EEEE, symObjAddr: 0xC534, symBinAddr: 0x10000ED1C, symSize: 0xA4 }
  - { offsetInCU: 0x1CD63, offset: 0x1CD63, size: 0x8, addend: 0x0, symName: __ZNKSt3__16__treeIN16BinarySearchTreeIiNS_4lessIiEEE16Tree_grid_squareENS2_IS5_EENS_9allocatorIS5_EEE3endB8ue170006Ev, symObjAddr: 0xC5D8, symBinAddr: 0x10000EDC0, symSize: 0x34 }
  - { offsetInCU: 0x1CD89, offset: 0x1CD89, size: 0x8, addend: 0x0, symName: __ZNKSt3__16__treeIN16BinarySearchTreeIiNS_4lessIiEEE16Tree_grid_squareENS2_IS5_EENS_9allocatorIS5_EEE10value_compB8ue170006Ev, symObjAddr: 0xC60C, symBinAddr: 0x10000EDF4, symSize: 0x28 }
  - { offsetInCU: 0x1CDAF, offset: 0x1CDAF, size: 0x8, addend: 0x0, symName: __ZNSt3__121__tree_const_iteratorIN16BinarySearchTreeIiNS_4lessIiEEE16Tree_grid_squareEPNS_11__tree_nodeIS5_PvEElEC1B8ue170006EPNS_15__tree_end_nodeIPNS_16__tree_node_baseIS7_EEEE, symObjAddr: 0xC634, symBinAddr: 0x10000EE1C, symSize: 0x34 }
  - { offsetInCU: 0x1CDE8, offset: 0x1CDE8, size: 0x8, addend: 0x0, symName: __ZNSt3__121__tree_const_iteratorIN16BinarySearchTreeIiNS_4lessIiEEE16Tree_grid_squareEPNS_11__tree_nodeIS5_PvEElEC2B8ue170006EPNS_15__tree_end_nodeIPNS_16__tree_node_baseIS7_EEEE, symObjAddr: 0xC668, symBinAddr: 0x10000EE50, symSize: 0x20 }
  - { offsetInCU: 0x1CE21, offset: 0x1CE21, size: 0x8, addend: 0x0, symName: __ZNKSt3__117__compressed_pairImNS_4lessIN16BinarySearchTreeIiNS1_IiEEE16Tree_grid_squareEEEE6secondB8ue170006Ev, symObjAddr: 0xC688, symBinAddr: 0x10000EE70, symSize: 0x24 }
  - { offsetInCU: 0x1CE47, offset: 0x1CE47, size: 0x8, addend: 0x0, symName: __ZNKSt3__122__compressed_pair_elemINS_4lessIN16BinarySearchTreeIiNS1_IiEEE16Tree_grid_squareEEELi1ELb1EE5__getB8ue170006Ev, symObjAddr: 0xC6AC, symBinAddr: 0x10000EE94, symSize: 0x14 }
  - { offsetInCU: 0x1CE6D, offset: 0x1CE6D, size: 0x8, addend: 0x0, symName: __ZN16BinarySearchTreeIiNSt3__14lessIiEEE16Tree_grid_squareC2Eii, symObjAddr: 0xC6C0, symBinAddr: 0x10000EEA8, symSize: 0x48 }
  - { offsetInCU: 0x1CEB3, offset: 0x1CEB3, size: 0x8, addend: 0x0, symName: __ZN16BinarySearchTreeIiNSt3__14lessIiEEE16Tree_grid_squareD2Ev, symObjAddr: 0xC708, symBinAddr: 0x10000EEF0, symSize: 0x30 }
  - { offsetInCU: 0x1CEE0, offset: 0x1CEE0, size: 0x8, addend: 0x0, symName: __ZNSt3__18ios_base4setfB8ue170006Ejj, symObjAddr: 0xC738, symBinAddr: 0x10000EF20, symSize: 0x5C }
  - { offsetInCU: 0x1CF35, offset: 0x1CF35, size: 0x8, addend: 0x0, symName: __ZNSt3__18ios_base6unsetfB8ue170006Ej, symObjAddr: 0xC794, symBinAddr: 0x10000EF7C, symSize: 0x28 }
  - { offsetInCU: 0x1CF6C, offset: 0x1CF6C, size: 0x8, addend: 0x0, symName: __ZNSt3__18__iom_t6C1B8ue170006Ei, symObjAddr: 0xC7BC, symBinAddr: 0x10000EFA4, symSize: 0x34 }
  - { offsetInCU: 0x1CFA4, offset: 0x1CFA4, size: 0x8, addend: 0x0, symName: __ZNSt3__18__iom_t6C2B8ue170006Ei, symObjAddr: 0xC7F0, symBinAddr: 0x10000EFD8, symSize: 0x20 }
  - { offsetInCU: 0x1CFDC, offset: 0x1CFDC, size: 0x8, addend: 0x0, symName: __ZNSt3__119basic_ostringstreamIcNS_11char_traitsIcEENS_9allocatorIcEEED2Ev, symObjAddr: 0xC810, symBinAddr: 0x10000EFF8, symSize: 0x64 }
  - { offsetInCU: 0x1D016, offset: 0x1D016, size: 0x8, addend: 0x0, symName: __ZTv0_n24_NSt3__119basic_ostringstreamIcNS_11char_traitsIcEENS_9allocatorIcEEED1Ev, symObjAddr: 0xC874, symBinAddr: 0x10000F05C, symSize: 0x28 }
  - { offsetInCU: 0x1D032, offset: 0x1D032, size: 0x8, addend: 0x0, symName: __ZNSt3__115basic_stringbufIcNS_11char_traitsIcEENS_9allocatorIcEEED1Ev, symObjAddr: 0xC89C, symBinAddr: 0x10000F084, symSize: 0x2C }
  - { offsetInCU: 0x1D05F, offset: 0x1D05F, size: 0x8, addend: 0x0, symName: __ZNSt3__115basic_stringbufIcNS_11char_traitsIcEENS_9allocatorIcEEED2Ev, symObjAddr: 0xC8C8, symBinAddr: 0x10000F0B0, symSize: 0x48 }
  - { offsetInCU: 0x1D08C, offset: 0x1D08C, size: 0x8, addend: 0x0, symName: __ZN16BinarySearchTreeIiNSt3__14lessIiEEE9Tree_gridD2Ev, symObjAddr: 0xC910, symBinAddr: 0x10000F0F8, symSize: 0x2C }
  - { offsetInCU: 0x1D0B9, offset: 0x1D0B9, size: 0x8, addend: 0x0, symName: __ZNSt3__112basic_stringIcNS_11char_traitsIcEENS_9allocatorIcEEE13__move_assignB8ue170006ERS5_NS_17integral_constantIbLb1EEE, symObjAddr: 0xC93C, symBinAddr: 0x10000F124, symSize: 0xC8 }
  - { offsetInCU: 0x1D0FC, offset: 0x1D0FC, size: 0x8, addend: 0x0, symName: __ZNSt3__116allocator_traitsINS_9allocatorIcEEE10deallocateB8ue170006ERS2_Pcm, symObjAddr: 0xCA04, symBinAddr: 0x10000F1EC, symSize: 0x34 }
  - { offsetInCU: 0x1D13E, offset: 0x1D13E, size: 0x8, addend: 0x0, symName: __ZNSt3__112basic_stringIcNS_11char_traitsIcEENS_9allocatorIcEEE7__allocB8ue170006Ev, symObjAddr: 0xCA38, symBinAddr: 0x10000F220, symSize: 0x24 }
  - { offsetInCU: 0x1D164, offset: 0x1D164, size: 0x8, addend: 0x0, symName: __ZNKSt3__112basic_stringIcNS_11char_traitsIcEENS_9allocatorIcEEE14__get_long_capB8ue170006Ev, symObjAddr: 0xCA5C, symBinAddr: 0x10000F244, symSize: 0x30 }
  - { offsetInCU: 0x1D18A, offset: 0x1D18A, size: 0x8, addend: 0x0, symName: __ZNSt3__112basic_stringIcNS_11char_traitsIcEENS_9allocatorIcEEE19__move_assign_allocB8ue170006ERS5_, symObjAddr: 0xCA8C, symBinAddr: 0x10000F274, symSize: 0x2C }
  - { offsetInCU: 0x1D1BF, offset: 0x1D1BF, size: 0x8, addend: 0x0, symName: __ZNSt3__112basic_stringIcNS_11char_traitsIcEENS_9allocatorIcEEE16__set_short_sizeB8ue170006Em, symObjAddr: 0xCAB8, symBinAddr: 0x10000F2A0, symSize: 0x78 }
  - { offsetInCU: 0x1D1F4, offset: 0x1D1F4, size: 0x8, addend: 0x0, symName: __ZNSt3__111char_traitsIcE6assignB8ue170006ERcRKc, symObjAddr: 0xCB30, symBinAddr: 0x10000F318, symSize: 0x24 }
  - { offsetInCU: 0x1D225, offset: 0x1D225, size: 0x8, addend: 0x0, symName: __ZNSt3__19allocatorIcE10deallocateB8ue170006EPcm, symObjAddr: 0xCB54, symBinAddr: 0x10000F33C, symSize: 0x40 }
  - { offsetInCU: 0x1D267, offset: 0x1D267, size: 0x8, addend: 0x0, symName: __ZNSt3__117__compressed_pairINS_12basic_stringIcNS_11char_traitsIcEENS_9allocatorIcEEE5__repES5_E6secondB8ue170006Ev, symObjAddr: 0xCB94, symBinAddr: 0x10000F37C, symSize: 0x24 }
  - { offsetInCU: 0x1D28D, offset: 0x1D28D, size: 0x8, addend: 0x0, symName: __ZNSt3__122__compressed_pair_elemINS_9allocatorIcEELi1ELb1EE5__getB8ue170006Ev, symObjAddr: 0xCBB8, symBinAddr: 0x10000F3A0, symSize: 0x14 }
  - { offsetInCU: 0x1D2B3, offset: 0x1D2B3, size: 0x8, addend: 0x0, symName: __ZNSt3__112basic_stringIcNS_11char_traitsIcEENS_9allocatorIcEEE19__move_assign_allocB8ue170006ERS5_NS_17integral_constantIbLb1EEE, symObjAddr: 0xCBCC, symBinAddr: 0x10000F3B4, symSize: 0x38 }
  - { offsetInCU: 0x1D2F4, offset: 0x1D2F4, size: 0x8, addend: 0x0, symName: __ZNK16BinarySearchTreeI4Duck14DuckWealthLessE17get_max_elt_widthEv, symObjAddr: 0xCC04, symBinAddr: 0x10000F3EC, symSize: 0x1AC }
  - { offsetInCU: 0x1D49E, offset: 0x1D49E, size: 0x8, addend: 0x0, symName: __ZN16BinarySearchTreeI4Duck14DuckWealthLessE9Tree_gridC1ERKS2_, symObjAddr: 0xCDB0, symBinAddr: 0x10000F598, symSize: 0x34 }
  - { offsetInCU: 0x1D4D6, offset: 0x1D4D6, size: 0x8, addend: 0x0, symName: __ZNK16BinarySearchTreeI4Duck14DuckWealthLessE9Tree_grid14get_leftmost_xEv, symObjAddr: 0xCDE4, symBinAddr: 0x10000F5CC, symSize: 0x18 }
  - { offsetInCU: 0x1D4FC, offset: 0x1D4FC, size: 0x8, addend: 0x0, symName: __ZNK16BinarySearchTreeI4Duck14DuckWealthLessE9Tree_grid15get_rightmost_xEv, symObjAddr: 0xCDFC, symBinAddr: 0x10000F5E4, symSize: 0x18 }
  - { offsetInCU: 0x1D522, offset: 0x1D522, size: 0x8, addend: 0x0, symName: __ZNK16BinarySearchTreeI4Duck14DuckWealthLessE9Tree_grid14get_num_levelsEv, symObjAddr: 0xCE14, symBinAddr: 0x10000F5FC, symSize: 0x18 }
  - { offsetInCU: 0x1D548, offset: 0x1D548, size: 0x8, addend: 0x0, symName: __ZNK16BinarySearchTreeI4Duck14DuckWealthLessE9Tree_grid4findERKNS2_16Tree_grid_squareE, symObjAddr: 0xCE2C, symBinAddr: 0x10000F614, symSize: 0x80 }
  - { offsetInCU: 0x1D58A, offset: 0x1D58A, size: 0x8, addend: 0x0, symName: __ZN16BinarySearchTreeI4Duck14DuckWealthLessE16Tree_grid_squareC1Eii, symObjAddr: 0xCEAC, symBinAddr: 0x10000F694, symSize: 0x3C }
  - { offsetInCU: 0x1D5D0, offset: 0x1D5D0, size: 0x8, addend: 0x0, symName: __ZN16BinarySearchTreeI4Duck14DuckWealthLessE16Tree_grid_squareD1Ev, symObjAddr: 0xCEE8, symBinAddr: 0x10000F6D0, symSize: 0x2C }
  - { offsetInCU: 0x1D5FD, offset: 0x1D5FD, size: 0x8, addend: 0x0, symName: __ZNK16BinarySearchTreeI4Duck14DuckWealthLessE16Tree_grid_square9get_valueEv, symObjAddr: 0xCF14, symBinAddr: 0x10000F6FC, symSize: 0x3C }
  - { offsetInCU: 0x1D623, offset: 0x1D623, size: 0x8, addend: 0x0, symName: __ZN16BinarySearchTreeI4Duck14DuckWealthLessE9Tree_gridD1Ev, symObjAddr: 0xCF50, symBinAddr: 0x10000F738, symSize: 0x2C }
  - { offsetInCU: 0x1D68F, offset: 0x1D68F, size: 0x8, addend: 0x0, symName: __ZNSt3__15stackIPN16BinarySearchTreeI4Duck14DuckWealthLessE4NodeENS_5dequeIS6_NS_9allocatorIS6_EEEEEC1B8ue170006Ev, symObjAddr: 0xCF7C, symBinAddr: 0x10000F764, symSize: 0x2C }
  - { offsetInCU: 0x1D6B9, offset: 0x1D6B9, size: 0x8, addend: 0x0, symName: __ZNSt3__15stackIPN16BinarySearchTreeI4Duck14DuckWealthLessE4NodeENS_5dequeIS6_NS_9allocatorIS6_EEEEE4pushB8ue170006ERKS6_, symObjAddr: 0xCFA8, symBinAddr: 0x10000F790, symSize: 0x2C }
  - { offsetInCU: 0x1D6EE, offset: 0x1D6EE, size: 0x8, addend: 0x0, symName: __ZNKSt3__15stackIPN16BinarySearchTreeI4Duck14DuckWealthLessE4NodeENS_5dequeIS6_NS_9allocatorIS6_EEEEE5emptyB8ue170006Ev, symObjAddr: 0xCFD4, symBinAddr: 0x10000F7BC, symSize: 0x28 }
  - { offsetInCU: 0x1D714, offset: 0x1D714, size: 0x8, addend: 0x0, symName: __ZNSt3__15stackIPN16BinarySearchTreeI4Duck14DuckWealthLessE4NodeENS_5dequeIS6_NS_9allocatorIS6_EEEEE3topB8ue170006Ev, symObjAddr: 0xCFFC, symBinAddr: 0x10000F7E4, symSize: 0x24 }
  - { offsetInCU: 0x1D73A, offset: 0x1D73A, size: 0x8, addend: 0x0, symName: __ZNSt3__15stackIPN16BinarySearchTreeI4Duck14DuckWealthLessE4NodeENS_5dequeIS6_NS_9allocatorIS6_EEEEE3popB8ue170006Ev, symObjAddr: 0xD020, symBinAddr: 0x10000F808, symSize: 0x24 }
  - { offsetInCU: 0x1D760, offset: 0x1D760, size: 0x8, addend: 0x0, symName: __ZNSt3__15stackIPN16BinarySearchTreeI4Duck14DuckWealthLessE4NodeENS_5dequeIS6_NS_9allocatorIS6_EEEEED1Ev, symObjAddr: 0xD044, symBinAddr: 0x10000F82C, symSize: 0x2C }
  - { offsetInCU: 0x1D78C, offset: 0x1D78C, size: 0x8, addend: 0x0, symName: __ZNSt3__15stackIPN16BinarySearchTreeI4Duck14DuckWealthLessE4NodeENS_5dequeIS6_NS_9allocatorIS6_EEEEEC2B8ue170006Ev, symObjAddr: 0xD070, symBinAddr: 0x10000F858, symSize: 0x2C }
  - { offsetInCU: 0x1D7B6, offset: 0x1D7B6, size: 0x8, addend: 0x0, symName: __ZNSt3__15dequeIPN16BinarySearchTreeI4Duck14DuckWealthLessE4NodeENS_9allocatorIS6_EEEC1B8ue170006Ev, symObjAddr: 0xD09C, symBinAddr: 0x10000F884, symSize: 0x2C }
  - { offsetInCU: 0x1D7E0, offset: 0x1D7E0, size: 0x8, addend: 0x0, symName: __ZNSt3__15dequeIPN16BinarySearchTreeI4Duck14DuckWealthLessE4NodeENS_9allocatorIS6_EEEC2B8ue170006Ev, symObjAddr: 0xD0C8, symBinAddr: 0x10000F8B0, symSize: 0x5C }
  - { offsetInCU: 0x1D80A, offset: 0x1D80A, size: 0x8, addend: 0x0, symName: __ZNSt3__114__split_bufferIPPN16BinarySearchTreeI4Duck14DuckWealthLessE4NodeENS_9allocatorIS7_EEEC1B8ue170006Ev, symObjAddr: 0xD124, symBinAddr: 0x10000F90C, symSize: 0x2C }
  - { offsetInCU: 0x1D834, offset: 0x1D834, size: 0x8, addend: 0x0, symName: __ZNSt3__117__compressed_pairImNS_9allocatorIPN16BinarySearchTreeI4Duck14DuckWealthLessE4NodeEEEEC1B8ue170006IiNS_18__default_init_tagEEEOT_OT0_, symObjAddr: 0xD150, symBinAddr: 0x10000F938, symSize: 0x3C }
  - { offsetInCU: 0x1D88C, offset: 0x1D88C, size: 0x8, addend: 0x0, symName: __ZNKSt3__15dequeIPN16BinarySearchTreeI4Duck14DuckWealthLessE4NodeENS_9allocatorIS6_EEE14__annotate_newB8ue170006Em, symObjAddr: 0xD18C, symBinAddr: 0x10000F974, symSize: 0xC8 }
  - { offsetInCU: 0x1D8C1, offset: 0x1D8C1, size: 0x8, addend: 0x0, symName: __ZNSt3__114__split_bufferIPPN16BinarySearchTreeI4Duck14DuckWealthLessE4NodeENS_9allocatorIS7_EEEC2B8ue170006Ev, symObjAddr: 0xD254, symBinAddr: 0x10000FA3C, symSize: 0x50 }
  - { offsetInCU: 0x1D8EB, offset: 0x1D8EB, size: 0x8, addend: 0x0, symName: __ZNSt3__117__compressed_pairIPPPN16BinarySearchTreeI4Duck14DuckWealthLessE4NodeENS_9allocatorIS7_EEEC1B8ue170006IDnNS_18__default_init_tagEEEOT_OT0_, symObjAddr: 0xD2A4, symBinAddr: 0x10000FA8C, symSize: 0x3C }
  - { offsetInCU: 0x1D943, offset: 0x1D943, size: 0x8, addend: 0x0, symName: __ZNSt3__117__compressed_pairIPPPN16BinarySearchTreeI4Duck14DuckWealthLessE4NodeENS_9allocatorIS7_EEEC2B8ue170006IDnNS_18__default_init_tagEEEOT_OT0_, symObjAddr: 0xD2E0, symBinAddr: 0x10000FAC8, symSize: 0x40 }
  - { offsetInCU: 0x1D99B, offset: 0x1D99B, size: 0x8, addend: 0x0, symName: __ZNSt3__122__compressed_pair_elemIPPPN16BinarySearchTreeI4Duck14DuckWealthLessE4NodeELi0ELb0EEC2B8ue170006IDnvEEOT_, symObjAddr: 0xD320, symBinAddr: 0x10000FB08, symSize: 0x1C }
  - { offsetInCU: 0x1D9DD, offset: 0x1D9DD, size: 0x8, addend: 0x0, symName: __ZNSt3__122__compressed_pair_elemINS_9allocatorIPPN16BinarySearchTreeI4Duck14DuckWealthLessE4NodeEEELi1ELb1EEC2B8ue170006ENS_18__default_init_tagE, symObjAddr: 0xD33C, symBinAddr: 0x10000FB24, symSize: 0x2C }
  - { offsetInCU: 0x1DA11, offset: 0x1DA11, size: 0x8, addend: 0x0, symName: __ZNSt3__19allocatorIPPN16BinarySearchTreeI4Duck14DuckWealthLessE4NodeEEC2B8ue170006Ev, symObjAddr: 0xD368, symBinAddr: 0x10000FB50, symSize: 0x2C }
  - { offsetInCU: 0x1DA3B, offset: 0x1DA3B, size: 0x8, addend: 0x0, symName: __ZNSt3__116__non_trivial_ifILb1ENS_9allocatorIPPN16BinarySearchTreeI4Duck14DuckWealthLessE4NodeEEEEC2B8ue170006Ev, symObjAddr: 0xD394, symBinAddr: 0x10000FB7C, symSize: 0x14 }
  - { offsetInCU: 0x1DA65, offset: 0x1DA65, size: 0x8, addend: 0x0, symName: __ZNSt3__117__compressed_pairImNS_9allocatorIPN16BinarySearchTreeI4Duck14DuckWealthLessE4NodeEEEEC2B8ue170006IiNS_18__default_init_tagEEEOT_OT0_, symObjAddr: 0xD3A8, symBinAddr: 0x10000FB90, symSize: 0x40 }
  - { offsetInCU: 0x1DABD, offset: 0x1DABD, size: 0x8, addend: 0x0, symName: __ZNSt3__122__compressed_pair_elemINS_9allocatorIPN16BinarySearchTreeI4Duck14DuckWealthLessE4NodeEEELi1ELb1EEC2B8ue170006ENS_18__default_init_tagE, symObjAddr: 0xD3E8, symBinAddr: 0x10000FBD0, symSize: 0x2C }
  - { offsetInCU: 0x1DAF1, offset: 0x1DAF1, size: 0x8, addend: 0x0, symName: __ZNSt3__19allocatorIPN16BinarySearchTreeI4Duck14DuckWealthLessE4NodeEEC2B8ue170006Ev, symObjAddr: 0xD414, symBinAddr: 0x10000FBFC, symSize: 0x2C }
  - { offsetInCU: 0x1DB1B, offset: 0x1DB1B, size: 0x8, addend: 0x0, symName: __ZNSt3__116__non_trivial_ifILb1ENS_9allocatorIPN16BinarySearchTreeI4Duck14DuckWealthLessE4NodeEEEEC2B8ue170006Ev, symObjAddr: 0xD440, symBinAddr: 0x10000FC28, symSize: 0x14 }
  - { offsetInCU: 0x1DB45, offset: 0x1DB45, size: 0x8, addend: 0x0, symName: __ZNKSt3__15dequeIPN16BinarySearchTreeI4Duck14DuckWealthLessE4NodeENS_9allocatorIS6_EEE18__annotate_from_toB8ue170006EmmNS9_22__asan_annotation_typeENS9_23__asan_annotation_placeE, symObjAddr: 0xD454, symBinAddr: 0x10000FC3C, symSize: 0x580 }
  - { offsetInCU: 0x1DD01, offset: 0x1DD01, size: 0x8, addend: 0x0, symName: __ZNKSt3__114__split_bufferIPPN16BinarySearchTreeI4Duck14DuckWealthLessE4NodeENS_9allocatorIS7_EEE4sizeB8ue170006Ev, symObjAddr: 0xD9D4, symBinAddr: 0x1000101BC, symSize: 0x28 }
  - { offsetInCU: 0x1DD27, offset: 0x1DD27, size: 0x8, addend: 0x0, symName: __ZNKSt3__114__split_bufferIPPN16BinarySearchTreeI4Duck14DuckWealthLessE4NodeENS_9allocatorIS7_EEE5beginB8ue170006Ev, symObjAddr: 0xD9FC, symBinAddr: 0x1000101E4, symSize: 0x18 }
  - { offsetInCU: 0x1DD4D, offset: 0x1DD4D, size: 0x8, addend: 0x0, symName: __ZNKSt3__15dequeIPN16BinarySearchTreeI4Duck14DuckWealthLessE4NodeENS_9allocatorIS6_EEE4sizeB8ue170006Ev, symObjAddr: 0xDA14, symBinAddr: 0x1000101FC, symSize: 0x28 }
  - { offsetInCU: 0x1DD73, offset: 0x1DD73, size: 0x8, addend: 0x0, symName: __ZNKSt3__15dequeIPN16BinarySearchTreeI4Duck14DuckWealthLessE4NodeENS_9allocatorIS6_EEE5emptyB8ue170006Ev, symObjAddr: 0xDA3C, symBinAddr: 0x100010224, symSize: 0x30 }
  - { offsetInCU: 0x1DD99, offset: 0x1DD99, size: 0x8, addend: 0x0, symName: __ZNKSt3__15dequeIPN16BinarySearchTreeI4Duck14DuckWealthLessE4NodeENS_9allocatorIS6_EEE44__annotate_double_ended_contiguous_containerB8ue170006EPKvSB_SB_SB_SB_SB_, symObjAddr: 0xDA80, symBinAddr: 0x100010268, symSize: 0x28 }
  - { offsetInCU: 0x1DE07, offset: 0x1DE07, size: 0x8, addend: 0x0, symName: __ZNKSt3__15dequeIPN16BinarySearchTreeI4Duck14DuckWealthLessE4NodeENS_9allocatorIS6_EEE6__sizeB8ue170006Ev, symObjAddr: 0xDAA8, symBinAddr: 0x100010290, symSize: 0x28 }
  - { offsetInCU: 0x1DE2D, offset: 0x1DE2D, size: 0x8, addend: 0x0, symName: __ZNKSt3__117__compressed_pairImNS_9allocatorIPN16BinarySearchTreeI4Duck14DuckWealthLessE4NodeEEEE5firstB8ue170006Ev, symObjAddr: 0xDAD0, symBinAddr: 0x1000102B8, symSize: 0x24 }
  - { offsetInCU: 0x1DE53, offset: 0x1DE53, size: 0x8, addend: 0x0, symName: __ZNSt3__15dequeIPN16BinarySearchTreeI4Duck14DuckWealthLessE4NodeENS_9allocatorIS6_EEE9push_backERKS6_, symObjAddr: 0xDAF4, symBinAddr: 0x1000102DC, symSize: 0xAC }
  - { offsetInCU: 0x1DE99, offset: 0x1DE99, size: 0x8, addend: 0x0, symName: __ZNSt3__15dequeIPN16BinarySearchTreeI4Duck14DuckWealthLessE4NodeENS_9allocatorIS6_EEE7__allocB8ue170006Ev, symObjAddr: 0xDBA0, symBinAddr: 0x100010388, symSize: 0x28 }
  - { offsetInCU: 0x1DEBF, offset: 0x1DEBF, size: 0x8, addend: 0x0, symName: __ZNKSt3__15dequeIPN16BinarySearchTreeI4Duck14DuckWealthLessE4NodeENS_9allocatorIS6_EEE12__back_spareB8ue170006Ev, symObjAddr: 0xDBC8, symBinAddr: 0x1000103B0, symSize: 0x54 }
  - { offsetInCU: 0x1DEE5, offset: 0x1DEE5, size: 0x8, addend: 0x0, symName: __ZNSt3__15dequeIPN16BinarySearchTreeI4Duck14DuckWealthLessE4NodeENS_9allocatorIS6_EEE19__add_back_capacityEv, symObjAddr: 0xDC1C, symBinAddr: 0x100010404, symSize: 0x34C }
  - { offsetInCU: 0x1DF9A, offset: 0x1DF9A, size: 0x8, addend: 0x0, symName: __ZNKSt3__15dequeIPN16BinarySearchTreeI4Duck14DuckWealthLessE4NodeENS_9allocatorIS6_EEE24__annotate_increase_backB8ue170006Em, symObjAddr: 0xDF68, symBinAddr: 0x100010750, symSize: 0x7C }
  - { offsetInCU: 0x1DFCF, offset: 0x1DFCF, size: 0x8, addend: 0x0, symName: __ZNSt3__116allocator_traitsINS_9allocatorIPN16BinarySearchTreeI4Duck14DuckWealthLessE4NodeEEEE9constructB8ue170006IS7_JRKS7_EvEEvRS8_PT_DpOT0_, symObjAddr: 0xDFE4, symBinAddr: 0x1000107CC, symSize: 0x34 }
  - { offsetInCU: 0x1E026, offset: 0x1E026, size: 0x8, addend: 0x0, symName: __ZNSt3__15dequeIPN16BinarySearchTreeI4Duck14DuckWealthLessE4NodeENS_9allocatorIS6_EEE3endB8ue170006Ev, symObjAddr: 0xE018, symBinAddr: 0x100010800, symSize: 0xCC }
  - { offsetInCU: 0x1E06A, offset: 0x1E06A, size: 0x8, addend: 0x0, symName: __ZNKSt3__116__deque_iteratorIPN16BinarySearchTreeI4Duck14DuckWealthLessE4NodeEPS6_RS6_PS7_lLl512EEdeB8ue170006Ev, symObjAddr: 0xE0E4, symBinAddr: 0x1000108CC, symSize: 0x18 }
  - { offsetInCU: 0x1E090, offset: 0x1E090, size: 0x8, addend: 0x0, symName: __ZNSt3__15dequeIPN16BinarySearchTreeI4Duck14DuckWealthLessE4NodeENS_9allocatorIS6_EEE6__sizeB8ue170006Ev, symObjAddr: 0xE0FC, symBinAddr: 0x1000108E4, symSize: 0x28 }
  - { offsetInCU: 0x1E0B6, offset: 0x1E0B6, size: 0x8, addend: 0x0, symName: __ZNSt3__117__compressed_pairImNS_9allocatorIPN16BinarySearchTreeI4Duck14DuckWealthLessE4NodeEEEE6secondB8ue170006Ev, symObjAddr: 0xE124, symBinAddr: 0x10001090C, symSize: 0x24 }
  - { offsetInCU: 0x1E0DC, offset: 0x1E0DC, size: 0x8, addend: 0x0, symName: __ZNSt3__122__compressed_pair_elemINS_9allocatorIPN16BinarySearchTreeI4Duck14DuckWealthLessE4NodeEEELi1ELb1EE5__getB8ue170006Ev, symObjAddr: 0xE148, symBinAddr: 0x100010930, symSize: 0x14 }
  - { offsetInCU: 0x1E102, offset: 0x1E102, size: 0x8, addend: 0x0, symName: __ZNKSt3__15dequeIPN16BinarySearchTreeI4Duck14DuckWealthLessE4NodeENS_9allocatorIS6_EEE10__capacityB8ue170006Ev, symObjAddr: 0xE15C, symBinAddr: 0x100010944, symSize: 0x60 }
  - { offsetInCU: 0x1E128, offset: 0x1E128, size: 0x8, addend: 0x0, symName: __ZNKSt3__15dequeIPN16BinarySearchTreeI4Duck14DuckWealthLessE4NodeENS_9allocatorIS6_EEE13__front_spareB8ue170006Ev, symObjAddr: 0xE1BC, symBinAddr: 0x1000109A4, symSize: 0x18 }
  - { offsetInCU: 0x1E14E, offset: 0x1E14E, size: 0x8, addend: 0x0, symName: __ZNSt3__114__split_bufferIPPN16BinarySearchTreeI4Duck14DuckWealthLessE4NodeENS_9allocatorIS7_EEE5frontB8ue170006Ev, symObjAddr: 0xE1D4, symBinAddr: 0x1000109BC, symSize: 0x18 }
  - { offsetInCU: 0x1E174, offset: 0x1E174, size: 0x8, addend: 0x0, symName: __ZNSt3__114__split_bufferIPPN16BinarySearchTreeI4Duck14DuckWealthLessE4NodeENS_9allocatorIS7_EEE9pop_frontB8ue170006Ev, symObjAddr: 0xE1EC, symBinAddr: 0x1000109D4, symSize: 0x2C }
  - { offsetInCU: 0x1E19A, offset: 0x1E19A, size: 0x8, addend: 0x0, symName: __ZNSt3__114__split_bufferIPPN16BinarySearchTreeI4Duck14DuckWealthLessE4NodeENS_9allocatorIS7_EEE9push_backB8ue170006ERKS7_, symObjAddr: 0xE218, symBinAddr: 0x100010A00, symSize: 0x260 }
  - { offsetInCU: 0x1E212, offset: 0x1E212, size: 0x8, addend: 0x0, symName: __ZNKSt3__114__split_bufferIPPN16BinarySearchTreeI4Duck14DuckWealthLessE4NodeENS_9allocatorIS7_EEE8capacityB8ue170006Ev, symObjAddr: 0xE478, symBinAddr: 0x100010C60, symSize: 0x40 }
  - { offsetInCU: 0x1E238, offset: 0x1E238, size: 0x8, addend: 0x0, symName: __ZNKSt3__114__split_bufferIPPN16BinarySearchTreeI4Duck14DuckWealthLessE4NodeENS_9allocatorIS7_EEE12__back_spareB8ue170006Ev, symObjAddr: 0xE4B8, symBinAddr: 0x100010CA0, symSize: 0x40 }
  - { offsetInCU: 0x1E25E, offset: 0x1E25E, size: 0x8, addend: 0x0, symName: __ZNSt3__114__split_bufferIPPN16BinarySearchTreeI4Duck14DuckWealthLessE4NodeENS_9allocatorIS7_EEE9push_backEOS7_, symObjAddr: 0xE4F8, symBinAddr: 0x100010CE0, symSize: 0x260 }
  - { offsetInCU: 0x1E2D6, offset: 0x1E2D6, size: 0x8, addend: 0x0, symName: __ZNSt3__116allocator_traitsINS_9allocatorIPN16BinarySearchTreeI4Duck14DuckWealthLessE4NodeEEEE8allocateB8ue170006ERS8_m, symObjAddr: 0xE758, symBinAddr: 0x100010F40, symSize: 0x2C }
  - { offsetInCU: 0x1E309, offset: 0x1E309, size: 0x8, addend: 0x0, symName: __ZNSt3__114__split_bufferIPPN16BinarySearchTreeI4Duck14DuckWealthLessE4NodeENS_9allocatorIS7_EEE10push_frontEOS7_, symObjAddr: 0xE784, symBinAddr: 0x100010F6C, symSize: 0x25C }
  - { offsetInCU: 0x1E381, offset: 0x1E381, size: 0x8, addend: 0x0, symName: __ZNKSt3__15dequeIPN16BinarySearchTreeI4Duck14DuckWealthLessE4NodeENS_9allocatorIS6_EEE22__annotate_whole_blockB8ue170006EmNS9_22__asan_annotation_typeE, symObjAddr: 0xE9E0, symBinAddr: 0x1000111C8, symSize: 0xAC }
  - { offsetInCU: 0x1E3F2, offset: 0x1E3F2, size: 0x8, addend: 0x0, symName: __ZNSt3__114__split_bufferIPPN16BinarySearchTreeI4Duck14DuckWealthLessE4NodeENS_9allocatorIS7_EEE7__allocB8ue170006Ev, symObjAddr: 0xEA8C, symBinAddr: 0x100011274, symSize: 0x28 }
  - { offsetInCU: 0x1E418, offset: 0x1E418, size: 0x8, addend: 0x0, symName: __ZNSt3__114__split_bufferIPPN16BinarySearchTreeI4Duck14DuckWealthLessE4NodeERNS_9allocatorIS7_EEEC1EmmSA_, symObjAddr: 0xEAB4, symBinAddr: 0x10001129C, symSize: 0x44 }
  - { offsetInCU: 0x1E473, offset: 0x1E473, size: 0x8, addend: 0x0, symName: __ZNSt3__122__allocator_destructorINS_9allocatorIPN16BinarySearchTreeI4Duck14DuckWealthLessE4NodeEEEEC1B8ue170006ERS8_m, symObjAddr: 0xEAF8, symBinAddr: 0x1000112E0, symSize: 0x3C }
  - { offsetInCU: 0x1E538, offset: 0x1E538, size: 0x8, addend: 0x0, symName: __ZNSt3__110unique_ptrIPPN16BinarySearchTreeI4Duck14DuckWealthLessE4NodeENS_22__allocator_destructorINS_9allocatorIS6_EEEEEC1B8ue170006ILb1EvEES7_NS_16__dependent_typeINS_27__unique_ptr_deleter_sfinaeISB_EEXT_EE20__good_rval_ref_typeE, symObjAddr: 0xEB34, symBinAddr: 0x10001131C, symSize: 0x3C }
  - { offsetInCU: 0x1E589, offset: 0x1E589, size: 0x8, addend: 0x0, symName: __ZNSt3__114__split_bufferIPPN16BinarySearchTreeI4Duck14DuckWealthLessE4NodeERNS_9allocatorIS7_EEE9push_backEOS7_, symObjAddr: 0xEB70, symBinAddr: 0x100011358, symSize: 0x260 }
  - { offsetInCU: 0x1E601, offset: 0x1E601, size: 0x8, addend: 0x0, symName: __ZNKSt3__110unique_ptrIPPN16BinarySearchTreeI4Duck14DuckWealthLessE4NodeENS_22__allocator_destructorINS_9allocatorIS6_EEEEE3getB8ue170006Ev, symObjAddr: 0xEDD0, symBinAddr: 0x1000115B8, symSize: 0x28 }
  - { offsetInCU: 0x1E627, offset: 0x1E627, size: 0x8, addend: 0x0, symName: __ZNSt3__110unique_ptrIPPN16BinarySearchTreeI4Duck14DuckWealthLessE4NodeENS_22__allocator_destructorINS_9allocatorIS6_EEEEE7releaseB8ue170006Ev, symObjAddr: 0xEDF8, symBinAddr: 0x1000115E0, symSize: 0x44 }
  - { offsetInCU: 0x1E65C, offset: 0x1E65C, size: 0x8, addend: 0x0, symName: __ZNSt3__114__split_bufferIPPN16BinarySearchTreeI4Duck14DuckWealthLessE4NodeENS_9allocatorIS7_EEE3endB8ue170006Ev, symObjAddr: 0xEE3C, symBinAddr: 0x100011624, symSize: 0x18 }
  - { offsetInCU: 0x1E682, offset: 0x1E682, size: 0x8, addend: 0x0, symName: __ZNSt3__114__split_bufferIPPN16BinarySearchTreeI4Duck14DuckWealthLessE4NodeENS_9allocatorIS7_EEE5beginB8ue170006Ev, symObjAddr: 0xEE54, symBinAddr: 0x10001163C, symSize: 0x18 }
  - { offsetInCU: 0x1E6A8, offset: 0x1E6A8, size: 0x8, addend: 0x0, symName: __ZNSt3__114__split_bufferIPPN16BinarySearchTreeI4Duck14DuckWealthLessE4NodeERNS_9allocatorIS7_EEE10push_frontERKS7_, symObjAddr: 0xEE6C, symBinAddr: 0x100011654, symSize: 0x25C }
  - { offsetInCU: 0x1E720, offset: 0x1E720, size: 0x8, addend: 0x0, symName: __ZNSt3__114__split_bufferIPPN16BinarySearchTreeI4Duck14DuckWealthLessE4NodeENS_9allocatorIS7_EEE9__end_capB8ue170006Ev, symObjAddr: 0xF104, symBinAddr: 0x1000118EC, symSize: 0x28 }
  - { offsetInCU: 0x1E746, offset: 0x1E746, size: 0x8, addend: 0x0, symName: __ZNSt3__114__split_bufferIPPN16BinarySearchTreeI4Duck14DuckWealthLessE4NodeERNS_9allocatorIS7_EEE9__end_capB8ue170006Ev, symObjAddr: 0xF12C, symBinAddr: 0x100011914, symSize: 0x28 }
  - { offsetInCU: 0x1E76C, offset: 0x1E76C, size: 0x8, addend: 0x0, symName: __ZNSt3__110unique_ptrIPPN16BinarySearchTreeI4Duck14DuckWealthLessE4NodeENS_22__allocator_destructorINS_9allocatorIS6_EEEEED1B8ue170006Ev, symObjAddr: 0xF154, symBinAddr: 0x10001193C, symSize: 0x2C }
  - { offsetInCU: 0x1E796, offset: 0x1E796, size: 0x8, addend: 0x0, symName: __ZNSt3__114__split_bufferIPPN16BinarySearchTreeI4Duck14DuckWealthLessE4NodeERNS_9allocatorIS7_EEED1Ev, symObjAddr: 0xF180, symBinAddr: 0x100011968, symSize: 0x2C }
  - { offsetInCU: 0x1E7C2, offset: 0x1E7C2, size: 0x8, addend: 0x0, symName: __ZNSt3__114__split_bufferIPPN16BinarySearchTreeI4Duck14DuckWealthLessE4NodeENS_9allocatorIS7_EEE19__destruct_at_beginB8ue170006EPS7_, symObjAddr: 0xF1AC, symBinAddr: 0x100011994, symSize: 0x2C }
  - { offsetInCU: 0x1E7F6, offset: 0x1E7F6, size: 0x8, addend: 0x0, symName: __ZNSt3__114__split_bufferIPPN16BinarySearchTreeI4Duck14DuckWealthLessE4NodeENS_9allocatorIS7_EEE19__destruct_at_beginEPS7_NS_17integral_constantIbLb1EEE, symObjAddr: 0xF1D8, symBinAddr: 0x1000119C0, symSize: 0x20 }
  - { offsetInCU: 0x1E836, offset: 0x1E836, size: 0x8, addend: 0x0, symName: __ZNSt3__114__split_bufferIPPN16BinarySearchTreeI4Duck14DuckWealthLessE4NodeERNS_9allocatorIS7_EEE18__construct_at_endINS_13move_iteratorIPS7_EEEENS_9enable_ifIXsr31__has_forward_iterator_categoryIT_EE5valueEvE4typeESH_SH_, symObjAddr: 0xF238, symBinAddr: 0x100011A20, symSize: 0x60 }
  - { offsetInCU: 0x1E883, offset: 0x1E883, size: 0x8, addend: 0x0, symName: __ZNSt3__113move_iteratorIPPPN16BinarySearchTreeI4Duck14DuckWealthLessE4NodeEEC1B8ue170006ES8_, symObjAddr: 0xF298, symBinAddr: 0x100011A80, symSize: 0x34 }
  - { offsetInCU: 0x1E8BB, offset: 0x1E8BB, size: 0x8, addend: 0x0, symName: __ZNSt3__116allocator_traitsINS_9allocatorIPPN16BinarySearchTreeI4Duck14DuckWealthLessE4NodeEEEE9constructB8ue170006IS8_JRKS8_EvEEvRS9_PT_DpOT0_, symObjAddr: 0xF2CC, symBinAddr: 0x100011AB4, symSize: 0x34 }
  - { offsetInCU: 0x1E92C, offset: 0x1E92C, size: 0x8, addend: 0x0, symName: __ZNKSt3__114__move_trivialclB8ue170006IPPN16BinarySearchTreeI4Duck14DuckWealthLessE4NodeES8_Li0EEENS_4pairIPT_PT0_EESB_SB_SD_, symObjAddr: 0xF4B0, symBinAddr: 0x100011C98, symSize: 0x48 }
  - { offsetInCU: 0x1E99A, offset: 0x1E99A, size: 0x8, addend: 0x0, symName: __ZNSt3__14pairIPPPN16BinarySearchTreeI4Duck14DuckWealthLessE4NodeES8_EC1B8ue170006IRS8_S8_LPv0EEEOT_OT0_, symObjAddr: 0xF6D8, symBinAddr: 0x100011EC0, symSize: 0x3C }
  - { offsetInCU: 0x1E9F8, offset: 0x1E9F8, size: 0x8, addend: 0x0, symName: __ZNSt3__14pairIPPPN16BinarySearchTreeI4Duck14DuckWealthLessE4NodeES8_EC2B8ue170006IRS8_S8_LPv0EEEOT_OT0_, symObjAddr: 0xF714, symBinAddr: 0x100011EFC, symSize: 0x34 }
  - { offsetInCU: 0x1EA56, offset: 0x1EA56, size: 0x8, addend: 0x0, symName: __ZNSt3__118__unwrap_iter_implIPPPN16BinarySearchTreeI4Duck14DuckWealthLessE4NodeELb1EE8__unwrapB8ue170006ES8_, symObjAddr: 0xF748, symBinAddr: 0x100011F30, symSize: 0x24 }
  - { offsetInCU: 0x1EA79, offset: 0x1EA79, size: 0x8, addend: 0x0, symName: __ZNSt3__14pairIPPPN16BinarySearchTreeI4Duck14DuckWealthLessE4NodeES8_EC1B8ue170006IS8_S8_LPv0EEEOT_OT0_, symObjAddr: 0xF76C, symBinAddr: 0x100011F54, symSize: 0x3C }
  - { offsetInCU: 0x1EAD7, offset: 0x1EAD7, size: 0x8, addend: 0x0, symName: __ZNSt3__14pairIPPPN16BinarySearchTreeI4Duck14DuckWealthLessE4NodeES8_EC2B8ue170006IS8_S8_LPv0EEEOT_OT0_, symObjAddr: 0xF7A8, symBinAddr: 0x100011F90, symSize: 0x34 }
  - { offsetInCU: 0x1EB35, offset: 0x1EB35, size: 0x8, addend: 0x0, symName: __ZNSt3__118__unwrap_iter_implIPPPN16BinarySearchTreeI4Duck14DuckWealthLessE4NodeELb1EE8__rewrapB8ue170006ES8_S8_, symObjAddr: 0xF7DC, symBinAddr: 0x100011FC4, symSize: 0x50 }
  - { offsetInCU: 0x1EB66, offset: 0x1EB66, size: 0x8, addend: 0x0, symName: __ZNSt3__114__split_bufferIPPN16BinarySearchTreeI4Duck14DuckWealthLessE4NodeERNS_9allocatorIS7_EEE28__construct_at_end_with_sizeINS_13move_iteratorIPS7_EEEEvT_m, symObjAddr: 0xF82C, symBinAddr: 0x100012014, symSize: 0xDC }
  - { offsetInCU: 0x1EBCC, offset: 0x1EBCC, size: 0x8, addend: 0x0, symName: __ZNSt3__114__split_bufferIPPN16BinarySearchTreeI4Duck14DuckWealthLessE4NodeERNS_9allocatorIS7_EEE21_ConstructTransactionC1B8ue170006EPPS7_m, symObjAddr: 0xF944, symBinAddr: 0x10001212C, symSize: 0x3C }
  - { offsetInCU: 0x1EC12, offset: 0x1EC12, size: 0x8, addend: 0x0, symName: __ZNSt3__116allocator_traitsINS_9allocatorIPPN16BinarySearchTreeI4Duck14DuckWealthLessE4NodeEEEE9constructB8ue170006IS8_JS8_EvEEvRS9_PT_DpOT0_, symObjAddr: 0xF980, symBinAddr: 0x100012168, symSize: 0x34 }
  - { offsetInCU: 0x1EC69, offset: 0x1EC69, size: 0x8, addend: 0x0, symName: __ZNSt3__114__split_bufferIPPN16BinarySearchTreeI4Duck14DuckWealthLessE4NodeERNS_9allocatorIS7_EEE7__allocB8ue170006Ev, symObjAddr: 0xF9B4, symBinAddr: 0x10001219C, symSize: 0x28 }
  - { offsetInCU: 0x1EC8F, offset: 0x1EC8F, size: 0x8, addend: 0x0, symName: __ZNKSt3__113move_iteratorIPPPN16BinarySearchTreeI4Duck14DuckWealthLessE4NodeEEdeB8ue170006Ev, symObjAddr: 0xF9DC, symBinAddr: 0x1000121C4, symSize: 0x18 }
  - { offsetInCU: 0x1ECB5, offset: 0x1ECB5, size: 0x8, addend: 0x0, symName: __ZNSt3__113move_iteratorIPPPN16BinarySearchTreeI4Duck14DuckWealthLessE4NodeEEppB8ue170006Ev, symObjAddr: 0xF9F4, symBinAddr: 0x1000121DC, symSize: 0x20 }
  - { offsetInCU: 0x1ECDB, offset: 0x1ECDB, size: 0x8, addend: 0x0, symName: __ZNSt3__114__split_bufferIPPN16BinarySearchTreeI4Duck14DuckWealthLessE4NodeERNS_9allocatorIS7_EEE21_ConstructTransactionD1B8ue170006Ev, symObjAddr: 0xFA14, symBinAddr: 0x1000121FC, symSize: 0x2C }
  - { offsetInCU: 0x1ED05, offset: 0x1ED05, size: 0x8, addend: 0x0, symName: __ZNSt3__114__split_bufferIPPN16BinarySearchTreeI4Duck14DuckWealthLessE4NodeERNS_9allocatorIS7_EEE21_ConstructTransactionC2B8ue170006EPPS7_m, symObjAddr: 0xFA40, symBinAddr: 0x100012228, symSize: 0x44 }
  - { offsetInCU: 0x1ED4B, offset: 0x1ED4B, size: 0x8, addend: 0x0, symName: __ZNSt3__19allocatorIPPN16BinarySearchTreeI4Duck14DuckWealthLessE4NodeEE9constructB8ue170006IS7_JS7_EEEvPT_DpOT0_, symObjAddr: 0xFA84, symBinAddr: 0x10001226C, symSize: 0x28 }
  - { offsetInCU: 0x1EDA1, offset: 0x1EDA1, size: 0x8, addend: 0x0, symName: __ZNSt3__117__compressed_pairIPPPN16BinarySearchTreeI4Duck14DuckWealthLessE4NodeERNS_9allocatorIS7_EEE6secondB8ue170006Ev, symObjAddr: 0xFAAC, symBinAddr: 0x100012294, symSize: 0x28 }
  - { offsetInCU: 0x1EDC7, offset: 0x1EDC7, size: 0x8, addend: 0x0, symName: __ZNSt3__122__compressed_pair_elemIRNS_9allocatorIPPN16BinarySearchTreeI4Duck14DuckWealthLessE4NodeEEELi1ELb0EE5__getB8ue170006Ev, symObjAddr: 0xFAD4, symBinAddr: 0x1000122BC, symSize: 0x18 }
  - { offsetInCU: 0x1EDED, offset: 0x1EDED, size: 0x8, addend: 0x0, symName: __ZNSt3__114__split_bufferIPPN16BinarySearchTreeI4Duck14DuckWealthLessE4NodeERNS_9allocatorIS7_EEE21_ConstructTransactionD2B8ue170006Ev, symObjAddr: 0xFAEC, symBinAddr: 0x1000122D4, symSize: 0x20 }
  - { offsetInCU: 0x1EE17, offset: 0x1EE17, size: 0x8, addend: 0x0, symName: __ZNKSt3__113move_iteratorIPPPN16BinarySearchTreeI4Duck14DuckWealthLessE4NodeEE4baseB8ue170006Ev, symObjAddr: 0xFB84, symBinAddr: 0x10001236C, symSize: 0x18 }
  - { offsetInCU: 0x1EE3D, offset: 0x1EE3D, size: 0x8, addend: 0x0, symName: __ZNSt3__113move_iteratorIPPPN16BinarySearchTreeI4Duck14DuckWealthLessE4NodeEEC2B8ue170006ES8_, symObjAddr: 0xFB9C, symBinAddr: 0x100012384, symSize: 0x20 }
  - { offsetInCU: 0x1EE75, offset: 0x1EE75, size: 0x8, addend: 0x0, symName: __ZNSt3__19allocatorIPPN16BinarySearchTreeI4Duck14DuckWealthLessE4NodeEE9constructB8ue170006IS7_JRKS7_EEEvPT_DpOT0_, symObjAddr: 0xFBBC, symBinAddr: 0x1000123A4, symSize: 0x28 }
  - { offsetInCU: 0x1EECB, offset: 0x1EECB, size: 0x8, addend: 0x0, symName: __ZNKSt3__114__split_bufferIPPN16BinarySearchTreeI4Duck14DuckWealthLessE4NodeENS_9allocatorIS7_EEE9__end_capB8ue170006Ev, symObjAddr: 0xFBE4, symBinAddr: 0x1000123CC, symSize: 0x28 }
  - { offsetInCU: 0x1EEF1, offset: 0x1EEF1, size: 0x8, addend: 0x0, symName: __ZNKSt3__117__compressed_pairIPPPN16BinarySearchTreeI4Duck14DuckWealthLessE4NodeENS_9allocatorIS7_EEE5firstB8ue170006Ev, symObjAddr: 0xFC0C, symBinAddr: 0x1000123F4, symSize: 0x24 }
  - { offsetInCU: 0x1EF17, offset: 0x1EF17, size: 0x8, addend: 0x0, symName: __ZNKSt3__122__compressed_pair_elemIPPPN16BinarySearchTreeI4Duck14DuckWealthLessE4NodeELi0ELb0EE5__getB8ue170006Ev, symObjAddr: 0xFC30, symBinAddr: 0x100012418, symSize: 0x14 }
  - { offsetInCU: 0x1EF3D, offset: 0x1EF3D, size: 0x8, addend: 0x0, symName: __ZNSt3__19allocatorIPN16BinarySearchTreeI4Duck14DuckWealthLessE4NodeEE8allocateB8ue170006Em, symObjAddr: 0xFC44, symBinAddr: 0x10001242C, symSize: 0x58 }
  - { offsetInCU: 0x1EF7B, offset: 0x1EF7B, size: 0x8, addend: 0x0, symName: __ZNSt3__116allocator_traitsINS_9allocatorIPN16BinarySearchTreeI4Duck14DuckWealthLessE4NodeEEEE8max_sizeB8ue170006IS8_vEEmRKS8_, symObjAddr: 0xFC9C, symBinAddr: 0x100012484, symSize: 0x24 }
  - { offsetInCU: 0x1EFA9, offset: 0x1EFA9, size: 0x8, addend: 0x0, symName: __ZNKSt3__19allocatorIPN16BinarySearchTreeI4Duck14DuckWealthLessE4NodeEE8max_sizeB8ue170006Ev, symObjAddr: 0xFCC0, symBinAddr: 0x1000124A8, symSize: 0x14 }
  - { offsetInCU: 0x1EFCF, offset: 0x1EFCF, size: 0x8, addend: 0x0, symName: __ZNKSt3__123__move_backward_trivialclB8ue170006IPPN16BinarySearchTreeI4Duck14DuckWealthLessE4NodeES8_Li0EEENS_4pairIPT_PT0_EESB_SB_SD_, symObjAddr: 0xFE50, symBinAddr: 0x100012638, symSize: 0x48 }
  - { offsetInCU: 0x1F037, offset: 0x1F037, size: 0x8, addend: 0x0, symName: __ZNSt3__14pairIPPPN16BinarySearchTreeI4Duck14DuckWealthLessE4NodeES8_EC1B8ue170006IRS8_SB_LPv0EEEOT_OT0_, symObjAddr: 0xFF60, symBinAddr: 0x100012748, symSize: 0x3C }
  - { offsetInCU: 0x1F095, offset: 0x1F095, size: 0x8, addend: 0x0, symName: __ZNSt3__14pairIPPPN16BinarySearchTreeI4Duck14DuckWealthLessE4NodeES8_EC2B8ue170006IRS8_SB_LPv0EEEOT_OT0_, symObjAddr: 0xFF9C, symBinAddr: 0x100012784, symSize: 0x34 }
  - { offsetInCU: 0x1F0F3, offset: 0x1F0F3, size: 0x8, addend: 0x0, symName: __ZNKSt3__15dequeIPN16BinarySearchTreeI4Duck14DuckWealthLessE4NodeENS_9allocatorIS6_EEE23__annotate_poison_blockB8ue170006EPKvSB_, symObjAddr: 0xFFD0, symBinAddr: 0x1000127B8, symSize: 0x44 }
  - { offsetInCU: 0x1F137, offset: 0x1F137, size: 0x8, addend: 0x0, symName: __ZNSt3__117__compressed_pairIPPPN16BinarySearchTreeI4Duck14DuckWealthLessE4NodeENS_9allocatorIS7_EEE6secondB8ue170006Ev, symObjAddr: 0x10014, symBinAddr: 0x1000127FC, symSize: 0x24 }
  - { offsetInCU: 0x1F15D, offset: 0x1F15D, size: 0x8, addend: 0x0, symName: __ZNSt3__122__compressed_pair_elemINS_9allocatorIPPN16BinarySearchTreeI4Duck14DuckWealthLessE4NodeEEELi1ELb1EE5__getB8ue170006Ev, symObjAddr: 0x10038, symBinAddr: 0x100012820, symSize: 0x14 }
  - { offsetInCU: 0x1F183, offset: 0x1F183, size: 0x8, addend: 0x0, symName: __ZNSt3__114__split_bufferIPPN16BinarySearchTreeI4Duck14DuckWealthLessE4NodeERNS_9allocatorIS7_EEEC2EmmSA_, symObjAddr: 0x1004C, symBinAddr: 0x100012834, symSize: 0xD4 }
  - { offsetInCU: 0x1F1F6, offset: 0x1F1F6, size: 0x8, addend: 0x0, symName: __ZNSt3__117__compressed_pairIPPPN16BinarySearchTreeI4Duck14DuckWealthLessE4NodeERNS_9allocatorIS7_EEEC1B8ue170006IDnSB_EEOT_OT0_, symObjAddr: 0x10120, symBinAddr: 0x100012908, symSize: 0x3C }
  - { offsetInCU: 0x1F24E, offset: 0x1F24E, size: 0x8, addend: 0x0, symName: __ZNSt3__117__compressed_pairIPPPN16BinarySearchTreeI4Duck14DuckWealthLessE4NodeERNS_9allocatorIS7_EEEC2B8ue170006IDnSB_EEOT_OT0_, symObjAddr: 0x1019C, symBinAddr: 0x100012984, symSize: 0x48 }
  - { offsetInCU: 0x1F2A6, offset: 0x1F2A6, size: 0x8, addend: 0x0, symName: __ZNSt3__122__compressed_pair_elemIRNS_9allocatorIPPN16BinarySearchTreeI4Duck14DuckWealthLessE4NodeEEELi1ELb0EEC2B8ue170006ISA_vEEOT_, symObjAddr: 0x101E4, symBinAddr: 0x1000129CC, symSize: 0x20 }
  - { offsetInCU: 0x1F2E8, offset: 0x1F2E8, size: 0x8, addend: 0x0, symName: __ZNSt3__19allocatorIPPN16BinarySearchTreeI4Duck14DuckWealthLessE4NodeEE8allocateB8ue170006Em, symObjAddr: 0x10204, symBinAddr: 0x1000129EC, symSize: 0x58 }
  - { offsetInCU: 0x1F326, offset: 0x1F326, size: 0x8, addend: 0x0, symName: __ZNSt3__116allocator_traitsINS_9allocatorIPPN16BinarySearchTreeI4Duck14DuckWealthLessE4NodeEEEE8max_sizeB8ue170006IS9_vEEmRKS9_, symObjAddr: 0x1025C, symBinAddr: 0x100012A44, symSize: 0x24 }
  - { offsetInCU: 0x1F354, offset: 0x1F354, size: 0x8, addend: 0x0, symName: __ZNKSt3__19allocatorIPPN16BinarySearchTreeI4Duck14DuckWealthLessE4NodeEE8max_sizeB8ue170006Ev, symObjAddr: 0x10280, symBinAddr: 0x100012A68, symSize: 0x14 }
  - { offsetInCU: 0x1F37A, offset: 0x1F37A, size: 0x8, addend: 0x0, symName: __ZNSt3__122__allocator_destructorINS_9allocatorIPN16BinarySearchTreeI4Duck14DuckWealthLessE4NodeEEEEC2B8ue170006ERS8_m, symObjAddr: 0x10294, symBinAddr: 0x100012A7C, symSize: 0x2C }
  - { offsetInCU: 0x1F3C0, offset: 0x1F3C0, size: 0x8, addend: 0x0, symName: __ZNSt3__110unique_ptrIPPN16BinarySearchTreeI4Duck14DuckWealthLessE4NodeENS_22__allocator_destructorINS_9allocatorIS6_EEEEEC2B8ue170006ILb1EvEES7_NS_16__dependent_typeINS_27__unique_ptr_deleter_sfinaeISB_EEXT_EE20__good_rval_ref_typeE, symObjAddr: 0x102C0, symBinAddr: 0x100012AA8, symSize: 0x48 }
  - { offsetInCU: 0x1F411, offset: 0x1F411, size: 0x8, addend: 0x0, symName: __ZNSt3__117__compressed_pairIPPN16BinarySearchTreeI4Duck14DuckWealthLessE4NodeENS_22__allocator_destructorINS_9allocatorIS6_EEEEEC1B8ue170006IRS7_SB_EEOT_OT0_, symObjAddr: 0x10308, symBinAddr: 0x100012AF0, symSize: 0x3C }
  - { offsetInCU: 0x1F469, offset: 0x1F469, size: 0x8, addend: 0x0, symName: __ZNSt3__117__compressed_pairIPPN16BinarySearchTreeI4Duck14DuckWealthLessE4NodeENS_22__allocator_destructorINS_9allocatorIS6_EEEEEC2B8ue170006IRS7_SB_EEOT_OT0_, symObjAddr: 0x10344, symBinAddr: 0x100012B2C, symSize: 0x48 }
  - { offsetInCU: 0x1F4C1, offset: 0x1F4C1, size: 0x8, addend: 0x0, symName: __ZNSt3__122__compressed_pair_elemIPPN16BinarySearchTreeI4Duck14DuckWealthLessE4NodeELi0ELb0EEC2B8ue170006IRS7_vEEOT_, symObjAddr: 0x1038C, symBinAddr: 0x100012B74, symSize: 0x24 }
  - { offsetInCU: 0x1F503, offset: 0x1F503, size: 0x8, addend: 0x0, symName: __ZNSt3__122__compressed_pair_elemINS_22__allocator_destructorINS_9allocatorIPN16BinarySearchTreeI4Duck14DuckWealthLessE4NodeEEEEELi1ELb0EEC2B8ue170006ISA_vEEOT_, symObjAddr: 0x103B0, symBinAddr: 0x100012B98, symSize: 0x24 }
  - { offsetInCU: 0x1F545, offset: 0x1F545, size: 0x8, addend: 0x0, symName: __ZNKSt3__117__compressed_pairIPPN16BinarySearchTreeI4Duck14DuckWealthLessE4NodeENS_22__allocator_destructorINS_9allocatorIS6_EEEEE5firstB8ue170006Ev, symObjAddr: 0x103D4, symBinAddr: 0x100012BBC, symSize: 0x24 }
  - { offsetInCU: 0x1F56B, offset: 0x1F56B, size: 0x8, addend: 0x0, symName: __ZNKSt3__122__compressed_pair_elemIPPN16BinarySearchTreeI4Duck14DuckWealthLessE4NodeELi0ELb0EE5__getB8ue170006Ev, symObjAddr: 0x103F8, symBinAddr: 0x100012BE0, symSize: 0x14 }
  - { offsetInCU: 0x1F591, offset: 0x1F591, size: 0x8, addend: 0x0, symName: __ZNSt3__117__compressed_pairIPPN16BinarySearchTreeI4Duck14DuckWealthLessE4NodeENS_22__allocator_destructorINS_9allocatorIS6_EEEEE5firstB8ue170006Ev, symObjAddr: 0x1040C, symBinAddr: 0x100012BF4, symSize: 0x24 }
  - { offsetInCU: 0x1F5B7, offset: 0x1F5B7, size: 0x8, addend: 0x0, symName: __ZNSt3__122__compressed_pair_elemIPPN16BinarySearchTreeI4Duck14DuckWealthLessE4NodeELi0ELb0EE5__getB8ue170006Ev, symObjAddr: 0x10430, symBinAddr: 0x100012C18, symSize: 0x14 }
  - { offsetInCU: 0x1F5DD, offset: 0x1F5DD, size: 0x8, addend: 0x0, symName: __ZNSt3__117__compressed_pairIPPPN16BinarySearchTreeI4Duck14DuckWealthLessE4NodeENS_9allocatorIS7_EEE5firstB8ue170006Ev, symObjAddr: 0x10444, symBinAddr: 0x100012C2C, symSize: 0x24 }
  - { offsetInCU: 0x1F603, offset: 0x1F603, size: 0x8, addend: 0x0, symName: __ZNSt3__122__compressed_pair_elemIPPPN16BinarySearchTreeI4Duck14DuckWealthLessE4NodeELi0ELb0EE5__getB8ue170006Ev, symObjAddr: 0x10468, symBinAddr: 0x100012C50, symSize: 0x14 }
  - { offsetInCU: 0x1F629, offset: 0x1F629, size: 0x8, addend: 0x0, symName: __ZNSt3__117__compressed_pairIPPPN16BinarySearchTreeI4Duck14DuckWealthLessE4NodeERNS_9allocatorIS7_EEE5firstB8ue170006Ev, symObjAddr: 0x1047C, symBinAddr: 0x100012C64, symSize: 0x24 }
  - { offsetInCU: 0x1F64F, offset: 0x1F64F, size: 0x8, addend: 0x0, symName: __ZNSt3__110unique_ptrIPPN16BinarySearchTreeI4Duck14DuckWealthLessE4NodeENS_22__allocator_destructorINS_9allocatorIS6_EEEEED2B8ue170006Ev, symObjAddr: 0x104A0, symBinAddr: 0x100012C88, symSize: 0x30 }
  - { offsetInCU: 0x1F679, offset: 0x1F679, size: 0x8, addend: 0x0, symName: __ZNSt3__110unique_ptrIPPN16BinarySearchTreeI4Duck14DuckWealthLessE4NodeENS_22__allocator_destructorINS_9allocatorIS6_EEEEE5resetB8ue170006ES7_, symObjAddr: 0x104D0, symBinAddr: 0x100012CB8, symSize: 0x78 }
  - { offsetInCU: 0x1F6BD, offset: 0x1F6BD, size: 0x8, addend: 0x0, symName: __ZNSt3__117__compressed_pairIPPN16BinarySearchTreeI4Duck14DuckWealthLessE4NodeENS_22__allocator_destructorINS_9allocatorIS6_EEEEE6secondB8ue170006Ev, symObjAddr: 0x10548, symBinAddr: 0x100012D30, symSize: 0x28 }
  - { offsetInCU: 0x1F6E3, offset: 0x1F6E3, size: 0x8, addend: 0x0, symName: __ZNSt3__122__allocator_destructorINS_9allocatorIPN16BinarySearchTreeI4Duck14DuckWealthLessE4NodeEEEEclB8ue170006EPS7_, symObjAddr: 0x10570, symBinAddr: 0x100012D58, symSize: 0x34 }
  - { offsetInCU: 0x1F717, offset: 0x1F717, size: 0x8, addend: 0x0, symName: __ZNSt3__122__compressed_pair_elemINS_22__allocator_destructorINS_9allocatorIPN16BinarySearchTreeI4Duck14DuckWealthLessE4NodeEEEEELi1ELb0EE5__getB8ue170006Ev, symObjAddr: 0x105A4, symBinAddr: 0x100012D8C, symSize: 0x14 }
  - { offsetInCU: 0x1F73D, offset: 0x1F73D, size: 0x8, addend: 0x0, symName: __ZNSt3__116allocator_traitsINS_9allocatorIPN16BinarySearchTreeI4Duck14DuckWealthLessE4NodeEEEE10deallocateB8ue170006ERS8_PS7_m, symObjAddr: 0x105B8, symBinAddr: 0x100012DA0, symSize: 0x34 }
  - { offsetInCU: 0x1F77F, offset: 0x1F77F, size: 0x8, addend: 0x0, symName: __ZNSt3__19allocatorIPN16BinarySearchTreeI4Duck14DuckWealthLessE4NodeEE10deallocateB8ue170006EPS6_m, symObjAddr: 0x105EC, symBinAddr: 0x100012DD4, symSize: 0x40 }
  - { offsetInCU: 0x1F7C1, offset: 0x1F7C1, size: 0x8, addend: 0x0, symName: __ZNSt3__114__split_bufferIPPN16BinarySearchTreeI4Duck14DuckWealthLessE4NodeERNS_9allocatorIS7_EEED2Ev, symObjAddr: 0x1062C, symBinAddr: 0x100012E14, symSize: 0x8C }
  - { offsetInCU: 0x1F7ED, offset: 0x1F7ED, size: 0x8, addend: 0x0, symName: __ZNSt3__114__split_bufferIPPN16BinarySearchTreeI4Duck14DuckWealthLessE4NodeERNS_9allocatorIS7_EEE5clearB8ue170006Ev, symObjAddr: 0x106B8, symBinAddr: 0x100012EA0, symSize: 0x28 }
  - { offsetInCU: 0x1F813, offset: 0x1F813, size: 0x8, addend: 0x0, symName: __ZNSt3__116allocator_traitsINS_9allocatorIPPN16BinarySearchTreeI4Duck14DuckWealthLessE4NodeEEEE10deallocateB8ue170006ERS9_PS8_m, symObjAddr: 0x106E0, symBinAddr: 0x100012EC8, symSize: 0x34 }
  - { offsetInCU: 0x1F855, offset: 0x1F855, size: 0x8, addend: 0x0, symName: __ZNKSt3__114__split_bufferIPPN16BinarySearchTreeI4Duck14DuckWealthLessE4NodeERNS_9allocatorIS7_EEE8capacityB8ue170006Ev, symObjAddr: 0x10714, symBinAddr: 0x100012EFC, symSize: 0x40 }
  - { offsetInCU: 0x1F87B, offset: 0x1F87B, size: 0x8, addend: 0x0, symName: __ZNSt3__114__split_bufferIPPN16BinarySearchTreeI4Duck14DuckWealthLessE4NodeERNS_9allocatorIS7_EEE17__destruct_at_endB8ue170006EPS7_, symObjAddr: 0x10754, symBinAddr: 0x100012F3C, symSize: 0x2C }
  - { offsetInCU: 0x1F8AF, offset: 0x1F8AF, size: 0x8, addend: 0x0, symName: __ZNSt3__114__split_bufferIPPN16BinarySearchTreeI4Duck14DuckWealthLessE4NodeERNS_9allocatorIS7_EEE17__destruct_at_endB8ue170006EPS7_NS_17integral_constantIbLb0EEE, symObjAddr: 0x10780, symBinAddr: 0x100012F68, symSize: 0x80 }
  - { offsetInCU: 0x1F8EF, offset: 0x1F8EF, size: 0x8, addend: 0x0, symName: __ZNSt3__116allocator_traitsINS_9allocatorIPPN16BinarySearchTreeI4Duck14DuckWealthLessE4NodeEEEE7destroyB8ue170006IS8_vEEvRS9_PT_, symObjAddr: 0x10800, symBinAddr: 0x100012FE8, symSize: 0x2C }
  - { offsetInCU: 0x1F92C, offset: 0x1F92C, size: 0x8, addend: 0x0, symName: __ZNSt3__19allocatorIPPN16BinarySearchTreeI4Duck14DuckWealthLessE4NodeEE7destroyB8ue170006EPS7_, symObjAddr: 0x1082C, symBinAddr: 0x100013014, symSize: 0x14 }
  - { offsetInCU: 0x1F960, offset: 0x1F960, size: 0x8, addend: 0x0, symName: __ZNSt3__19allocatorIPPN16BinarySearchTreeI4Duck14DuckWealthLessE4NodeEE10deallocateB8ue170006EPS7_m, symObjAddr: 0x10840, symBinAddr: 0x100013028, symSize: 0x40 }
  - { offsetInCU: 0x1F9A2, offset: 0x1F9A2, size: 0x8, addend: 0x0, symName: __ZNKSt3__114__split_bufferIPPN16BinarySearchTreeI4Duck14DuckWealthLessE4NodeERNS_9allocatorIS7_EEE9__end_capB8ue170006Ev, symObjAddr: 0x10880, symBinAddr: 0x100013068, symSize: 0x28 }
  - { offsetInCU: 0x1F9C8, offset: 0x1F9C8, size: 0x8, addend: 0x0, symName: __ZNKSt3__117__compressed_pairIPPPN16BinarySearchTreeI4Duck14DuckWealthLessE4NodeERNS_9allocatorIS7_EEE5firstB8ue170006Ev, symObjAddr: 0x108A8, symBinAddr: 0x100013090, symSize: 0x24 }
  - { offsetInCU: 0x1F9EE, offset: 0x1F9EE, size: 0x8, addend: 0x0, symName: __ZNSt3__19allocatorIPN16BinarySearchTreeI4Duck14DuckWealthLessE4NodeEE9constructB8ue170006IS6_JRKS6_EEEvPT_DpOT0_, symObjAddr: 0x108CC, symBinAddr: 0x1000130B4, symSize: 0x28 }
  - { offsetInCU: 0x1FA44, offset: 0x1FA44, size: 0x8, addend: 0x0, symName: __ZNKSt3__114__split_bufferIPPN16BinarySearchTreeI4Duck14DuckWealthLessE4NodeENS_9allocatorIS7_EEE5emptyB8ue170006Ev, symObjAddr: 0x108F4, symBinAddr: 0x1000130DC, symSize: 0x28 }
  - { offsetInCU: 0x1FA6A, offset: 0x1FA6A, size: 0x8, addend: 0x0, symName: __ZNSt3__116__deque_iteratorIPN16BinarySearchTreeI4Duck14DuckWealthLessE4NodeEPS6_RS6_PS7_lLl512EEC1B8ue170006ES9_S7_, symObjAddr: 0x1091C, symBinAddr: 0x100013104, symSize: 0x3C }
  - { offsetInCU: 0x1FAB2, offset: 0x1FAB2, size: 0x8, addend: 0x0, symName: __ZNSt3__116__deque_iteratorIPN16BinarySearchTreeI4Duck14DuckWealthLessE4NodeEPS6_RS6_PS7_lLl512EEC2B8ue170006ES9_S7_, symObjAddr: 0x10958, symBinAddr: 0x100013140, symSize: 0x2C }
  - { offsetInCU: 0x1FAFA, offset: 0x1FAFA, size: 0x8, addend: 0x0, symName: __ZNSt3__117__compressed_pairImNS_9allocatorIPN16BinarySearchTreeI4Duck14DuckWealthLessE4NodeEEEE5firstB8ue170006Ev, symObjAddr: 0x10984, symBinAddr: 0x10001316C, symSize: 0x24 }
  - { offsetInCU: 0x1FB20, offset: 0x1FB20, size: 0x8, addend: 0x0, symName: __ZNSt3__15dequeIPN16BinarySearchTreeI4Duck14DuckWealthLessE4NodeENS_9allocatorIS6_EEE4backEv, symObjAddr: 0x109A8, symBinAddr: 0x100013190, symSize: 0x68 }
  - { offsetInCU: 0x1FB57, offset: 0x1FB57, size: 0x8, addend: 0x0, symName: __ZNSt3__15dequeIPN16BinarySearchTreeI4Duck14DuckWealthLessE4NodeENS_9allocatorIS6_EEE8pop_backEv, symObjAddr: 0x10A10, symBinAddr: 0x1000131F8, symSize: 0xE0 }
  - { offsetInCU: 0x1FBBB, offset: 0x1FBBB, size: 0x8, addend: 0x0, symName: __ZNSt3__116allocator_traitsINS_9allocatorIPN16BinarySearchTreeI4Duck14DuckWealthLessE4NodeEEEE7destroyB8ue170006IS7_vEEvRS8_PT_, symObjAddr: 0x10AF0, symBinAddr: 0x1000132D8, symSize: 0x2C }
  - { offsetInCU: 0x1FBF8, offset: 0x1FBF8, size: 0x8, addend: 0x0, symName: __ZNKSt3__15dequeIPN16BinarySearchTreeI4Duck14DuckWealthLessE4NodeENS_9allocatorIS6_EEE22__annotate_shrink_backB8ue170006Emm, symObjAddr: 0x10B1C, symBinAddr: 0x100013304, symSize: 0x60 }
  - { offsetInCU: 0x1FC3C, offset: 0x1FC3C, size: 0x8, addend: 0x0, symName: __ZNSt3__15dequeIPN16BinarySearchTreeI4Duck14DuckWealthLessE4NodeENS_9allocatorIS6_EEE25__maybe_remove_back_spareB8ue170006Eb, symObjAddr: 0x10B7C, symBinAddr: 0x100013364, symSize: 0xE8 }
  - { offsetInCU: 0x1FC71, offset: 0x1FC71, size: 0x8, addend: 0x0, symName: __ZNSt3__19allocatorIPN16BinarySearchTreeI4Duck14DuckWealthLessE4NodeEE7destroyB8ue170006EPS6_, symObjAddr: 0x10C64, symBinAddr: 0x10001344C, symSize: 0x14 }
  - { offsetInCU: 0x1FCA5, offset: 0x1FCA5, size: 0x8, addend: 0x0, symName: __ZNKSt3__15dequeIPN16BinarySearchTreeI4Duck14DuckWealthLessE4NodeENS_9allocatorIS6_EEE19__back_spare_blocksB8ue170006Ev, symObjAddr: 0x10C78, symBinAddr: 0x100013460, symSize: 0x2C }
  - { offsetInCU: 0x1FCCB, offset: 0x1FCCB, size: 0x8, addend: 0x0, symName: __ZNSt3__114__split_bufferIPPN16BinarySearchTreeI4Duck14DuckWealthLessE4NodeENS_9allocatorIS7_EEE4backB8ue170006Ev, symObjAddr: 0x10CA4, symBinAddr: 0x10001348C, symSize: 0x1C }
  - { offsetInCU: 0x1FCF1, offset: 0x1FCF1, size: 0x8, addend: 0x0, symName: __ZNSt3__114__split_bufferIPPN16BinarySearchTreeI4Duck14DuckWealthLessE4NodeENS_9allocatorIS7_EEE8pop_backB8ue170006Ev, symObjAddr: 0x10CC0, symBinAddr: 0x1000134A8, symSize: 0x2C }
  - { offsetInCU: 0x1FD17, offset: 0x1FD17, size: 0x8, addend: 0x0, symName: __ZNSt3__114__split_bufferIPPN16BinarySearchTreeI4Duck14DuckWealthLessE4NodeENS_9allocatorIS7_EEE17__destruct_at_endB8ue170006EPS7_, symObjAddr: 0x10CEC, symBinAddr: 0x1000134D4, symSize: 0x2C }
  - { offsetInCU: 0x1FD4B, offset: 0x1FD4B, size: 0x8, addend: 0x0, symName: __ZNSt3__114__split_bufferIPPN16BinarySearchTreeI4Duck14DuckWealthLessE4NodeENS_9allocatorIS7_EEE17__destruct_at_endB8ue170006EPS7_NS_17integral_constantIbLb0EEE, symObjAddr: 0x10D18, symBinAddr: 0x100013500, symSize: 0x80 }
  - { offsetInCU: 0x1FD8B, offset: 0x1FD8B, size: 0x8, addend: 0x0, symName: __ZNSt3__15stackIPN16BinarySearchTreeI4Duck14DuckWealthLessE4NodeENS_5dequeIS6_NS_9allocatorIS6_EEEEED2Ev, symObjAddr: 0x10D98, symBinAddr: 0x100013580, symSize: 0x2C }
  - { offsetInCU: 0x1FDB7, offset: 0x1FDB7, size: 0x8, addend: 0x0, symName: __ZNSt3__15dequeIPN16BinarySearchTreeI4Duck14DuckWealthLessE4NodeENS_9allocatorIS6_EEED1B8ue170006Ev, symObjAddr: 0x10DC4, symBinAddr: 0x1000135AC, symSize: 0x2C }
  - { offsetInCU: 0x1FDE1, offset: 0x1FDE1, size: 0x8, addend: 0x0, symName: __ZNSt3__15dequeIPN16BinarySearchTreeI4Duck14DuckWealthLessE4NodeENS_9allocatorIS6_EEED2B8ue170006Ev, symObjAddr: 0x10DF0, symBinAddr: 0x1000135D8, symSize: 0xA4 }
  - { offsetInCU: 0x1FE37, offset: 0x1FE37, size: 0x8, addend: 0x0, symName: __ZNSt3__15dequeIPN16BinarySearchTreeI4Duck14DuckWealthLessE4NodeENS_9allocatorIS6_EEE5clearEv, symObjAddr: 0x10E94, symBinAddr: 0x10001367C, symSize: 0x170 }
  - { offsetInCU: 0x1FE92, offset: 0x1FE92, size: 0x8, addend: 0x0, symName: __ZNKSt3__15dequeIPN16BinarySearchTreeI4Duck14DuckWealthLessE4NodeENS_9allocatorIS6_EEE17__annotate_deleteB8ue170006Ev, symObjAddr: 0x11004, symBinAddr: 0x1000137EC, symSize: 0xE8 }
  - { offsetInCU: 0x1FED5, offset: 0x1FED5, size: 0x8, addend: 0x0, symName: __ZNSt3__114__split_bufferIPPN16BinarySearchTreeI4Duck14DuckWealthLessE4NodeENS_9allocatorIS7_EEED1Ev, symObjAddr: 0x110EC, symBinAddr: 0x1000138D4, symSize: 0x2C }
  - { offsetInCU: 0x1FF01, offset: 0x1FF01, size: 0x8, addend: 0x0, symName: __ZNSt3__15dequeIPN16BinarySearchTreeI4Duck14DuckWealthLessE4NodeENS_9allocatorIS6_EEE5beginB8ue170006Ev, symObjAddr: 0x11118, symBinAddr: 0x100013900, symSize: 0xA8 }
  - { offsetInCU: 0x1FF36, offset: 0x1FF36, size: 0x8, addend: 0x0, symName: __ZNSt3__116__deque_iteratorIPN16BinarySearchTreeI4Duck14DuckWealthLessE4NodeEPS6_RS6_PS7_lLl512EEppB8ue170006Ev, symObjAddr: 0x111F4, symBinAddr: 0x1000139DC, symSize: 0x70 }
  - { offsetInCU: 0x1FF5C, offset: 0x1FF5C, size: 0x8, addend: 0x0, symName: __ZNSt3__114__split_bufferIPPN16BinarySearchTreeI4Duck14DuckWealthLessE4NodeENS_9allocatorIS7_EEED2Ev, symObjAddr: 0x11294, symBinAddr: 0x100013A7C, symSize: 0x80 }
  - { offsetInCU: 0x1FF88, offset: 0x1FF88, size: 0x8, addend: 0x0, symName: __ZNSt3__114__split_bufferIPPN16BinarySearchTreeI4Duck14DuckWealthLessE4NodeENS_9allocatorIS7_EEE5clearB8ue170006Ev, symObjAddr: 0x11314, symBinAddr: 0x100013AFC, symSize: 0x28 }
  - { offsetInCU: 0x1FFAE, offset: 0x1FFAE, size: 0x8, addend: 0x0, symName: __ZN16BinarySearchTreeI4Duck14DuckWealthLessE9Tree_gridC2ERKS2_, symObjAddr: 0x1133C, symBinAddr: 0x100013B24, symSize: 0x90 }
  - { offsetInCU: 0x1FFE6, offset: 0x1FFE6, size: 0x8, addend: 0x0, symName: __ZNSt3__13setIN16BinarySearchTreeI4Duck14DuckWealthLessE16Tree_grid_squareENS_4lessIS5_EENS_9allocatorIS5_EEEC1B8ue170006Ev, symObjAddr: 0x113CC, symBinAddr: 0x100013BB4, symSize: 0x2C }
  - { offsetInCU: 0x20010, offset: 0x20010, size: 0x8, addend: 0x0, symName: __ZN16BinarySearchTreeI4Duck14DuckWealthLessE9Tree_grid5buildEPKNS2_4NodeEii, symObjAddr: 0x113F8, symBinAddr: 0x100013BE0, symSize: 0x3D4 }
  - { offsetInCU: 0x200E7, offset: 0x200E7, size: 0x8, addend: 0x0, symName: __ZNSt3__13setIN16BinarySearchTreeI4Duck14DuckWealthLessE16Tree_grid_squareENS_4lessIS5_EENS_9allocatorIS5_EEED1B8ue170006Ev, symObjAddr: 0x117CC, symBinAddr: 0x100013FB4, symSize: 0x2C }
  - { offsetInCU: 0x20111, offset: 0x20111, size: 0x8, addend: 0x0, symName: __ZNSt3__13setIN16BinarySearchTreeI4Duck14DuckWealthLessE16Tree_grid_squareENS_4lessIS5_EENS_9allocatorIS5_EEEC2B8ue170006Ev, symObjAddr: 0x117F8, symBinAddr: 0x100013FE0, symSize: 0x30 }
  - { offsetInCU: 0x2013B, offset: 0x2013B, size: 0x8, addend: 0x0, symName: __ZNSt3__16__treeIN16BinarySearchTreeI4Duck14DuckWealthLessE16Tree_grid_squareENS_4lessIS5_EENS_9allocatorIS5_EEEC1ERKS7_, symObjAddr: 0x11828, symBinAddr: 0x100014010, symSize: 0x34 }
  - { offsetInCU: 0x20176, offset: 0x20176, size: 0x8, addend: 0x0, symName: __ZNSt3__16__treeIN16BinarySearchTreeI4Duck14DuckWealthLessE16Tree_grid_squareENS_4lessIS5_EENS_9allocatorIS5_EEEC2ERKS7_, symObjAddr: 0x1185C, symBinAddr: 0x100014044, symSize: 0x7C }
  - { offsetInCU: 0x201B1, offset: 0x201B1, size: 0x8, addend: 0x0, symName: __ZNSt3__117__compressed_pairINS_15__tree_end_nodeIPNS_16__tree_node_baseIPvEEEENS_9allocatorINS_11__tree_nodeIN16BinarySearchTreeI4Duck14DuckWealthLessE16Tree_grid_squareES3_EEEEEC1B8ue170006ILb1EvEEv, symObjAddr: 0x118D8, symBinAddr: 0x1000140C0, symSize: 0x2C }
  - { offsetInCU: 0x201E6, offset: 0x201E6, size: 0x8, addend: 0x0, symName: __ZNSt3__117__compressed_pairImNS_4lessIN16BinarySearchTreeI4Duck14DuckWealthLessE16Tree_grid_squareEEEEC1B8ue170006IiRKS7_EEOT_OT0_, symObjAddr: 0x11904, symBinAddr: 0x1000140EC, symSize: 0x3C }
  - { offsetInCU: 0x2023E, offset: 0x2023E, size: 0x8, addend: 0x0, symName: __ZNSt3__16__treeIN16BinarySearchTreeI4Duck14DuckWealthLessE16Tree_grid_squareENS_4lessIS5_EENS_9allocatorIS5_EEE10__end_nodeB8ue170006Ev, symObjAddr: 0x11940, symBinAddr: 0x100014128, symSize: 0x2C }
  - { offsetInCU: 0x20264, offset: 0x20264, size: 0x8, addend: 0x0, symName: __ZNSt3__16__treeIN16BinarySearchTreeI4Duck14DuckWealthLessE16Tree_grid_squareENS_4lessIS5_EENS_9allocatorIS5_EEE12__begin_nodeB8ue170006Ev, symObjAddr: 0x1196C, symBinAddr: 0x100014154, symSize: 0x14 }
  - { offsetInCU: 0x2028A, offset: 0x2028A, size: 0x8, addend: 0x0, symName: __ZNSt3__117__compressed_pairINS_15__tree_end_nodeIPNS_16__tree_node_baseIPvEEEENS_9allocatorINS_11__tree_nodeIN16BinarySearchTreeI4Duck14DuckWealthLessE16Tree_grid_squareES3_EEEEEC2B8ue170006ILb1EvEEv, symObjAddr: 0x11980, symBinAddr: 0x100014168, symSize: 0x34 }
  - { offsetInCU: 0x202BF, offset: 0x202BF, size: 0x8, addend: 0x0, symName: __ZNSt3__122__compressed_pair_elemINS_9allocatorINS_11__tree_nodeIN16BinarySearchTreeI4Duck14DuckWealthLessE16Tree_grid_squareEPvEEEELi1ELb1EEC2B8ue170006ENS_16__value_init_tagE, symObjAddr: 0x119B4, symBinAddr: 0x10001419C, symSize: 0x2C }
  - { offsetInCU: 0x202F3, offset: 0x202F3, size: 0x8, addend: 0x0, symName: __ZNSt3__19allocatorINS_11__tree_nodeIN16BinarySearchTreeI4Duck14DuckWealthLessE16Tree_grid_squareEPvEEEC2B8ue170006Ev, symObjAddr: 0x119E0, symBinAddr: 0x1000141C8, symSize: 0x2C }
  - { offsetInCU: 0x2031D, offset: 0x2031D, size: 0x8, addend: 0x0, symName: __ZNSt3__116__non_trivial_ifILb1ENS_9allocatorINS_11__tree_nodeIN16BinarySearchTreeI4Duck14DuckWealthLessE16Tree_grid_squareEPvEEEEEC2B8ue170006Ev, symObjAddr: 0x11A0C, symBinAddr: 0x1000141F4, symSize: 0x14 }
  - { offsetInCU: 0x20347, offset: 0x20347, size: 0x8, addend: 0x0, symName: __ZNSt3__117__compressed_pairImNS_4lessIN16BinarySearchTreeI4Duck14DuckWealthLessE16Tree_grid_squareEEEEC2B8ue170006IiRKS7_EEOT_OT0_, symObjAddr: 0x11A20, symBinAddr: 0x100014208, symSize: 0x44 }
  - { offsetInCU: 0x2039F, offset: 0x2039F, size: 0x8, addend: 0x0, symName: __ZNSt3__122__compressed_pair_elemINS_4lessIN16BinarySearchTreeI4Duck14DuckWealthLessE16Tree_grid_squareEEELi1ELb1EEC2B8ue170006IRKS7_vEEOT_, symObjAddr: 0x11A64, symBinAddr: 0x10001424C, symSize: 0x18 }
  - { offsetInCU: 0x203E1, offset: 0x203E1, size: 0x8, addend: 0x0, symName: __ZNSt3__117__compressed_pairINS_15__tree_end_nodeIPNS_16__tree_node_baseIPvEEEENS_9allocatorINS_11__tree_nodeIN16BinarySearchTreeI4Duck14DuckWealthLessE16Tree_grid_squareES3_EEEEE5firstB8ue170006Ev, symObjAddr: 0x11A7C, symBinAddr: 0x100014264, symSize: 0x24 }
  - { offsetInCU: 0x20407, offset: 0x20407, size: 0x8, addend: 0x0, symName: __ZNSt3__13setIN16BinarySearchTreeI4Duck14DuckWealthLessE16Tree_grid_squareENS_4lessIS5_EENS_9allocatorIS5_EEE6insertB8ue170006EOS5_, symObjAddr: 0x11AA0, symBinAddr: 0x100014288, symSize: 0x4C }
  - { offsetInCU: 0x2043C, offset: 0x2043C, size: 0x8, addend: 0x0, symName: __ZN16BinarySearchTreeI4Duck14DuckWealthLessE16Tree_grid_squareC1IS0_EEiiT_, symObjAddr: 0x11AEC, symBinAddr: 0x1000142D4, symSize: 0x4C }
  - { offsetInCU: 0x20499, offset: 0x20499, size: 0x8, addend: 0x0, symName: __ZN16BinarySearchTreeI4Duck14DuckWealthLessE9Tree_grid18calculate_x_offsetEii, symObjAddr: 0x11B38, symBinAddr: 0x100014320, symSize: 0x54 }
  - { offsetInCU: 0x204CA, offset: 0x204CA, size: 0x8, addend: 0x0, symName: __ZN16BinarySearchTreeI4Duck14DuckWealthLessE16Tree_grid_squareC1IPKcEEiiT_, symObjAddr: 0x11B8C, symBinAddr: 0x100014374, symSize: 0x44 }
  - { offsetInCU: 0x20527, offset: 0x20527, size: 0x8, addend: 0x0, symName: __ZNSt3__13setIN16BinarySearchTreeI4Duck14DuckWealthLessE16Tree_grid_squareENS_4lessIS5_EENS_9allocatorIS5_EEE4findB8ue170006ERKS5_, symObjAddr: 0x11BD0, symBinAddr: 0x1000143B8, symSize: 0x40 }
  - { offsetInCU: 0x2055C, offset: 0x2055C, size: 0x8, addend: 0x0, symName: __ZNSt3__13setIN16BinarySearchTreeI4Duck14DuckWealthLessE16Tree_grid_squareENS_4lessIS5_EENS_9allocatorIS5_EEE3endB8ue170006Ev, symObjAddr: 0x11C44, symBinAddr: 0x10001442C, symSize: 0x38 }
  - { offsetInCU: 0x20582, offset: 0x20582, size: 0x8, addend: 0x0, symName: __ZNSt3__13setIN16BinarySearchTreeI4Duck14DuckWealthLessE16Tree_grid_squareENS_4lessIS5_EENS_9allocatorIS5_EEE5eraseB8ue170006ENS_21__tree_const_iteratorIS5_PNS_11__tree_nodeIS5_PvEElEE, symObjAddr: 0x11C7C, symBinAddr: 0x100014464, symSize: 0x48 }
  - { offsetInCU: 0x205B7, offset: 0x205B7, size: 0x8, addend: 0x0, symName: __ZNK16BinarySearchTreeI4Duck14DuckWealthLessE16Tree_grid_square5get_xEv, symObjAddr: 0x11CC4, symBinAddr: 0x1000144AC, symSize: 0x18 }
  - { offsetInCU: 0x205DD, offset: 0x205DD, size: 0x8, addend: 0x0, symName: __ZNK16BinarySearchTreeI4Duck14DuckWealthLessE16Tree_grid_square5get_yEv, symObjAddr: 0x11CDC, symBinAddr: 0x1000144C4, symSize: 0x18 }
  - { offsetInCU: 0x20603, offset: 0x20603, size: 0x8, addend: 0x0, symName: __ZNSt3__13setIN16BinarySearchTreeI4Duck14DuckWealthLessE16Tree_grid_squareENS_4lessIS5_EENS_9allocatorIS5_EEE6insertB8ue170006ERKS5_, symObjAddr: 0x11CF4, symBinAddr: 0x1000144DC, symSize: 0x4C }
  - { offsetInCU: 0x20638, offset: 0x20638, size: 0x8, addend: 0x0, symName: __ZNSt3__16__treeIN16BinarySearchTreeI4Duck14DuckWealthLessE16Tree_grid_squareENS_4lessIS5_EENS_9allocatorIS5_EEE15__insert_uniqueB8ue170006EOS5_, symObjAddr: 0x11D40, symBinAddr: 0x100014528, symSize: 0x50 }
  - { offsetInCU: 0x2066D, offset: 0x2066D, size: 0x8, addend: 0x0, symName: __ZNSt3__14pairINS_21__tree_const_iteratorIN16BinarySearchTreeI4Duck14DuckWealthLessE16Tree_grid_squareEPNS_11__tree_nodeIS6_PvEElEEbEC1B8ue170006INS_15__tree_iteratorIS6_SA_lEEbLS8_0EEEONS0_IT_T0_EE, symObjAddr: 0x11D90, symBinAddr: 0x100014578, symSize: 0x34 }
  - { offsetInCU: 0x206C4, offset: 0x206C4, size: 0x8, addend: 0x0, symName: __ZNSt3__16__treeIN16BinarySearchTreeI4Duck14DuckWealthLessE16Tree_grid_squareENS_4lessIS5_EENS_9allocatorIS5_EEE25__emplace_unique_key_argsIS5_JS5_EEENS_4pairINS_15__tree_iteratorIS5_PNS_11__tree_nodeIS5_PvEElEEbEERKT_DpOT0_, symObjAddr: 0x11DC4, symBinAddr: 0x1000145AC, symSize: 0xF0 }
  - { offsetInCU: 0x20770, offset: 0x20770, size: 0x8, addend: 0x0, symName: __ZNSt3__122__tree_key_value_typesIN16BinarySearchTreeI4Duck14DuckWealthLessE16Tree_grid_squareEE9__get_keyB8ue170006ERKS5_, symObjAddr: 0x11EB4, symBinAddr: 0x10001469C, symSize: 0x14 }
  - { offsetInCU: 0x20794, offset: 0x20794, size: 0x8, addend: 0x0, symName: __ZNSt3__16__treeIN16BinarySearchTreeI4Duck14DuckWealthLessE16Tree_grid_squareENS_4lessIS5_EENS_9allocatorIS5_EEE12__find_equalIS5_EERPNS_16__tree_node_baseIPvEERPNS_15__tree_end_nodeISF_EERKT_, symObjAddr: 0x11EC8, symBinAddr: 0x1000146B0, symSize: 0x184 }
  - { offsetInCU: 0x20801, offset: 0x20801, size: 0x8, addend: 0x0, symName: __ZNSt3__16__treeIN16BinarySearchTreeI4Duck14DuckWealthLessE16Tree_grid_squareENS_4lessIS5_EENS_9allocatorIS5_EEE16__construct_nodeIJS5_EEENS_10unique_ptrINS_11__tree_nodeIS5_PvEENS_22__tree_node_destructorINS8_ISF_EEEEEEDpOT_, symObjAddr: 0x1204C, symBinAddr: 0x100014834, symSize: 0x110 }
  - { offsetInCU: 0x20862, offset: 0x20862, size: 0x8, addend: 0x0, symName: __ZNSt3__16__treeIN16BinarySearchTreeI4Duck14DuckWealthLessE16Tree_grid_squareENS_4lessIS5_EENS_9allocatorIS5_EEE16__insert_node_atEPNS_15__tree_end_nodeIPNS_16__tree_node_baseIPvEEEERSF_SF_, symObjAddr: 0x1215C, symBinAddr: 0x100014944, symSize: 0xCC }
  - { offsetInCU: 0x208B7, offset: 0x208B7, size: 0x8, addend: 0x0, symName: __ZNKSt3__110unique_ptrINS_11__tree_nodeIN16BinarySearchTreeI4Duck14DuckWealthLessE16Tree_grid_squareEPvEENS_22__tree_node_destructorINS_9allocatorIS8_EEEEE3getB8ue170006Ev, symObjAddr: 0x12228, symBinAddr: 0x100014A10, symSize: 0x28 }
  - { offsetInCU: 0x208DD, offset: 0x208DD, size: 0x8, addend: 0x0, symName: __ZNSt3__110unique_ptrINS_11__tree_nodeIN16BinarySearchTreeI4Duck14DuckWealthLessE16Tree_grid_squareEPvEENS_22__tree_node_destructorINS_9allocatorIS8_EEEEE7releaseB8ue170006Ev, symObjAddr: 0x12250, symBinAddr: 0x100014A38, symSize: 0x44 }
  - { offsetInCU: 0x20912, offset: 0x20912, size: 0x8, addend: 0x0, symName: __ZNSt3__110unique_ptrINS_11__tree_nodeIN16BinarySearchTreeI4Duck14DuckWealthLessE16Tree_grid_squareEPvEENS_22__tree_node_destructorINS_9allocatorIS8_EEEEED1B8ue170006Ev, symObjAddr: 0x12294, symBinAddr: 0x100014A7C, symSize: 0x2C }
  - { offsetInCU: 0x2093C, offset: 0x2093C, size: 0x8, addend: 0x0, symName: __ZNSt3__115__tree_iteratorIN16BinarySearchTreeI4Duck14DuckWealthLessE16Tree_grid_squareEPNS_11__tree_nodeIS5_PvEElEC1B8ue170006ES9_, symObjAddr: 0x122C0, symBinAddr: 0x100014AA8, symSize: 0x34 }
  - { offsetInCU: 0x2097B, offset: 0x2097B, size: 0x8, addend: 0x0, symName: __ZNSt3__14pairINS_15__tree_iteratorIN16BinarySearchTreeI4Duck14DuckWealthLessE16Tree_grid_squareEPNS_11__tree_nodeIS6_PvEElEEbEC1B8ue170006ISB_RbLS8_0EEEOT_OT0_, symObjAddr: 0x122F4, symBinAddr: 0x100014ADC, symSize: 0x3C }
  - { offsetInCU: 0x209D9, offset: 0x209D9, size: 0x8, addend: 0x0, symName: __ZNKSt3__16__treeIN16BinarySearchTreeI4Duck14DuckWealthLessE16Tree_grid_squareENS_4lessIS5_EENS_9allocatorIS5_EEE6__rootB8ue170006Ev, symObjAddr: 0x12330, symBinAddr: 0x100014B18, symSize: 0x28 }
  - { offsetInCU: 0x209FF, offset: 0x209FF, size: 0x8, addend: 0x0, symName: __ZNKSt3__16__treeIN16BinarySearchTreeI4Duck14DuckWealthLessE16Tree_grid_squareENS_4lessIS5_EENS_9allocatorIS5_EEE10__root_ptrB8ue170006Ev, symObjAddr: 0x12358, symBinAddr: 0x100014B40, symSize: 0x24 }
  - { offsetInCU: 0x20A25, offset: 0x20A25, size: 0x8, addend: 0x0, symName: __ZNSt3__16__treeIN16BinarySearchTreeI4Duck14DuckWealthLessE16Tree_grid_squareENS_4lessIS5_EENS_9allocatorIS5_EEE10value_compB8ue170006Ev, symObjAddr: 0x1237C, symBinAddr: 0x100014B64, symSize: 0x28 }
  - { offsetInCU: 0x20A4B, offset: 0x20A4B, size: 0x8, addend: 0x0, symName: __ZNKSt3__14lessIN16BinarySearchTreeI4Duck14DuckWealthLessE16Tree_grid_squareEEclB8ue170006ERKS5_S8_, symObjAddr: 0x123A4, symBinAddr: 0x100014B8C, symSize: 0x34 }
  - { offsetInCU: 0x20A8F, offset: 0x20A8F, size: 0x8, addend: 0x0, symName: __ZNKSt3__16__treeIN16BinarySearchTreeI4Duck14DuckWealthLessE16Tree_grid_squareENS_4lessIS5_EENS_9allocatorIS5_EEE10__end_nodeB8ue170006Ev, symObjAddr: 0x123D8, symBinAddr: 0x100014BC0, symSize: 0x2C }
  - { offsetInCU: 0x20AB5, offset: 0x20AB5, size: 0x8, addend: 0x0, symName: __ZNKSt3__117__compressed_pairINS_15__tree_end_nodeIPNS_16__tree_node_baseIPvEEEENS_9allocatorINS_11__tree_nodeIN16BinarySearchTreeI4Duck14DuckWealthLessE16Tree_grid_squareES3_EEEEE5firstB8ue170006Ev, symObjAddr: 0x12404, symBinAddr: 0x100014BEC, symSize: 0x24 }
  - { offsetInCU: 0x20ADB, offset: 0x20ADB, size: 0x8, addend: 0x0, symName: __ZNSt3__117__compressed_pairImNS_4lessIN16BinarySearchTreeI4Duck14DuckWealthLessE16Tree_grid_squareEEEE6secondB8ue170006Ev, symObjAddr: 0x12428, symBinAddr: 0x100014C10, symSize: 0x24 }
  - { offsetInCU: 0x20B01, offset: 0x20B01, size: 0x8, addend: 0x0, symName: __ZNSt3__122__compressed_pair_elemINS_4lessIN16BinarySearchTreeI4Duck14DuckWealthLessE16Tree_grid_squareEEELi1ELb1EE5__getB8ue170006Ev, symObjAddr: 0x1244C, symBinAddr: 0x100014C34, symSize: 0x14 }
  - { offsetInCU: 0x20B27, offset: 0x20B27, size: 0x8, addend: 0x0, symName: __ZNK16BinarySearchTreeI4Duck14DuckWealthLessE16Tree_grid_squareltERKS3_, symObjAddr: 0x12460, symBinAddr: 0x100014C48, symSize: 0xB0 }
  - { offsetInCU: 0x20B5B, offset: 0x20B5B, size: 0x8, addend: 0x0, symName: __ZNSt3__16__treeIN16BinarySearchTreeI4Duck14DuckWealthLessE16Tree_grid_squareENS_4lessIS5_EENS_9allocatorIS5_EEE12__node_allocB8ue170006Ev, symObjAddr: 0x12510, symBinAddr: 0x100014CF8, symSize: 0x28 }
  - { offsetInCU: 0x20B81, offset: 0x20B81, size: 0x8, addend: 0x0, symName: __ZNSt3__116allocator_traitsINS_9allocatorINS_11__tree_nodeIN16BinarySearchTreeI4Duck14DuckWealthLessE16Tree_grid_squareEPvEEEEE8allocateB8ue170006ERSA_m, symObjAddr: 0x12538, symBinAddr: 0x100014D20, symSize: 0x2C }
  - { offsetInCU: 0x20BB4, offset: 0x20BB4, size: 0x8, addend: 0x0, symName: __ZNSt3__122__tree_node_destructorINS_9allocatorINS_11__tree_nodeIN16BinarySearchTreeI4Duck14DuckWealthLessE16Tree_grid_squareEPvEEEEEC1B8ue170006ERSA_b, symObjAddr: 0x12564, symBinAddr: 0x100014D4C, symSize: 0x48 }
  - { offsetInCU: 0x20C02, offset: 0x20C02, size: 0x8, addend: 0x0, symName: __ZNSt3__110unique_ptrINS_11__tree_nodeIN16BinarySearchTreeI4Duck14DuckWealthLessE16Tree_grid_squareEPvEENS_22__tree_node_destructorINS_9allocatorIS8_EEEEEC1B8ue170006ILb1EvEEPS8_NS_16__dependent_typeINS_27__unique_ptr_deleter_sfinaeISC_EEXT_EE20__good_rval_ref_typeE, symObjAddr: 0x125AC, symBinAddr: 0x100014D94, symSize: 0x3C }
  - { offsetInCU: 0x20C53, offset: 0x20C53, size: 0x8, addend: 0x0, symName: __ZNSt3__116allocator_traitsINS_9allocatorINS_11__tree_nodeIN16BinarySearchTreeI4Duck14DuckWealthLessE16Tree_grid_squareEPvEEEEE9constructB8ue170006IS7_JS7_EvEEvRSA_PT_DpOT0_, symObjAddr: 0x125E8, symBinAddr: 0x100014DD0, symSize: 0x34 }
  - { offsetInCU: 0x20CAA, offset: 0x20CAA, size: 0x8, addend: 0x0, symName: __ZNSt3__122__tree_key_value_typesIN16BinarySearchTreeI4Duck14DuckWealthLessE16Tree_grid_squareEE9__get_ptrB8ue170006ERS5_, symObjAddr: 0x1261C, symBinAddr: 0x100014E04, symSize: 0x14 }
  - { offsetInCU: 0x20CCE, offset: 0x20CCE, size: 0x8, addend: 0x0, symName: __ZNKSt3__110unique_ptrINS_11__tree_nodeIN16BinarySearchTreeI4Duck14DuckWealthLessE16Tree_grid_squareEPvEENS_22__tree_node_destructorINS_9allocatorIS8_EEEEEptB8ue170006Ev, symObjAddr: 0x12630, symBinAddr: 0x100014E18, symSize: 0x28 }
  - { offsetInCU: 0x20CF4, offset: 0x20CF4, size: 0x8, addend: 0x0, symName: __ZNSt3__110unique_ptrINS_11__tree_nodeIN16BinarySearchTreeI4Duck14DuckWealthLessE16Tree_grid_squareEPvEENS_22__tree_node_destructorINS_9allocatorIS8_EEEEE11get_deleterB8ue170006Ev, symObjAddr: 0x12658, symBinAddr: 0x100014E40, symSize: 0x24 }
  - { offsetInCU: 0x20D1A, offset: 0x20D1A, size: 0x8, addend: 0x0, symName: __ZNSt3__117__compressed_pairINS_15__tree_end_nodeIPNS_16__tree_node_baseIPvEEEENS_9allocatorINS_11__tree_nodeIN16BinarySearchTreeI4Duck14DuckWealthLessE16Tree_grid_squareES3_EEEEE6secondB8ue170006Ev, symObjAddr: 0x1267C, symBinAddr: 0x100014E64, symSize: 0x24 }
  - { offsetInCU: 0x20D40, offset: 0x20D40, size: 0x8, addend: 0x0, symName: __ZNSt3__122__compressed_pair_elemINS_9allocatorINS_11__tree_nodeIN16BinarySearchTreeI4Duck14DuckWealthLessE16Tree_grid_squareEPvEEEELi1ELb1EE5__getB8ue170006Ev, symObjAddr: 0x126A0, symBinAddr: 0x100014E88, symSize: 0x14 }
  - { offsetInCU: 0x20D66, offset: 0x20D66, size: 0x8, addend: 0x0, symName: __ZNSt3__19allocatorINS_11__tree_nodeIN16BinarySearchTreeI4Duck14DuckWealthLessE16Tree_grid_squareEPvEEE8allocateB8ue170006Em, symObjAddr: 0x126B4, symBinAddr: 0x100014E9C, symSize: 0x58 }
  - { offsetInCU: 0x20DA4, offset: 0x20DA4, size: 0x8, addend: 0x0, symName: __ZNSt3__116allocator_traitsINS_9allocatorINS_11__tree_nodeIN16BinarySearchTreeI4Duck14DuckWealthLessE16Tree_grid_squareEPvEEEEE8max_sizeB8ue170006ISA_vEEmRKSA_, symObjAddr: 0x1270C, symBinAddr: 0x100014EF4, symSize: 0x24 }
  - { offsetInCU: 0x20DD2, offset: 0x20DD2, size: 0x8, addend: 0x0, symName: __ZNKSt3__19allocatorINS_11__tree_nodeIN16BinarySearchTreeI4Duck14DuckWealthLessE16Tree_grid_squareEPvEEE8max_sizeB8ue170006Ev, symObjAddr: 0x12730, symBinAddr: 0x100014F18, symSize: 0x14 }
  - { offsetInCU: 0x20DF8, offset: 0x20DF8, size: 0x8, addend: 0x0, symName: __ZNSt3__122__tree_node_destructorINS_9allocatorINS_11__tree_nodeIN16BinarySearchTreeI4Duck14DuckWealthLessE16Tree_grid_squareEPvEEEEEC2B8ue170006ERSA_b, symObjAddr: 0x12744, symBinAddr: 0x100014F2C, symSize: 0x38 }
  - { offsetInCU: 0x20E40, offset: 0x20E40, size: 0x8, addend: 0x0, symName: __ZNSt3__110unique_ptrINS_11__tree_nodeIN16BinarySearchTreeI4Duck14DuckWealthLessE16Tree_grid_squareEPvEENS_22__tree_node_destructorINS_9allocatorIS8_EEEEEC2B8ue170006ILb1EvEEPS8_NS_16__dependent_typeINS_27__unique_ptr_deleter_sfinaeISC_EEXT_EE20__good_rval_ref_typeE, symObjAddr: 0x1277C, symBinAddr: 0x100014F64, symSize: 0x48 }
  - { offsetInCU: 0x20E91, offset: 0x20E91, size: 0x8, addend: 0x0, symName: __ZNSt3__117__compressed_pairIPNS_11__tree_nodeIN16BinarySearchTreeI4Duck14DuckWealthLessE16Tree_grid_squareEPvEENS_22__tree_node_destructorINS_9allocatorIS8_EEEEEC1B8ue170006IRS9_SD_EEOT_OT0_, symObjAddr: 0x127C4, symBinAddr: 0x100014FAC, symSize: 0x3C }
  - { offsetInCU: 0x20EE9, offset: 0x20EE9, size: 0x8, addend: 0x0, symName: __ZNSt3__117__compressed_pairIPNS_11__tree_nodeIN16BinarySearchTreeI4Duck14DuckWealthLessE16Tree_grid_squareEPvEENS_22__tree_node_destructorINS_9allocatorIS8_EEEEEC2B8ue170006IRS9_SD_EEOT_OT0_, symObjAddr: 0x12800, symBinAddr: 0x100014FE8, symSize: 0x48 }
  - { offsetInCU: 0x20F41, offset: 0x20F41, size: 0x8, addend: 0x0, symName: __ZNSt3__122__compressed_pair_elemIPNS_11__tree_nodeIN16BinarySearchTreeI4Duck14DuckWealthLessE16Tree_grid_squareEPvEELi0ELb0EEC2B8ue170006IRS9_vEEOT_, symObjAddr: 0x12848, symBinAddr: 0x100015030, symSize: 0x24 }
  - { offsetInCU: 0x20F83, offset: 0x20F83, size: 0x8, addend: 0x0, symName: __ZNSt3__122__compressed_pair_elemINS_22__tree_node_destructorINS_9allocatorINS_11__tree_nodeIN16BinarySearchTreeI4Duck14DuckWealthLessE16Tree_grid_squareEPvEEEEEELi1ELb0EEC2B8ue170006ISC_vEEOT_, symObjAddr: 0x1286C, symBinAddr: 0x100015054, symSize: 0x24 }
  - { offsetInCU: 0x20FC5, offset: 0x20FC5, size: 0x8, addend: 0x0, symName: __ZNSt3__19allocatorINS_11__tree_nodeIN16BinarySearchTreeI4Duck14DuckWealthLessE16Tree_grid_squareEPvEEE9constructB8ue170006IS6_JS6_EEEvPT_DpOT0_, symObjAddr: 0x12890, symBinAddr: 0x100015078, symSize: 0x30 }
  - { offsetInCU: 0x2101B, offset: 0x2101B, size: 0x8, addend: 0x0, symName: __ZN16BinarySearchTreeI4Duck14DuckWealthLessE16Tree_grid_squareC1EOS3_, symObjAddr: 0x128C0, symBinAddr: 0x1000150A8, symSize: 0x34 }
  - { offsetInCU: 0x21051, offset: 0x21051, size: 0x8, addend: 0x0, symName: __ZN16BinarySearchTreeI4Duck14DuckWealthLessE16Tree_grid_squareC2EOS3_, symObjAddr: 0x128F4, symBinAddr: 0x1000150DC, symSize: 0x48 }
  - { offsetInCU: 0x21087, offset: 0x21087, size: 0x8, addend: 0x0, symName: __ZNKSt3__117__compressed_pairIPNS_11__tree_nodeIN16BinarySearchTreeI4Duck14DuckWealthLessE16Tree_grid_squareEPvEENS_22__tree_node_destructorINS_9allocatorIS8_EEEEE5firstB8ue170006Ev, symObjAddr: 0x1293C, symBinAddr: 0x100015124, symSize: 0x24 }
  - { offsetInCU: 0x210AD, offset: 0x210AD, size: 0x8, addend: 0x0, symName: __ZNKSt3__122__compressed_pair_elemIPNS_11__tree_nodeIN16BinarySearchTreeI4Duck14DuckWealthLessE16Tree_grid_squareEPvEELi0ELb0EE5__getB8ue170006Ev, symObjAddr: 0x12960, symBinAddr: 0x100015148, symSize: 0x14 }
  - { offsetInCU: 0x210D3, offset: 0x210D3, size: 0x8, addend: 0x0, symName: __ZNSt3__117__compressed_pairIPNS_11__tree_nodeIN16BinarySearchTreeI4Duck14DuckWealthLessE16Tree_grid_squareEPvEENS_22__tree_node_destructorINS_9allocatorIS8_EEEEE6secondB8ue170006Ev, symObjAddr: 0x12974, symBinAddr: 0x10001515C, symSize: 0x28 }
  - { offsetInCU: 0x210F9, offset: 0x210F9, size: 0x8, addend: 0x0, symName: __ZNSt3__122__compressed_pair_elemINS_22__tree_node_destructorINS_9allocatorINS_11__tree_nodeIN16BinarySearchTreeI4Duck14DuckWealthLessE16Tree_grid_squareEPvEEEEEELi1ELb0EE5__getB8ue170006Ev, symObjAddr: 0x1299C, symBinAddr: 0x100015184, symSize: 0x14 }
  - { offsetInCU: 0x2111F, offset: 0x2111F, size: 0x8, addend: 0x0, symName: __ZNSt3__16__treeIN16BinarySearchTreeI4Duck14DuckWealthLessE16Tree_grid_squareENS_4lessIS5_EENS_9allocatorIS5_EEE4sizeB8ue170006Ev, symObjAddr: 0x129B0, symBinAddr: 0x100015198, symSize: 0x28 }
  - { offsetInCU: 0x21145, offset: 0x21145, size: 0x8, addend: 0x0, symName: __ZNSt3__117__compressed_pairImNS_4lessIN16BinarySearchTreeI4Duck14DuckWealthLessE16Tree_grid_squareEEEE5firstB8ue170006Ev, symObjAddr: 0x129D8, symBinAddr: 0x1000151C0, symSize: 0x24 }
  - { offsetInCU: 0x2116B, offset: 0x2116B, size: 0x8, addend: 0x0, symName: __ZNSt3__117__compressed_pairIPNS_11__tree_nodeIN16BinarySearchTreeI4Duck14DuckWealthLessE16Tree_grid_squareEPvEENS_22__tree_node_destructorINS_9allocatorIS8_EEEEE5firstB8ue170006Ev, symObjAddr: 0x129FC, symBinAddr: 0x1000151E4, symSize: 0x24 }
  - { offsetInCU: 0x21191, offset: 0x21191, size: 0x8, addend: 0x0, symName: __ZNSt3__122__compressed_pair_elemIPNS_11__tree_nodeIN16BinarySearchTreeI4Duck14DuckWealthLessE16Tree_grid_squareEPvEELi0ELb0EE5__getB8ue170006Ev, symObjAddr: 0x12A20, symBinAddr: 0x100015208, symSize: 0x14 }
  - { offsetInCU: 0x211B7, offset: 0x211B7, size: 0x8, addend: 0x0, symName: __ZNSt3__110unique_ptrINS_11__tree_nodeIN16BinarySearchTreeI4Duck14DuckWealthLessE16Tree_grid_squareEPvEENS_22__tree_node_destructorINS_9allocatorIS8_EEEEED2B8ue170006Ev, symObjAddr: 0x12A34, symBinAddr: 0x10001521C, symSize: 0x30 }
  - { offsetInCU: 0x211E1, offset: 0x211E1, size: 0x8, addend: 0x0, symName: __ZNSt3__110unique_ptrINS_11__tree_nodeIN16BinarySearchTreeI4Duck14DuckWealthLessE16Tree_grid_squareEPvEENS_22__tree_node_destructorINS_9allocatorIS8_EEEEE5resetB8ue170006EPS8_, symObjAddr: 0x12A64, symBinAddr: 0x10001524C, symSize: 0x78 }
  - { offsetInCU: 0x21225, offset: 0x21225, size: 0x8, addend: 0x0, symName: __ZNSt3__122__tree_node_destructorINS_9allocatorINS_11__tree_nodeIN16BinarySearchTreeI4Duck14DuckWealthLessE16Tree_grid_squareEPvEEEEEclB8ue170006EPS9_, symObjAddr: 0x12ADC, symBinAddr: 0x1000152C4, symSize: 0x90 }
  - { offsetInCU: 0x2125A, offset: 0x2125A, size: 0x8, addend: 0x0, symName: __ZNSt3__116allocator_traitsINS_9allocatorINS_11__tree_nodeIN16BinarySearchTreeI4Duck14DuckWealthLessE16Tree_grid_squareEPvEEEEE7destroyB8ue170006IS7_vvEEvRSA_PT_, symObjAddr: 0x12B6C, symBinAddr: 0x100015354, symSize: 0x28 }
  - { offsetInCU: 0x21295, offset: 0x21295, size: 0x8, addend: 0x0, symName: __ZNSt3__116allocator_traitsINS_9allocatorINS_11__tree_nodeIN16BinarySearchTreeI4Duck14DuckWealthLessE16Tree_grid_squareEPvEEEEE10deallocateB8ue170006ERSA_PS9_m, symObjAddr: 0x12B94, symBinAddr: 0x10001537C, symSize: 0x34 }
  - { offsetInCU: 0x212D7, offset: 0x212D7, size: 0x8, addend: 0x0, symName: __ZNSt3__19allocatorINS_11__tree_nodeIN16BinarySearchTreeI4Duck14DuckWealthLessE16Tree_grid_squareEPvEEE10deallocateB8ue170006EPS8_m, symObjAddr: 0x12BC8, symBinAddr: 0x1000153B0, symSize: 0x40 }
  - { offsetInCU: 0x21319, offset: 0x21319, size: 0x8, addend: 0x0, symName: __ZNSt3__115__tree_iteratorIN16BinarySearchTreeI4Duck14DuckWealthLessE16Tree_grid_squareEPNS_11__tree_nodeIS5_PvEElEC2B8ue170006ES9_, symObjAddr: 0x12C08, symBinAddr: 0x1000153F0, symSize: 0x20 }
  - { offsetInCU: 0x21352, offset: 0x21352, size: 0x8, addend: 0x0, symName: __ZNSt3__14pairINS_15__tree_iteratorIN16BinarySearchTreeI4Duck14DuckWealthLessE16Tree_grid_squareEPNS_11__tree_nodeIS6_PvEElEEbEC2B8ue170006ISB_RbLS8_0EEEOT_OT0_, symObjAddr: 0x12C28, symBinAddr: 0x100015410, symSize: 0x38 }
  - { offsetInCU: 0x213B0, offset: 0x213B0, size: 0x8, addend: 0x0, symName: __ZNSt3__14pairINS_21__tree_const_iteratorIN16BinarySearchTreeI4Duck14DuckWealthLessE16Tree_grid_squareEPNS_11__tree_nodeIS6_PvEElEEbEC2B8ue170006INS_15__tree_iteratorIS6_SA_lEEbLS8_0EEEONS0_IT_T0_EE, symObjAddr: 0x12C60, symBinAddr: 0x100015448, symSize: 0x50 }
  - { offsetInCU: 0x21401, offset: 0x21401, size: 0x8, addend: 0x0, symName: __ZNSt3__121__tree_const_iteratorIN16BinarySearchTreeI4Duck14DuckWealthLessE16Tree_grid_squareEPNS_11__tree_nodeIS5_PvEElEC1B8ue170006ENS_15__tree_iteratorIS5_S9_lEE, symObjAddr: 0x12CB0, symBinAddr: 0x100015498, symSize: 0x34 }
  - { offsetInCU: 0x2143A, offset: 0x2143A, size: 0x8, addend: 0x0, symName: __ZNSt3__121__tree_const_iteratorIN16BinarySearchTreeI4Duck14DuckWealthLessE16Tree_grid_squareEPNS_11__tree_nodeIS5_PvEElEC2B8ue170006ENS_15__tree_iteratorIS5_S9_lEE, symObjAddr: 0x12CE4, symBinAddr: 0x1000154CC, symSize: 0x20 }
  - { offsetInCU: 0x21473, offset: 0x21473, size: 0x8, addend: 0x0, symName: __ZN16BinarySearchTreeI4Duck14DuckWealthLessE16Tree_grid_squareC2IS0_EEiiT_, symObjAddr: 0x12D04, symBinAddr: 0x1000154EC, symSize: 0xE8 }
  - { offsetInCU: 0x214E5, offset: 0x214E5, size: 0x8, addend: 0x0, symName: __ZN16BinarySearchTreeI4Duck14DuckWealthLessE16Tree_grid_squareC2IPKcEEiiT_, symObjAddr: 0x12DEC, symBinAddr: 0x1000155D4, symSize: 0xE4 }
  - { offsetInCU: 0x21557, offset: 0x21557, size: 0x8, addend: 0x0, symName: __ZNSt3__16__treeIN16BinarySearchTreeI4Duck14DuckWealthLessE16Tree_grid_squareENS_4lessIS5_EENS_9allocatorIS5_EEE4findIS5_EENS_15__tree_iteratorIS5_PNS_11__tree_nodeIS5_PvEElEERKT_, symObjAddr: 0x12ED0, symBinAddr: 0x1000156B8, symSize: 0xF8 }
  - { offsetInCU: 0x215A6, offset: 0x215A6, size: 0x8, addend: 0x0, symName: __ZNSt3__16__treeIN16BinarySearchTreeI4Duck14DuckWealthLessE16Tree_grid_squareENS_4lessIS5_EENS_9allocatorIS5_EEE13__lower_boundIS5_EENS_15__tree_iteratorIS5_PNS_11__tree_nodeIS5_PvEElEERKT_SG_PNS_15__tree_end_nodeIPNS_16__tree_node_baseISE_EEEE, symObjAddr: 0x12FC8, symBinAddr: 0x1000157B0, symSize: 0xA4 }
  - { offsetInCU: 0x21604, offset: 0x21604, size: 0x8, addend: 0x0, symName: __ZNSt3__16__treeIN16BinarySearchTreeI4Duck14DuckWealthLessE16Tree_grid_squareENS_4lessIS5_EENS_9allocatorIS5_EEE3endB8ue170006Ev, symObjAddr: 0x130A0, symBinAddr: 0x100015888, symSize: 0x34 }
  - { offsetInCU: 0x2162A, offset: 0x2162A, size: 0x8, addend: 0x0, symName: __ZNKSt3__115__tree_iteratorIN16BinarySearchTreeI4Duck14DuckWealthLessE16Tree_grid_squareEPNS_11__tree_nodeIS5_PvEElEdeB8ue170006Ev, symObjAddr: 0x130D4, symBinAddr: 0x1000158BC, symSize: 0x28 }
  - { offsetInCU: 0x21650, offset: 0x21650, size: 0x8, addend: 0x0, symName: __ZNSt3__115__tree_iteratorIN16BinarySearchTreeI4Duck14DuckWealthLessE16Tree_grid_squareEPNS_11__tree_nodeIS5_PvEElEC1B8ue170006EPNS_15__tree_end_nodeIPNS_16__tree_node_baseIS7_EEEE, symObjAddr: 0x130FC, symBinAddr: 0x1000158E4, symSize: 0x34 }
  - { offsetInCU: 0x21689, offset: 0x21689, size: 0x8, addend: 0x0, symName: __ZNSt3__115__tree_iteratorIN16BinarySearchTreeI4Duck14DuckWealthLessE16Tree_grid_squareEPNS_11__tree_nodeIS5_PvEElEC2B8ue170006EPNS_15__tree_end_nodeIPNS_16__tree_node_baseIS7_EEEE, symObjAddr: 0x13130, symBinAddr: 0x100015918, symSize: 0x20 }
  - { offsetInCU: 0x216C2, offset: 0x216C2, size: 0x8, addend: 0x0, symName: __ZNKSt3__115__tree_iteratorIN16BinarySearchTreeI4Duck14DuckWealthLessE16Tree_grid_squareEPNS_11__tree_nodeIS5_PvEElE8__get_npB8ue170006Ev, symObjAddr: 0x13180, symBinAddr: 0x100015968, symSize: 0x18 }
  - { offsetInCU: 0x216E8, offset: 0x216E8, size: 0x8, addend: 0x0, symName: __ZNSt3__16__treeIN16BinarySearchTreeI4Duck14DuckWealthLessE16Tree_grid_squareENS_4lessIS5_EENS_9allocatorIS5_EEE5eraseENS_21__tree_const_iteratorIS5_PNS_11__tree_nodeIS5_PvEElEE, symObjAddr: 0x131C8, symBinAddr: 0x1000159B0, symSize: 0x98 }
  - { offsetInCU: 0x2174C, offset: 0x2174C, size: 0x8, addend: 0x0, symName: __ZNKSt3__121__tree_const_iteratorIN16BinarySearchTreeI4Duck14DuckWealthLessE16Tree_grid_squareEPNS_11__tree_nodeIS5_PvEElE8__get_npB8ue170006Ev, symObjAddr: 0x13260, symBinAddr: 0x100015A48, symSize: 0x18 }
  - { offsetInCU: 0x21772, offset: 0x21772, size: 0x8, addend: 0x0, symName: __ZNSt3__16__treeIN16BinarySearchTreeI4Duck14DuckWealthLessE16Tree_grid_squareENS_4lessIS5_EENS_9allocatorIS5_EEE21__remove_node_pointerEPNS_11__tree_nodeIS5_PvEE, symObjAddr: 0x13278, symBinAddr: 0x100015A60, symSize: 0xB4 }
  - { offsetInCU: 0x217B8, offset: 0x217B8, size: 0x8, addend: 0x0, symName: __ZNKSt3__121__tree_const_iteratorIN16BinarySearchTreeI4Duck14DuckWealthLessE16Tree_grid_squareEPNS_11__tree_nodeIS5_PvEElEdeB8ue170006Ev, symObjAddr: 0x1332C, symBinAddr: 0x100015B14, symSize: 0x28 }
  - { offsetInCU: 0x217DE, offset: 0x217DE, size: 0x8, addend: 0x0, symName: __ZNSt3__115__tree_iteratorIN16BinarySearchTreeI4Duck14DuckWealthLessE16Tree_grid_squareEPNS_11__tree_nodeIS5_PvEElEppB8ue170006Ev, symObjAddr: 0x13354, symBinAddr: 0x100015B3C, symSize: 0x38 }
  - { offsetInCU: 0x21804, offset: 0x21804, size: 0x8, addend: 0x0, symName: __ZNSt3__16__treeIN16BinarySearchTreeI4Duck14DuckWealthLessE16Tree_grid_squareENS_4lessIS5_EENS_9allocatorIS5_EEE15__insert_uniqueB8ue170006ERKS5_, symObjAddr: 0x1338C, symBinAddr: 0x100015B74, symSize: 0x50 }
  - { offsetInCU: 0x21839, offset: 0x21839, size: 0x8, addend: 0x0, symName: __ZNSt3__16__treeIN16BinarySearchTreeI4Duck14DuckWealthLessE16Tree_grid_squareENS_4lessIS5_EENS_9allocatorIS5_EEE25__emplace_unique_key_argsIS5_JRKS5_EEENS_4pairINS_15__tree_iteratorIS5_PNS_11__tree_nodeIS5_PvEElEEbEERKT_DpOT0_, symObjAddr: 0x133DC, symBinAddr: 0x100015BC4, symSize: 0xF0 }
  - { offsetInCU: 0x218E5, offset: 0x218E5, size: 0x8, addend: 0x0, symName: __ZNSt3__16__treeIN16BinarySearchTreeI4Duck14DuckWealthLessE16Tree_grid_squareENS_4lessIS5_EENS_9allocatorIS5_EEE16__construct_nodeIJRKS5_EEENS_10unique_ptrINS_11__tree_nodeIS5_PvEENS_22__tree_node_destructorINS8_ISH_EEEEEEDpOT_, symObjAddr: 0x134CC, symBinAddr: 0x100015CB4, symSize: 0x108 }
  - { offsetInCU: 0x21946, offset: 0x21946, size: 0x8, addend: 0x0, symName: __ZNSt3__116allocator_traitsINS_9allocatorINS_11__tree_nodeIN16BinarySearchTreeI4Duck14DuckWealthLessE16Tree_grid_squareEPvEEEEE9constructB8ue170006IS7_JRKS7_EvEEvRSA_PT_DpOT0_, symObjAddr: 0x135D4, symBinAddr: 0x100015DBC, symSize: 0x34 }
  - { offsetInCU: 0x2199D, offset: 0x2199D, size: 0x8, addend: 0x0, symName: __ZNSt3__19allocatorINS_11__tree_nodeIN16BinarySearchTreeI4Duck14DuckWealthLessE16Tree_grid_squareEPvEEE9constructB8ue170006IS6_JRKS6_EEEvPT_DpOT0_, symObjAddr: 0x13608, symBinAddr: 0x100015DF0, symSize: 0x30 }
  - { offsetInCU: 0x219F3, offset: 0x219F3, size: 0x8, addend: 0x0, symName: __ZN16BinarySearchTreeI4Duck14DuckWealthLessE16Tree_grid_squareC1ERKS3_, symObjAddr: 0x13638, symBinAddr: 0x100015E20, symSize: 0x34 }
  - { offsetInCU: 0x21A29, offset: 0x21A29, size: 0x8, addend: 0x0, symName: __ZN16BinarySearchTreeI4Duck14DuckWealthLessE16Tree_grid_squareC2ERKS3_, symObjAddr: 0x1366C, symBinAddr: 0x100015E54, symSize: 0x48 }
  - { offsetInCU: 0x21A5F, offset: 0x21A5F, size: 0x8, addend: 0x0, symName: __ZNSt3__13setIN16BinarySearchTreeI4Duck14DuckWealthLessE16Tree_grid_squareENS_4lessIS5_EENS_9allocatorIS5_EEED2B8ue170006Ev, symObjAddr: 0x136B4, symBinAddr: 0x100015E9C, symSize: 0x2C }
  - { offsetInCU: 0x21A89, offset: 0x21A89, size: 0x8, addend: 0x0, symName: __ZNSt3__16__treeIN16BinarySearchTreeI4Duck14DuckWealthLessE16Tree_grid_squareENS_4lessIS5_EENS_9allocatorIS5_EEED1Ev, symObjAddr: 0x136E0, symBinAddr: 0x100015EC8, symSize: 0x2C }
  - { offsetInCU: 0x21AB5, offset: 0x21AB5, size: 0x8, addend: 0x0, symName: __ZNSt3__16__treeIN16BinarySearchTreeI4Duck14DuckWealthLessE16Tree_grid_squareENS_4lessIS5_EENS_9allocatorIS5_EEED2Ev, symObjAddr: 0x1370C, symBinAddr: 0x100015EF4, symSize: 0x38 }
  - { offsetInCU: 0x21AE1, offset: 0x21AE1, size: 0x8, addend: 0x0, symName: __ZNSt3__16__treeIN16BinarySearchTreeI4Duck14DuckWealthLessE16Tree_grid_squareENS_4lessIS5_EENS_9allocatorIS5_EEE7destroyEPNS_11__tree_nodeIS5_PvEE, symObjAddr: 0x13744, symBinAddr: 0x100015F2C, symSize: 0x9C }
  - { offsetInCU: 0x21B35, offset: 0x21B35, size: 0x8, addend: 0x0, symName: __ZNKSt3__13setIN16BinarySearchTreeI4Duck14DuckWealthLessE16Tree_grid_squareENS_4lessIS5_EENS_9allocatorIS5_EEE4findB8ue170006ERKS5_, symObjAddr: 0x137E0, symBinAddr: 0x100015FC8, symSize: 0x34 }
  - { offsetInCU: 0x21B6A, offset: 0x21B6A, size: 0x8, addend: 0x0, symName: __ZNKSt3__13setIN16BinarySearchTreeI4Duck14DuckWealthLessE16Tree_grid_squareENS_4lessIS5_EENS_9allocatorIS5_EEE3endB8ue170006Ev, symObjAddr: 0x13814, symBinAddr: 0x100015FFC, symSize: 0x2C }
  - { offsetInCU: 0x21B90, offset: 0x21B90, size: 0x8, addend: 0x0, symName: __ZNKSt3__16__treeIN16BinarySearchTreeI4Duck14DuckWealthLessE16Tree_grid_squareENS_4lessIS5_EENS_9allocatorIS5_EEE4findIS5_EENS_21__tree_const_iteratorIS5_PNS_11__tree_nodeIS5_PvEElEERKT_, symObjAddr: 0x13840, symBinAddr: 0x100016028, symSize: 0xF8 }
  - { offsetInCU: 0x21BDF, offset: 0x21BDF, size: 0x8, addend: 0x0, symName: __ZNKSt3__16__treeIN16BinarySearchTreeI4Duck14DuckWealthLessE16Tree_grid_squareENS_4lessIS5_EENS_9allocatorIS5_EEE13__lower_boundIS5_EENS_21__tree_const_iteratorIS5_PNS_11__tree_nodeIS5_PvEElEERKT_SG_PNS_15__tree_end_nodeIPNS_16__tree_node_baseISE_EEEE, symObjAddr: 0x13938, symBinAddr: 0x100016120, symSize: 0xA4 }
  - { offsetInCU: 0x21C3D, offset: 0x21C3D, size: 0x8, addend: 0x0, symName: __ZNKSt3__16__treeIN16BinarySearchTreeI4Duck14DuckWealthLessE16Tree_grid_squareENS_4lessIS5_EENS_9allocatorIS5_EEE3endB8ue170006Ev, symObjAddr: 0x139DC, symBinAddr: 0x1000161C4, symSize: 0x34 }
  - { offsetInCU: 0x21C63, offset: 0x21C63, size: 0x8, addend: 0x0, symName: __ZNKSt3__16__treeIN16BinarySearchTreeI4Duck14DuckWealthLessE16Tree_grid_squareENS_4lessIS5_EENS_9allocatorIS5_EEE10value_compB8ue170006Ev, symObjAddr: 0x13A10, symBinAddr: 0x1000161F8, symSize: 0x28 }
  - { offsetInCU: 0x21C89, offset: 0x21C89, size: 0x8, addend: 0x0, symName: __ZNSt3__121__tree_const_iteratorIN16BinarySearchTreeI4Duck14DuckWealthLessE16Tree_grid_squareEPNS_11__tree_nodeIS5_PvEElEC1B8ue170006EPNS_15__tree_end_nodeIPNS_16__tree_node_baseIS7_EEEE, symObjAddr: 0x13A38, symBinAddr: 0x100016220, symSize: 0x34 }
  - { offsetInCU: 0x21CC2, offset: 0x21CC2, size: 0x8, addend: 0x0, symName: __ZNSt3__121__tree_const_iteratorIN16BinarySearchTreeI4Duck14DuckWealthLessE16Tree_grid_squareEPNS_11__tree_nodeIS5_PvEElEC2B8ue170006EPNS_15__tree_end_nodeIPNS_16__tree_node_baseIS7_EEEE, symObjAddr: 0x13A6C, symBinAddr: 0x100016254, symSize: 0x20 }
  - { offsetInCU: 0x21CFB, offset: 0x21CFB, size: 0x8, addend: 0x0, symName: __ZNKSt3__117__compressed_pairImNS_4lessIN16BinarySearchTreeI4Duck14DuckWealthLessE16Tree_grid_squareEEEE6secondB8ue170006Ev, symObjAddr: 0x13A8C, symBinAddr: 0x100016274, symSize: 0x24 }
  - { offsetInCU: 0x21D21, offset: 0x21D21, size: 0x8, addend: 0x0, symName: __ZNKSt3__122__compressed_pair_elemINS_4lessIN16BinarySearchTreeI4Duck14DuckWealthLessE16Tree_grid_squareEEELi1ELb1EE5__getB8ue170006Ev, symObjAddr: 0x13AB0, symBinAddr: 0x100016298, symSize: 0x14 }
  - { offsetInCU: 0x21D47, offset: 0x21D47, size: 0x8, addend: 0x0, symName: __ZN16BinarySearchTreeI4Duck14DuckWealthLessE16Tree_grid_squareC2Eii, symObjAddr: 0x13AC4, symBinAddr: 0x1000162AC, symSize: 0x48 }
  - { offsetInCU: 0x21D8D, offset: 0x21D8D, size: 0x8, addend: 0x0, symName: __ZN16BinarySearchTreeI4Duck14DuckWealthLessE16Tree_grid_squareD2Ev, symObjAddr: 0x13B0C, symBinAddr: 0x1000162F4, symSize: 0x30 }
  - { offsetInCU: 0x21DBA, offset: 0x21DBA, size: 0x8, addend: 0x0, symName: __ZN16BinarySearchTreeI4Duck14DuckWealthLessE9Tree_gridD2Ev, symObjAddr: 0x13B3C, symBinAddr: 0x100016324, symSize: 0x2C }
  - { offsetInCU: 0x21DE7, offset: 0x21DE7, size: 0x8, addend: 0x0, symName: __ZN16BinarySearchTreeIiNSt3__14lessIiEEE21min_greater_than_implEPNS3_4NodeERKiS2_, symObjAddr: 0x13B68, symBinAddr: 0x100016350, symSize: 0xB0 }
  - { offsetInCU: 0x21E46, offset: 0x21E46, size: 0x8, addend: 0x0, symName: __ZN16BinarySearchTreeI4Duck14DuckWealthLessE21min_greater_than_implEPNS2_4NodeERKS0_S1_, symObjAddr: 0x13C18, symBinAddr: 0x100016400, symSize: 0xB0 }
  - { offsetInCU: 0x21EA5, offset: 0x21EA5, size: 0x8, addend: 0x0, symName: __ZNKSt3__112basic_stringIcNS_11char_traitsIcEENS_9allocatorIcEEE4dataB8ue170006Ev, symObjAddr: 0x13CC8, symBinAddr: 0x1000164B0, symSize: 0x28 }
  - { offsetInCU: 0x21ECB, offset: 0x21ECB, size: 0x8, addend: 0x0, symName: __ZNKSt3__112basic_stringIcNS_11char_traitsIcEENS_9allocatorIcEEE13__get_pointerB8ue170006Ev, symObjAddr: 0x13D04, symBinAddr: 0x1000164EC, symSize: 0x54 }
  - { offsetInCU: 0x21EF1, offset: 0x21EF1, size: 0x8, addend: 0x0, symName: __ZNKSt3__112basic_stringIcNS_11char_traitsIcEENS_9allocatorIcEEE18__get_long_pointerB8ue170006Ev, symObjAddr: 0x13D58, symBinAddr: 0x100016540, symSize: 0x28 }
  - { offsetInCU: 0x21F17, offset: 0x21F17, size: 0x8, addend: 0x0, symName: __ZNKSt3__112basic_stringIcNS_11char_traitsIcEENS_9allocatorIcEEE19__get_short_pointerB8ue170006Ev, symObjAddr: 0x13D80, symBinAddr: 0x100016568, symSize: 0x28 }
  - { offsetInCU: 0x21F3D, offset: 0x21F3D, size: 0x8, addend: 0x0, symName: __ZNSt3__114pointer_traitsIPKcE10pointer_toB8ue170006ERS1_, symObjAddr: 0x13DA8, symBinAddr: 0x100016590, symSize: 0x14 }
...
